---
triple:          'x86_64-apple-darwin'
binary-path:     libopenal.1.dylib
relocations:
  - { offset: 0x30E77, size: 0x8, addend: 0x0, symName: __ZNSt3__111__introsortINS_15_RangeAlgPolicyERNS_6ranges4lessEPP14EffectSlotBaseLb0EEEvT1_S8_T0_NS_15iterator_traitsIS8_E15difference_typeEb, symObjAddr: 0x42C0, symBinAddr: 0x6610, symSize: 0x890 }
  - { offset: 0x32D2B, size: 0x8, addend: 0x0, symName: __ZNSt3__127__insertion_sort_incompleteB8fe200100INS_15_RangeAlgPolicyERNS_6ranges4lessEPP14EffectSlotBaseEEbT1_S8_T0_, symObjAddr: 0x4B50, symBinAddr: 0x6EA0, symSize: 0x390 }
  - { offset: 0x34D4C, size: 0x8, addend: 0x0, symName: __ZNSt3__120__throw_length_errorB8fe200100EPKc, symObjAddr: 0x3660, symBinAddr: 0x59D0, symSize: 0x50 }
  - { offset: 0x35E74, size: 0x8, addend: 0x0, symName: __ZNSt3__119__partial_sort_implB8fe200100INS_15_RangeAlgPolicyERNS_6ranges4lessEPP14EffectSlotBaseS7_EET1_S8_S8_T2_OT0_, symObjAddr: 0x4EE0, symBinAddr: 0x7230, symSize: 0x350 }
  - { offset: 0x37EB4, size: 0x8, addend: 0x0, symName: __ZSt28__throw_bad_array_new_lengthB8fe200100v, symObjAddr: 0x36E0, symBinAddr: 0x5A50, symSize: 0x40 }
  - { offset: 0x3BA82, size: 0x8, addend: 0x0, symName: __ZN3gsl7details9terminateEv, symObjAddr: 0x3720, symBinAddr: 0x5A90, symSize: 0x10 }
  - { offset: 0x4529C, size: 0x8, addend: 0x0, symName: _alGenAuxiliaryEffectSlots, symObjAddr: 0x0, symBinAddr: 0xC4E70, symSize: 0x60 }
  - { offset: 0x453E6, size: 0x8, addend: 0x0, symName: __ZN12_GLOBAL__N_125alGenAuxiliaryEffectSlotsEN3gsl8not_nullIPN2al7ContextEEEiPj, symObjAddr: 0x60, symBinAddr: 0x29C0, symSize: 0x710 }
  - { offset: 0x46580, size: 0x8, addend: 0x0, symName: __ZN12_GLOBAL__N_115AllocEffectSlotEN3gsl8not_nullIPN2al7ContextEEE, symObjAddr: 0x3310, symBinAddr: 0x5680, symSize: 0xD0 }
  - { offset: 0x468AB, size: 0x8, addend: 0x0, symName: __ZN12_GLOBAL__N_128alDeleteAuxiliaryEffectSlotsEN3gsl8not_nullIPN2al7ContextEEEiPKj, symObjAddr: 0x800, symBinAddr: 0x3100, symSize: 0x450 }
  - { offset: 0x47737, size: 0x8, addend: 0x0, symName: __ZN12_GLOBAL__N_123RemoveActiveEffectSlotsENSt3__14spanIKN3gsl8not_nullIPN2al10EffectSlotEEELm18446744073709551615EEENS3_IPNS4_7ContextEEE, symObjAddr: 0x3C60, symBinAddr: 0x5FD0, symSize: 0x2C0 }
  - { offset: 0x4856D, size: 0x8, addend: 0x0, symName: __ZN12_GLOBAL__N_114FreeEffectSlotEN3gsl8not_nullIPN2al7ContextEEENS1_IPNS2_10EffectSlotEEE, symObjAddr: 0x3740, symBinAddr: 0x5AB0, symSize: 0x130 }
  - { offset: 0x48BE8, size: 0x8, addend: 0x0, symName: __ZN12_GLOBAL__N_122alAuxiliaryEffectSlotiEN3gsl8not_nullIPN2al7ContextEEEjii, symObjAddr: 0xE00, symBinAddr: 0x3690, symSize: 0x890 }
  - { offset: 0x4AB7A, size: 0x8, addend: 0x0, symName: __ZN12_GLOBAL__N_116getFactoryByTypeE14EffectSlotType, symObjAddr: 0x2540, symBinAddr: 0x4AC0, symSize: 0x1D0 }
  - { offset: 0x4ADE1, size: 0x8, addend: 0x0, symName: __ZN12_GLOBAL__N_120AddActiveEffectSlotsENSt3__14spanIKN3gsl8not_nullIPN2al10EffectSlotEEELm18446744073709551615EEENS3_IPNS4_7ContextEEE, symObjAddr: 0x3F30, symBinAddr: 0x62A0, symSize: 0x320 }
  - { offset: 0x4C332, size: 0x8, addend: 0x0, symName: __ZN12_GLOBAL__N_123alAuxiliaryEffectSlotivEN3gsl8not_nullIPN2al7ContextEEEjiPKi, symObjAddr: 0x1720, symBinAddr: 0x3F40, symSize: 0x110 }
  - { offset: 0x4C51F, size: 0x8, addend: 0x0, symName: __ZN12_GLOBAL__N_116LookupEffectSlotEN3gsl8not_nullIPN2al7ContextEEEj, symObjAddr: 0x2E40, symBinAddr: 0x51B0, symSize: 0x60 }
  - { offset: 0x4C5F2, size: 0x8, addend: 0x0, symName: __ZN12_GLOBAL__N_122alAuxiliaryEffectSlotfEN3gsl8not_nullIPN2al7ContextEEEjif, symObjAddr: 0x18C0, symBinAddr: 0x4070, symSize: 0x210 }
  - { offset: 0x4C95B, size: 0x8, addend: 0x0, symName: __ZN12_GLOBAL__N_123alAuxiliaryEffectSlotfvEN3gsl8not_nullIPN2al7ContextEEEjiPKf, symObjAddr: 0x1B60, symBinAddr: 0x42A0, symSize: 0x100 }
  - { offset: 0x4CB4E, size: 0x8, addend: 0x0, symName: __ZN12_GLOBAL__N_125alGetAuxiliaryEffectSlotiEN3gsl8not_nullIPN2al7ContextEEEjiPi, symObjAddr: 0x1CF0, symBinAddr: 0x43C0, symSize: 0x1C0 }
  - { offset: 0x4CE9C, size: 0x8, addend: 0x0, symName: __ZN12_GLOBAL__N_126alGetAuxiliaryEffectSlotivEN3gsl8not_nullIPN2al7ContextEEEjiPi, symObjAddr: 0x1F40, symBinAddr: 0x45A0, symSize: 0x110 }
  - { offset: 0x4D089, size: 0x8, addend: 0x0, symName: __ZN12_GLOBAL__N_125alGetAuxiliaryEffectSlotfEN3gsl8not_nullIPN2al7ContextEEEjiPf, symObjAddr: 0x20E0, symBinAddr: 0x46D0, symSize: 0x160 }
  - { offset: 0x4D2F3, size: 0x8, addend: 0x0, symName: __ZN12_GLOBAL__N_126alGetAuxiliaryEffectSlotfvEN3gsl8not_nullIPN2al7ContextEEEjiPf, symObjAddr: 0x22D0, symBinAddr: 0x4850, symSize: 0xF0 }
  - { offset: 0x4DED5, size: 0x8, addend: 0x0, symName: __ZN17EffectSlotSubListD2Ev, symObjAddr: 0x2F90, symBinAddr: 0x5300, symSize: 0x170 }
  - { offset: 0x4DF01, size: 0x8, addend: 0x0, symName: __ZN17EffectSlotSubListD2Ev, symObjAddr: 0x2F90, symBinAddr: 0x5300, symSize: 0x170 }
  - { offset: 0x4E4FB, size: 0x8, addend: 0x0, symName: __ZNSt3__16vectorI17EffectSlotSubListNS_9allocatorIS1_EEE24__emplace_back_slow_pathIJS1_EEEPS1_DpOT_, symObjAddr: 0x34F0, symBinAddr: 0x5860, symSize: 0x160 }
  - { offset: 0x4EAE7, size: 0x8, addend: 0x0, symName: __ZNSt3__16vectorIN3gsl8not_nullIPN2al10EffectSlotEEENS_9allocatorIS6_EEE20__throw_length_errorB8fe200100Ev, symObjAddr: 0x3730, symBinAddr: 0x5AA0, symSize: 0x10 }
  - { offset: 0x4EAFF, size: 0x8, addend: 0x0, symName: __ZN12_GLOBAL__N_114FreeEffectSlotEN3gsl8not_nullIPN2al7ContextEEENS1_IPNS2_10EffectSlotEEE, symObjAddr: 0x3740, symBinAddr: 0x5AB0, symSize: 0x130 }
  - { offset: 0x4EB34, size: 0x8, addend: 0x0, symName: __ZN2al7Context11throw_errorIJRKiEEEviN3fmt10alsoft_v117fstringIJDpT_EE1tEDpOS7_, symObjAddr: 0x3290, symBinAddr: 0x5600, symSize: 0x20 }
  - { offset: 0x4EBCA, size: 0x8, addend: 0x0, symName: __ZN2al7Context11throw_errorIJRjS2_RKiEEEviN3fmt10alsoft_v117fstringIJDpT_EE1tEDpOS8_, symObjAddr: 0x32B0, symBinAddr: 0x5620, symSize: 0x30 }
  - { offset: 0x4ED43, size: 0x8, addend: 0x0, symName: __Z3ERRIJmRKiPKcEEvN3fmt10alsoft_v117fstringIJDpT_EE1tEDpOS7_, symObjAddr: 0x33E0, symBinAddr: 0x5750, symSize: 0x60 }
  - { offset: 0x4EF89, size: 0x8, addend: 0x0, symName: '__ZNKSt3__16ranges10__for_eachclB8fe200100IRNS_6vectorIN3gsl8not_nullIPN2al10EffectSlotEEENS_9allocatorIS9_EEEENS_8identityEZN12_GLOBAL__N_125alGenAuxiliaryEffectSlotsENS5_IPNS6_7ContextEEEiPjE3$_1EENS0_13in_fun_resultINS_7_IfImplIXL_ZNS0_14borrowed_rangeIT_EEEEE7_SelectIDTclL_ZNS0_5__cpo5beginEEclsr3stdE7declvalIRSO_EEEENS0_8danglingEEET1_EEOSO_SW_T0_', symObjAddr: 0x3440, symBinAddr: 0x57B0, symSize: 0x50 }
  - { offset: 0x4F1FB, size: 0x8, addend: 0x0, symName: __ZN2al7Context11throw_errorIJRKiPKcEEEviN3fmt10alsoft_v117fstringIJDpT_EE1tEDpOS9_, symObjAddr: 0x32E0, symBinAddr: 0x5650, symSize: 0x30 }
  - { offset: 0x4F31B, size: 0x8, addend: 0x0, symName: __Z3ERRIJPKcEEvN3fmt10alsoft_v117fstringIJDpT_EE1tEDpOS5_, symObjAddr: 0x3490, symBinAddr: 0x5800, symSize: 0x60 }
  - { offset: 0x4F479, size: 0x8, addend: 0x0, symName: _alGenAuxiliaryEffectSlotsDirect, symObjAddr: 0x770, symBinAddr: 0x30D0, symSize: 0x20 }
  - { offset: 0x4F4C3, size: 0x8, addend: 0x0, symName: _alGenAuxiliaryEffectSlotsDirect, symObjAddr: 0x770, symBinAddr: 0x30D0, symSize: 0x20 }
  - { offset: 0x4F4E1, size: 0x8, addend: 0x0, symName: _alGenAuxiliaryEffectSlotsDirect, symObjAddr: 0x770, symBinAddr: 0x30D0, symSize: 0x20 }
  - { offset: 0x4F4F5, size: 0x8, addend: 0x0, symName: _alGenAuxiliaryEffectSlotsDirect, symObjAddr: 0x770, symBinAddr: 0x30D0, symSize: 0x20 }
  - { offset: 0x4F512, size: 0x8, addend: 0x0, symName: _alGenAuxiliaryEffectSlotsDirect, symObjAddr: 0x770, symBinAddr: 0x30D0, symSize: 0x20 }
  - { offset: 0x4F54D, size: 0x8, addend: 0x0, symName: _alDeleteAuxiliaryEffectSlots, symObjAddr: 0x7A0, symBinAddr: 0xC4ED0, symSize: 0x60 }
  - { offset: 0x4F9B6, size: 0x8, addend: 0x0, symName: __ZN2al7Context11throw_errorIJRKjEEEviN3fmt10alsoft_v117fstringIJDpT_EE1tEDpOS7_, symObjAddr: 0x3C40, symBinAddr: 0x5FB0, symSize: 0x20 }
  - { offset: 0x4FA34, size: 0x8, addend: 0x0, symName: _alDeleteAuxiliaryEffectSlotsDirect, symObjAddr: 0xC50, symBinAddr: 0x3550, symSize: 0x20 }
  - { offset: 0x4FA7E, size: 0x8, addend: 0x0, symName: _alDeleteAuxiliaryEffectSlotsDirect, symObjAddr: 0xC50, symBinAddr: 0x3550, symSize: 0x20 }
  - { offset: 0x4FA9C, size: 0x8, addend: 0x0, symName: _alDeleteAuxiliaryEffectSlotsDirect, symObjAddr: 0xC50, symBinAddr: 0x3550, symSize: 0x20 }
  - { offset: 0x4FAB0, size: 0x8, addend: 0x0, symName: _alDeleteAuxiliaryEffectSlotsDirect, symObjAddr: 0xC50, symBinAddr: 0x3550, symSize: 0x20 }
  - { offset: 0x4FACD, size: 0x8, addend: 0x0, symName: _alDeleteAuxiliaryEffectSlotsDirect, symObjAddr: 0xC50, symBinAddr: 0x3550, symSize: 0x20 }
  - { offset: 0x4FB13, size: 0x8, addend: 0x0, symName: _alIsAuxiliaryEffectSlot, symObjAddr: 0xC70, symBinAddr: 0x3570, symSize: 0xC0 }
  - { offset: 0x4FD1B, size: 0x8, addend: 0x0, symName: _alIsAuxiliaryEffectSlotDirect, symObjAddr: 0xD30, symBinAddr: 0x3630, symSize: 0x60 }
  - { offset: 0x4FE53, size: 0x8, addend: 0x0, symName: _alIsAuxiliaryEffectSlotDirect.cold.1, symObjAddr: 0x5B60, symBinAddr: 0xC53E0, symSize: 0x50 }
  - { offset: 0x4FE6E, size: 0x8, addend: 0x0, symName: _alIsAuxiliaryEffectSlotDirect.cold.1, symObjAddr: 0x5B60, symBinAddr: 0xC53E0, symSize: 0x50 }
  - { offset: 0x4FF0F, size: 0x8, addend: 0x0, symName: _alAuxiliaryEffectSloti, symObjAddr: 0xD90, symBinAddr: 0xC4F30, symSize: 0x70 }
  - { offset: 0x5077A, size: 0x8, addend: 0x0, symName: __ZN2al10EffectSlot10initEffectEjiRKNSt3__17variantIJNS1_9monostateE11ReverbProps12AutowahProps11ChorusProps15CompressorProps15DistortionProps9EchoProps14EqualizerProps13FshifterProps14ModulatorProps13PshifterProps13VmorpherProps14DedicatedProps16ConvolutionPropsEEEN3gsl8not_nullIPNS_7ContextEEE, symObjAddr: 0x28E0, symBinAddr: 0x4D80, symSize: 0x340 }
  - { offset: 0x50DF5, size: 0x8, addend: 0x0, symName: __ZNK2al10EffectSlot11updatePropsEN3gsl8not_nullIPNS_7ContextEEE, symObjAddr: 0x2C20, symBinAddr: 0xC52B0, symSize: 0x130 }
  - { offset: 0x51377, size: 0x8, addend: 0x0, symName: __ZN12_GLOBAL__N_122alAuxiliaryEffectSlotiEN3gsl8not_nullIPN2al7ContextEEEjii.cold.1, symObjAddr: 0x5BB0, symBinAddr: 0xC5430, symSize: 0x20 }
  - { offset: 0x51392, size: 0x8, addend: 0x0, symName: __ZN12_GLOBAL__N_122alAuxiliaryEffectSlotiEN3gsl8not_nullIPN2al7ContextEEEjii.cold.1, symObjAddr: 0x5BB0, symBinAddr: 0xC5430, symSize: 0x20 }
  - { offset: 0x513A7, size: 0x8, addend: 0x0, symName: __ZN12_GLOBAL__N_122alAuxiliaryEffectSlotiEN3gsl8not_nullIPN2al7ContextEEEjii.cold.1, symObjAddr: 0x5BB0, symBinAddr: 0xC5430, symSize: 0x20 }
  - { offset: 0x5146E, size: 0x8, addend: 0x0, symName: __ZN2al7Context11throw_errorIJRjS2_EEEviN3fmt10alsoft_v117fstringIJDpT_EE1tEDpOS6_, symObjAddr: 0x4270, symBinAddr: 0x65E0, symSize: 0x30 }
  - { offset: 0x51615, size: 0x8, addend: 0x0, symName: __ZN2al7Context11throw_errorIJEEEviN3fmt10alsoft_v117fstringIJDpT_EE1tEDpOS5_, symObjAddr: 0x4250, symBinAddr: 0x65C0, symSize: 0x20 }
  - { offset: 0x51661, size: 0x8, addend: 0x0, symName: _alAuxiliaryEffectSlotiDirect, symObjAddr: 0x1690, symBinAddr: 0x3F20, symSize: 0x20 }
  - { offset: 0x516BB, size: 0x8, addend: 0x0, symName: _alAuxiliaryEffectSlotiDirect, symObjAddr: 0x1690, symBinAddr: 0x3F20, symSize: 0x20 }
  - { offset: 0x516D9, size: 0x8, addend: 0x0, symName: _alAuxiliaryEffectSlotiDirect, symObjAddr: 0x1690, symBinAddr: 0x3F20, symSize: 0x20 }
  - { offset: 0x516ED, size: 0x8, addend: 0x0, symName: _alAuxiliaryEffectSlotiDirect, symObjAddr: 0x1690, symBinAddr: 0x3F20, symSize: 0x20 }
  - { offset: 0x5170A, size: 0x8, addend: 0x0, symName: _alAuxiliaryEffectSlotiDirect, symObjAddr: 0x1690, symBinAddr: 0x3F20, symSize: 0x20 }
  - { offset: 0x51745, size: 0x8, addend: 0x0, symName: _alAuxiliaryEffectSlotiv, symObjAddr: 0x16B0, symBinAddr: 0xC4FA0, symSize: 0x70 }
  - { offset: 0x518E5, size: 0x8, addend: 0x0, symName: _alAuxiliaryEffectSlotivDirect, symObjAddr: 0x1830, symBinAddr: 0x4050, symSize: 0x20 }
  - { offset: 0x5193F, size: 0x8, addend: 0x0, symName: _alAuxiliaryEffectSlotivDirect, symObjAddr: 0x1830, symBinAddr: 0x4050, symSize: 0x20 }
  - { offset: 0x5195D, size: 0x8, addend: 0x0, symName: _alAuxiliaryEffectSlotivDirect, symObjAddr: 0x1830, symBinAddr: 0x4050, symSize: 0x20 }
  - { offset: 0x51971, size: 0x8, addend: 0x0, symName: _alAuxiliaryEffectSlotivDirect, symObjAddr: 0x1830, symBinAddr: 0x4050, symSize: 0x20 }
  - { offset: 0x5198E, size: 0x8, addend: 0x0, symName: _alAuxiliaryEffectSlotivDirect, symObjAddr: 0x1830, symBinAddr: 0x4050, symSize: 0x20 }
  - { offset: 0x519C9, size: 0x8, addend: 0x0, symName: _alAuxiliaryEffectSlotf, symObjAddr: 0x1850, symBinAddr: 0xC5010, symSize: 0x70 }
  - { offset: 0x51B25, size: 0x8, addend: 0x0, symName: __ZN2al7Context11throw_errorIJRfEEEviN3fmt10alsoft_v117fstringIJDpT_EE1tEDpOS6_, symObjAddr: 0x5230, symBinAddr: 0x7580, symSize: 0x20 }
  - { offset: 0x51BA3, size: 0x8, addend: 0x0, symName: _alAuxiliaryEffectSlotfDirect, symObjAddr: 0x1AD0, symBinAddr: 0x4280, symSize: 0x20 }
  - { offset: 0x51BFD, size: 0x8, addend: 0x0, symName: _alAuxiliaryEffectSlotfDirect, symObjAddr: 0x1AD0, symBinAddr: 0x4280, symSize: 0x20 }
  - { offset: 0x51C1B, size: 0x8, addend: 0x0, symName: _alAuxiliaryEffectSlotfDirect, symObjAddr: 0x1AD0, symBinAddr: 0x4280, symSize: 0x20 }
  - { offset: 0x51C2F, size: 0x8, addend: 0x0, symName: _alAuxiliaryEffectSlotfDirect, symObjAddr: 0x1AD0, symBinAddr: 0x4280, symSize: 0x20 }
  - { offset: 0x51C4C, size: 0x8, addend: 0x0, symName: _alAuxiliaryEffectSlotfDirect, symObjAddr: 0x1AD0, symBinAddr: 0x4280, symSize: 0x20 }
  - { offset: 0x51C87, size: 0x8, addend: 0x0, symName: _alAuxiliaryEffectSlotfv, symObjAddr: 0x1AF0, symBinAddr: 0xC5080, symSize: 0x70 }
  - { offset: 0x51DC9, size: 0x8, addend: 0x0, symName: _alAuxiliaryEffectSlotfvDirect, symObjAddr: 0x1C60, symBinAddr: 0x43A0, symSize: 0x20 }
  - { offset: 0x51E23, size: 0x8, addend: 0x0, symName: _alAuxiliaryEffectSlotfvDirect, symObjAddr: 0x1C60, symBinAddr: 0x43A0, symSize: 0x20 }
  - { offset: 0x51E41, size: 0x8, addend: 0x0, symName: _alAuxiliaryEffectSlotfvDirect, symObjAddr: 0x1C60, symBinAddr: 0x43A0, symSize: 0x20 }
  - { offset: 0x51E55, size: 0x8, addend: 0x0, symName: _alAuxiliaryEffectSlotfvDirect, symObjAddr: 0x1C60, symBinAddr: 0x43A0, symSize: 0x20 }
  - { offset: 0x51E72, size: 0x8, addend: 0x0, symName: _alAuxiliaryEffectSlotfvDirect, symObjAddr: 0x1C60, symBinAddr: 0x43A0, symSize: 0x20 }
  - { offset: 0x51EAD, size: 0x8, addend: 0x0, symName: _alGetAuxiliaryEffectSloti, symObjAddr: 0x1C80, symBinAddr: 0xC50F0, symSize: 0x70 }
  - { offset: 0x51FEF, size: 0x8, addend: 0x0, symName: _alGetAuxiliaryEffectSlotiDirect, symObjAddr: 0x1EB0, symBinAddr: 0x4580, symSize: 0x20 }
  - { offset: 0x52049, size: 0x8, addend: 0x0, symName: _alGetAuxiliaryEffectSlotiDirect, symObjAddr: 0x1EB0, symBinAddr: 0x4580, symSize: 0x20 }
  - { offset: 0x52067, size: 0x8, addend: 0x0, symName: _alGetAuxiliaryEffectSlotiDirect, symObjAddr: 0x1EB0, symBinAddr: 0x4580, symSize: 0x20 }
  - { offset: 0x5207B, size: 0x8, addend: 0x0, symName: _alGetAuxiliaryEffectSlotiDirect, symObjAddr: 0x1EB0, symBinAddr: 0x4580, symSize: 0x20 }
  - { offset: 0x52098, size: 0x8, addend: 0x0, symName: _alGetAuxiliaryEffectSlotiDirect, symObjAddr: 0x1EB0, symBinAddr: 0x4580, symSize: 0x20 }
  - { offset: 0x520D3, size: 0x8, addend: 0x0, symName: _alGetAuxiliaryEffectSlotiv, symObjAddr: 0x1ED0, symBinAddr: 0xC5160, symSize: 0x70 }
  - { offset: 0x52215, size: 0x8, addend: 0x0, symName: _alGetAuxiliaryEffectSlotivDirect, symObjAddr: 0x2050, symBinAddr: 0x46B0, symSize: 0x20 }
  - { offset: 0x5226F, size: 0x8, addend: 0x0, symName: _alGetAuxiliaryEffectSlotivDirect, symObjAddr: 0x2050, symBinAddr: 0x46B0, symSize: 0x20 }
  - { offset: 0x5228D, size: 0x8, addend: 0x0, symName: _alGetAuxiliaryEffectSlotivDirect, symObjAddr: 0x2050, symBinAddr: 0x46B0, symSize: 0x20 }
  - { offset: 0x522A1, size: 0x8, addend: 0x0, symName: _alGetAuxiliaryEffectSlotivDirect, symObjAddr: 0x2050, symBinAddr: 0x46B0, symSize: 0x20 }
  - { offset: 0x522BE, size: 0x8, addend: 0x0, symName: _alGetAuxiliaryEffectSlotivDirect, symObjAddr: 0x2050, symBinAddr: 0x46B0, symSize: 0x20 }
  - { offset: 0x522F9, size: 0x8, addend: 0x0, symName: _alGetAuxiliaryEffectSlotf, symObjAddr: 0x2070, symBinAddr: 0xC51D0, symSize: 0x70 }
  - { offset: 0x5243B, size: 0x8, addend: 0x0, symName: _alGetAuxiliaryEffectSlotfDirect, symObjAddr: 0x2240, symBinAddr: 0x4830, symSize: 0x20 }
  - { offset: 0x52495, size: 0x8, addend: 0x0, symName: _alGetAuxiliaryEffectSlotfDirect, symObjAddr: 0x2240, symBinAddr: 0x4830, symSize: 0x20 }
  - { offset: 0x524B3, size: 0x8, addend: 0x0, symName: _alGetAuxiliaryEffectSlotfDirect, symObjAddr: 0x2240, symBinAddr: 0x4830, symSize: 0x20 }
  - { offset: 0x524C7, size: 0x8, addend: 0x0, symName: _alGetAuxiliaryEffectSlotfDirect, symObjAddr: 0x2240, symBinAddr: 0x4830, symSize: 0x20 }
  - { offset: 0x524E4, size: 0x8, addend: 0x0, symName: _alGetAuxiliaryEffectSlotfDirect, symObjAddr: 0x2240, symBinAddr: 0x4830, symSize: 0x20 }
  - { offset: 0x5251F, size: 0x8, addend: 0x0, symName: _alGetAuxiliaryEffectSlotfv, symObjAddr: 0x2260, symBinAddr: 0xC5240, symSize: 0x70 }
  - { offset: 0x52661, size: 0x8, addend: 0x0, symName: _alGetAuxiliaryEffectSlotfvDirect, symObjAddr: 0x23C0, symBinAddr: 0x4940, symSize: 0x20 }
  - { offset: 0x526BB, size: 0x8, addend: 0x0, symName: _alGetAuxiliaryEffectSlotfvDirect, symObjAddr: 0x23C0, symBinAddr: 0x4940, symSize: 0x20 }
  - { offset: 0x526D9, size: 0x8, addend: 0x0, symName: _alGetAuxiliaryEffectSlotfvDirect, symObjAddr: 0x23C0, symBinAddr: 0x4940, symSize: 0x20 }
  - { offset: 0x526ED, size: 0x8, addend: 0x0, symName: _alGetAuxiliaryEffectSlotfvDirect, symObjAddr: 0x23C0, symBinAddr: 0x4940, symSize: 0x20 }
  - { offset: 0x5270A, size: 0x8, addend: 0x0, symName: _alGetAuxiliaryEffectSlotfvDirect, symObjAddr: 0x23C0, symBinAddr: 0x4940, symSize: 0x20 }
  - { offset: 0x52AB8, size: 0x8, addend: 0x0, symName: __ZN2al10EffectSlotC2EN3gsl8not_nullIPNS_7ContextEEE, symObjAddr: 0x23E0, symBinAddr: 0x4960, symSize: 0x160 }
  - { offset: 0x5325F, size: 0x8, addend: 0x0, symName: __ZN2al10EffectSlotC2EN3gsl8not_nullIPNS_7ContextEEE.cold.1, symObjAddr: 0x5BD0, symBinAddr: 0xC5450, symSize: 0x40 }
  - { offset: 0x5361E, size: 0x8, addend: 0x0, symName: __ZN2al10EffectSlotC1EN3gsl8not_nullIPNS_7ContextEEE, symObjAddr: 0x2710, symBinAddr: 0x4C90, symSize: 0x10 }
  - { offset: 0x5369A, size: 0x8, addend: 0x0, symName: __ZN2al10EffectSlotD2Ev, symObjAddr: 0x2720, symBinAddr: 0x4CA0, symSize: 0xE0 }
  - { offset: 0x53E26, size: 0x8, addend: 0x0, symName: __ZN2al10EffectSlot10initEffectEjiRKNSt3__17variantIJNS1_9monostateE11ReverbProps12AutowahProps11ChorusProps15CompressorProps15DistortionProps9EchoProps14EqualizerProps13FshifterProps14ModulatorProps13PshifterProps13VmorpherProps14DedicatedProps16ConvolutionPropsEEEN3gsl8not_nullIPNS_7ContextEEE.cold.1, symObjAddr: 0x5C30, symBinAddr: 0xC5490, symSize: 0x20 }
  - { offset: 0x53E41, size: 0x8, addend: 0x0, symName: __ZN2al10EffectSlot10initEffectEjiRKNSt3__17variantIJNS1_9monostateE11ReverbProps12AutowahProps11ChorusProps15CompressorProps15DistortionProps9EchoProps14EqualizerProps13FshifterProps14ModulatorProps13PshifterProps13VmorpherProps14DedicatedProps16ConvolutionPropsEEEN3gsl8not_nullIPNS_7ContextEEE.cold.1, symObjAddr: 0x5C30, symBinAddr: 0xC5490, symSize: 0x20 }
  - { offset: 0x53E56, size: 0x8, addend: 0x0, symName: __ZN2al10EffectSlot10initEffectEjiRKNSt3__17variantIJNS1_9monostateE11ReverbProps12AutowahProps11ChorusProps15CompressorProps15DistortionProps9EchoProps14EqualizerProps13FshifterProps14ModulatorProps13PshifterProps13VmorpherProps14DedicatedProps16ConvolutionPropsEEEN3gsl8not_nullIPNS_7ContextEEE.cold.1, symObjAddr: 0x5C30, symBinAddr: 0xC5490, symSize: 0x20 }
  - { offset: 0x53E6A, size: 0x8, addend: 0x0, symName: __ZN2al10EffectSlot10initEffectEjiRKNSt3__17variantIJNS1_9monostateE11ReverbProps12AutowahProps11ChorusProps15CompressorProps15DistortionProps9EchoProps14EqualizerProps13FshifterProps14ModulatorProps13PshifterProps13VmorpherProps14DedicatedProps16ConvolutionPropsEEEN3gsl8not_nullIPNS_7ContextEEE.cold.1, symObjAddr: 0x5C30, symBinAddr: 0xC5490, symSize: 0x20 }
  - { offset: 0x53E87, size: 0x8, addend: 0x0, symName: __ZN2al10EffectSlot10initEffectEjiRKNSt3__17variantIJNS1_9monostateE11ReverbProps12AutowahProps11ChorusProps15CompressorProps15DistortionProps9EchoProps14EqualizerProps13FshifterProps14ModulatorProps13PshifterProps13VmorpherProps14DedicatedProps16ConvolutionPropsEEEN3gsl8not_nullIPNS_7ContextEEE.cold.1, symObjAddr: 0x5C30, symBinAddr: 0xC5490, symSize: 0x20 }
  - { offset: 0x53EB2, size: 0x8, addend: 0x0, symName: __ZN2al10EffectSlot10initEffectEjiRKNSt3__17variantIJNS1_9monostateE11ReverbProps12AutowahProps11ChorusProps15CompressorProps15DistortionProps9EchoProps14EqualizerProps13FshifterProps14ModulatorProps13PshifterProps13VmorpherProps14DedicatedProps16ConvolutionPropsEEEN3gsl8not_nullIPNS_7ContextEEE.cold.1, symObjAddr: 0x5C30, symBinAddr: 0xC5490, symSize: 0x20 }
  - { offset: 0x540C0, size: 0x8, addend: 0x0, symName: __ZN2al10EffectSlot7SetNameEN3gsl8not_nullIPNS_7ContextEEEjNSt3__117basic_string_viewIcNS6_11char_traitsIcEEEE, symObjAddr: 0x2D50, symBinAddr: 0x50C0, symSize: 0xF0 }
  - { offset: 0x54356, size: 0x8, addend: 0x0, symName: __ZNSt3__112__hash_tableINS_17__hash_value_typeIjNS_12basic_stringIcNS_11char_traitsIcEENS_9allocatorIcEEEEEENS_22__unordered_map_hasherIjS8_NS_4hashIjEENS_8equal_toIjEELb1EEENS_21__unordered_map_equalIjS8_SD_SB_Lb1EEENS5_IS8_EEE25__emplace_unique_key_argsIjJRKjRKNS_17basic_string_viewIcS4_EEEEENS_4pairINS_15__hash_iteratorIPNS_11__hash_nodeIS8_PvEEEEbEERKT_DpOT0_, symObjAddr: 0x5250, symBinAddr: 0x75A0, symSize: 0x430 }
  - { offset: 0x54856, size: 0x8, addend: 0x0, symName: __ZNSt3__112basic_stringIcNS_11char_traitsIcEENS_9allocatorIcEEE17__assign_externalEPKcm, symObjAddr: 0x59E0, symBinAddr: 0x7D30, symSize: 0x180 }
  - { offset: 0x54D45, size: 0x8, addend: 0x0, symName: __ZN12_GLOBAL__N_116LookupEffectSlotEN3gsl8not_nullIPN2al7ContextEEEj.cold.1, symObjAddr: 0x5C70, symBinAddr: 0xC54B0, symSize: 0x20 }
  - { offset: 0x54DD3, size: 0x8, addend: 0x0, symName: __Z24UpdateAllEffectSlotPropsN3gsl8not_nullIPN2al7ContextEEE, symObjAddr: 0x2EA0, symBinAddr: 0x5210, symSize: 0xF0 }
  - { offset: 0x55078, size: 0x8, addend: 0x0, symName: __ZN17EffectSlotSubListD1Ev, symObjAddr: 0x3100, symBinAddr: 0x5470, symSize: 0x10 }
  - { offset: 0x550DF, size: 0x8, addend: 0x0, symName: _alAuxiliaryEffectSlotPlaySOFT, symObjAddr: 0x3110, symBinAddr: 0x5480, symSize: 0x60 }
  - { offset: 0x55192, size: 0x8, addend: 0x0, symName: _alAuxiliaryEffectSlotPlaySOFT.cold.1, symObjAddr: 0x5C90, symBinAddr: 0xC54D0, symSize: 0x20 }
  - { offset: 0x551AD, size: 0x8, addend: 0x0, symName: _alAuxiliaryEffectSlotPlaySOFT.cold.1, symObjAddr: 0x5C90, symBinAddr: 0xC54D0, symSize: 0x20 }
  - { offset: 0x551C2, size: 0x8, addend: 0x0, symName: _alAuxiliaryEffectSlotPlaySOFT.cold.1, symObjAddr: 0x5C90, symBinAddr: 0xC54D0, symSize: 0x20 }
  - { offset: 0x55248, size: 0x8, addend: 0x0, symName: _alAuxiliaryEffectSlotPlayvSOFT, symObjAddr: 0x3170, symBinAddr: 0x54E0, symSize: 0x60 }
  - { offset: 0x55374, size: 0x8, addend: 0x0, symName: _alAuxiliaryEffectSlotStopSOFT, symObjAddr: 0x31D0, symBinAddr: 0x5540, symSize: 0x60 }
  - { offset: 0x55493, size: 0x8, addend: 0x0, symName: _alAuxiliaryEffectSlotStopvSOFT, symObjAddr: 0x3230, symBinAddr: 0x55A0, symSize: 0x60 }
  - { offset: 0x55553, size: 0x8, addend: 0x0, symName: _alAuxiliaryEffectSlotStopvSOFT.cold.1, symObjAddr: 0x5CF0, symBinAddr: 0xC54F0, symSize: 0x1C }
  - { offset: 0x5556E, size: 0x8, addend: 0x0, symName: _alAuxiliaryEffectSlotStopvSOFT.cold.1, symObjAddr: 0x5CF0, symBinAddr: 0xC54F0, symSize: 0x1C }
  - { offset: 0x55583, size: 0x8, addend: 0x0, symName: _alAuxiliaryEffectSlotStopvSOFT.cold.1, symObjAddr: 0x5CF0, symBinAddr: 0xC54F0, symSize: 0x1C }
  - { offset: 0x55EFC, size: 0x8, addend: 0x0, symName: __ZNSt3__16vectorI17EffectSlotSubListNS_9allocatorIS1_EEE20__throw_length_errorB8fe200100Ev, symObjAddr: 0x3650, symBinAddr: 0x59C0, symSize: 0x10 }
  - { offset: 0x55F14, size: 0x8, addend: 0x0, symName: __ZNSt3__120__throw_length_errorB8fe200100EPKc, symObjAddr: 0x3660, symBinAddr: 0x59D0, symSize: 0x50 }
  - { offset: 0x55F1F, size: 0x8, addend: 0x0, symName: __ZNSt12length_errorC1B8fe200100EPKc, symObjAddr: 0x36B0, symBinAddr: 0x5A20, symSize: 0x30 }
  - { offset: 0x55FD4, size: 0x8, addend: 0x0, symName: __ZNSt3__112__hash_tableINS_17__hash_value_typeIjNS_12basic_stringIcNS_11char_traitsIcEENS_9allocatorIcEEEEEENS_22__unordered_map_hasherIjS8_NS_4hashIjEENS_8equal_toIjEELb1EEENS_21__unordered_map_equalIjS8_SD_SB_Lb1EEENS5_IS8_EEE14__erase_uniqueIjEEmRKT_, symObjAddr: 0x3870, symBinAddr: 0x5BE0, symSize: 0x180 }
  - { offset: 0x5604E, size: 0x8, addend: 0x0, symName: __ZNSt3__112__hash_tableINS_17__hash_value_typeIjNS_12basic_stringIcNS_11char_traitsIcEENS_9allocatorIcEEEEEENS_22__unordered_map_hasherIjS8_NS_4hashIjEENS_8equal_toIjEELb1EEENS_21__unordered_map_equalIjS8_SD_SB_Lb1EEENS5_IS8_EEE14__erase_uniqueIjEEmRKT_, symObjAddr: 0x3870, symBinAddr: 0x5BE0, symSize: 0x180 }
  - { offset: 0x5606A, size: 0x8, addend: 0x0, symName: __ZNSt3__112__hash_tableINS_17__hash_value_typeIjNS_12basic_stringIcNS_11char_traitsIcEENS_9allocatorIcEEEEEENS_22__unordered_map_hasherIjS8_NS_4hashIjEENS_8equal_toIjEELb1EEENS_21__unordered_map_equalIjS8_SD_SB_Lb1EEENS5_IS8_EEE14__erase_uniqueIjEEmRKT_, symObjAddr: 0x3870, symBinAddr: 0x5BE0, symSize: 0x180 }
  - { offset: 0x56768, size: 0x8, addend: 0x0, symName: __ZNSt3__112__hash_tableINS_17__hash_value_typeIjNS_12basic_stringIcNS_11char_traitsIcEENS_9allocatorIcEEEEEENS_22__unordered_map_hasherIjS8_NS_4hashIjEENS_8equal_toIjEELb1EEENS_21__unordered_map_equalIjS8_SD_SB_Lb1EEENS5_IS8_EEE6removeENS_21__hash_const_iteratorIPNS_11__hash_nodeIS8_PvEEEE, symObjAddr: 0x39F0, symBinAddr: 0x5D60, symSize: 0x200 }
  - { offset: 0x56A9B, size: 0x8, addend: 0x0, symName: __ZNSt3__110unique_ptrINS_11__hash_nodeINS_17__hash_value_typeIjNS_12basic_stringIcNS_11char_traitsIcEENS_9allocatorIcEEEEEEPvEENS_22__hash_node_destructorINS6_ISB_EEEEED1B8fe200100Ev, symObjAddr: 0x3BF0, symBinAddr: 0x5F60, symSize: 0x50 }
  - { offset: 0x577DE, size: 0x8, addend: 0x0, symName: __ZNSt3__16vectorIP14EffectSlotBaseNS_9allocatorIS2_EEE20__throw_length_errorB8fe200100Ev, symObjAddr: 0x3F20, symBinAddr: 0x6290, symSize: 0x10 }
  - { offset: 0x577F6, size: 0x8, addend: 0x0, symName: __ZN12_GLOBAL__N_120AddActiveEffectSlotsENSt3__14spanIKN3gsl8not_nullIPN2al10EffectSlotEEELm18446744073709551615EEENS3_IPNS4_7ContextEEE, symObjAddr: 0x3F30, symBinAddr: 0x62A0, symSize: 0x320 }
  - { offset: 0x5806E, size: 0x8, addend: 0x0, symName: __ZNSt3__112__hash_tableINS_17__hash_value_typeIjNS_12basic_stringIcNS_11char_traitsIcEENS_9allocatorIcEEEEEENS_22__unordered_map_hasherIjS8_NS_4hashIjEENS_8equal_toIjEELb1EEENS_21__unordered_map_equalIjS8_SD_SB_Lb1EEENS5_IS8_EEE21__construct_node_hashIRKjJRKNS_17basic_string_viewIcS4_EEEEENS_10unique_ptrINS_11__hash_nodeIS8_PvEENS_22__hash_node_destructorINS5_IST_EEEEEEmOT_DpOT0_, symObjAddr: 0x5680, symBinAddr: 0x79D0, symSize: 0x100 }
  - { offset: 0x58649, size: 0x8, addend: 0x0, symName: __ZNSt3__112__hash_tableINS_17__hash_value_typeIjNS_12basic_stringIcNS_11char_traitsIcEENS_9allocatorIcEEEEEENS_22__unordered_map_hasherIjS8_NS_4hashIjEENS_8equal_toIjEELb1EEENS_21__unordered_map_equalIjS8_SD_SB_Lb1EEENS5_IS8_EEE11__do_rehashILb1EEEvm, symObjAddr: 0x5790, symBinAddr: 0x7AE0, symSize: 0x250 }
  - { offset: 0x58E2C, size: 0x8, addend: 0x0, symName: __ZNSt3__112basic_stringIcNS_11char_traitsIcEENS_9allocatorIcEEE20__throw_length_errorB8fe200100Ev, symObjAddr: 0x5780, symBinAddr: 0x7AD0, symSize: 0x10 }
  - { offset: 0x58E44, size: 0x8, addend: 0x0, symName: __ZNSt3__112__hash_tableINS_17__hash_value_typeIjNS_12basic_stringIcNS_11char_traitsIcEENS_9allocatorIcEEEEEENS_22__unordered_map_hasherIjS8_NS_4hashIjEENS_8equal_toIjEELb1EEENS_21__unordered_map_equalIjS8_SD_SB_Lb1EEENS5_IS8_EEE11__do_rehashILb1EEEvm, symObjAddr: 0x5790, symBinAddr: 0x7AE0, symSize: 0x250 }
  - { offset: 0x89B8E, size: 0x8, addend: 0x0, symName: __ZNSt3__126__throw_bad_variant_accessB8fe200100Ev, symObjAddr: 0x6620, symBinAddr: 0xD380, symSize: 0x40 }
  - { offset: 0x8AFEB, size: 0x8, addend: 0x0, symName: __ZNSt3__134__uninitialized_allocator_relocateB8fe200100INS_9allocatorI13BufferSubListEEPS2_EEvRT_T0_S7_S7_, symObjAddr: 0x5EE0, symBinAddr: 0xD0D0, symSize: 0x140 }
  - { offset: 0x9763F, size: 0x8, addend: 0x0, symName: __ZZN12_GLOBAL__N_119DecomposeUserFormatEiE11UserFmtList, symObjAddr: 0xA8F8, symBinAddr: 0xCB248, symSize: 0x0 }
  - { offset: 0x9794E, size: 0x8, addend: 0x0, symName: __ZN12_GLOBAL__N_119alBufferSubDataSOFTEN3gsl8not_nullIPN2al7ContextEEEjiPKvii, symObjAddr: 0x2730, symBinAddr: 0xA270, symSize: 0x480 }
  - { offset: 0x98688, size: 0x8, addend: 0x0, symName: __ZN12_GLOBAL__N_115alMapBufferSOFTEN3gsl8not_nullIPN2al7ContextEEEjiij, symObjAddr: 0x2C50, symBinAddr: 0xA710, symSize: 0x2C0 }
  - { offset: 0x98D02, size: 0x8, addend: 0x0, symName: __ZN12_GLOBAL__N_112alGetBufferiEN3gsl8not_nullIPN2al7ContextEEEjiPi, symObjAddr: 0x4900, symBinAddr: 0xBEB0, symSize: 0x3D0 }
  - { offset: 0x9952C, size: 0x8, addend: 0x0, symName: __ZN12_GLOBAL__N_112alGenBuffersEN3gsl8not_nullIPN2al7ContextEEEiPj, symObjAddr: 0x60, symBinAddr: 0x7EB0, symSize: 0x560 }
  - { offset: 0x9A221, size: 0x8, addend: 0x0, symName: __ZN12_GLOBAL__N_115alDeleteBuffersEN3gsl8not_nullIPN2al7ContextEEEiPKj, symObjAddr: 0x650, symBinAddr: 0x8430, symSize: 0x2D0 }
  - { offset: 0x9ACDB, size: 0x8, addend: 0x0, symName: __ZN12_GLOBAL__N_119alBufferStorageSOFTEN3gsl8not_nullIPN2al7ContextEEEjiPKviij, symObjAddr: 0xBC0, symBinAddr: 0x8880, symSize: 0x9C0 }
  - { offset: 0x9C72D, size: 0x8, addend: 0x0, symName: __ZN12_GLOBAL__N_118alBufferDataStaticEN3gsl8not_nullIPN2al7ContextEEEjiPvii, symObjAddr: 0x1620, symBinAddr: 0x9260, symSize: 0x890 }
  - { offset: 0x9F08D, size: 0x8, addend: 0x0, symName: __ZN12_GLOBAL__N_120alBufferCallbackSOFTEN3gsl8not_nullIPN2al7ContextEEEjiiPDoFiPvS6_iES6_, symObjAddr: 0x1F50, symBinAddr: 0x9B10, symSize: 0x740 }
  - { offset: 0xA0464, size: 0x8, addend: 0x0, symName: __ZN12_GLOBAL__N_117alUnmapBufferSOFTEN3gsl8not_nullIPN2al7ContextEEEj, symObjAddr: 0x2F90, symBinAddr: 0xA9F0, symSize: 0x150 }
  - { offset: 0xA07A2, size: 0x8, addend: 0x0, symName: __ZN12_GLOBAL__N_123alFlushMappedBufferSOFTEN3gsl8not_nullIPN2al7ContextEEEjii, symObjAddr: 0x3170, symBinAddr: 0xAB60, symSize: 0x1B0 }
  - { offset: 0xA0B67, size: 0x8, addend: 0x0, symName: __ZN12_GLOBAL__N_19alBufferfEN3gsl8not_nullIPN2al7ContextEEEjif, symObjAddr: 0x33A0, symBinAddr: 0xAD30, symSize: 0x150 }
  - { offset: 0xA0EDC, size: 0x8, addend: 0x0, symName: __ZN12_GLOBAL__N_110alBuffer3fEN3gsl8not_nullIPN2al7ContextEEEjifff, symObjAddr: 0x3570, symBinAddr: 0xAEA0, symSize: 0x150 }
  - { offset: 0xA126B, size: 0x8, addend: 0x0, symName: __ZN12_GLOBAL__N_110alBufferfvEN3gsl8not_nullIPN2al7ContextEEEjiPKf, symObjAddr: 0x3750, symBinAddr: 0xB010, symSize: 0x180 }
  - { offset: 0xA1603, size: 0x8, addend: 0x0, symName: __ZN12_GLOBAL__N_19alBufferiEN3gsl8not_nullIPN2al7ContextEEEjii, symObjAddr: 0x3960, symBinAddr: 0xB1B0, symSize: 0x450 }
  - { offset: 0xA1BC2, size: 0x8, addend: 0x0, symName: __ZN12_GLOBAL__N_110alBuffer3iEN3gsl8not_nullIPN2al7ContextEEEjiiii, symObjAddr: 0x3E30, symBinAddr: 0xB620, symSize: 0x150 }
  - { offset: 0xA1F51, size: 0x8, addend: 0x0, symName: __ZN12_GLOBAL__N_110alBufferivEN3gsl8not_nullIPN2al7ContextEEEjiPKi, symObjAddr: 0x4010, symBinAddr: 0xB790, symSize: 0x240 }
  - { offset: 0xA2376, size: 0x8, addend: 0x0, symName: __ZN12_GLOBAL__N_112alGetBufferfEN3gsl8not_nullIPN2al7ContextEEEjiPf, symObjAddr: 0x42E0, symBinAddr: 0xB9F0, symSize: 0x1A0 }
  - { offset: 0xA26EB, size: 0x8, addend: 0x0, symName: __ZN12_GLOBAL__N_113alGetBuffer3fEN3gsl8not_nullIPN2al7ContextEEEjiPfS6_S6_, symObjAddr: 0x4520, symBinAddr: 0xBBB0, symSize: 0x1A0 }
  - { offset: 0xA2AA3, size: 0x8, addend: 0x0, symName: __ZN12_GLOBAL__N_113alGetBufferfvEN3gsl8not_nullIPN2al7ContextEEEjiPf, symObjAddr: 0x4750, symBinAddr: 0xBD70, symSize: 0x120 }
  - { offset: 0xA2C3B, size: 0x8, addend: 0x0, symName: __ZN12_GLOBAL__N_112LookupBufferEN3gsl8not_nullIPN2al7ContextEEEj, symObjAddr: 0x5A30, symBinAddr: 0xCD90, symSize: 0x60 }
  - { offset: 0xA2E1B, size: 0x8, addend: 0x0, symName: __ZN12_GLOBAL__N_113alGetBuffer3iEN3gsl8not_nullIPN2al7ContextEEEjiPiS6_S6_, symObjAddr: 0x4D70, symBinAddr: 0xC2A0, symSize: 0x1A0 }
  - { offset: 0xA31D3, size: 0x8, addend: 0x0, symName: __ZN12_GLOBAL__N_113alGetBufferivEN3gsl8not_nullIPN2al7ContextEEEjiPi, symObjAddr: 0x4FA0, symBinAddr: 0xC460, symSize: 0x1D0 }
  - { offset: 0xA356D, size: 0x8, addend: 0x0, symName: __ZN12_GLOBAL__N_118alGetBufferPtrSOFTEN3gsl8not_nullIPN2al7ContextEEEjiPPv, symObjAddr: 0x5200, symBinAddr: 0xC650, symSize: 0x190 }
  - { offset: 0xA38AD, size: 0x8, addend: 0x0, symName: __ZN12_GLOBAL__N_119alGetBuffer3PtrSOFTEN3gsl8not_nullIPN2al7ContextEEEjiPPvS7_S7_, symObjAddr: 0x5430, symBinAddr: 0xC800, symSize: 0x1A0 }
  - { offset: 0xA3C65, size: 0x8, addend: 0x0, symName: __ZN12_GLOBAL__N_119alGetBufferPtrvSOFTEN3gsl8not_nullIPN2al7ContextEEEjiPPv, symObjAddr: 0x5660, symBinAddr: 0xC9C0, symSize: 0x120 }
  - { offset: 0xA447E, size: 0x8, addend: 0x0, symName: _alGenBuffers, symObjAddr: 0x0, symBinAddr: 0xC5510, symSize: 0x60 }
  - { offset: 0xA5182, size: 0x8, addend: 0x0, symName: __ZNSt3__16vectorI13BufferSubListNS_9allocatorIS1_EEE24__emplace_back_slow_pathIJS1_EEEPS1_DpOT_, symObjAddr: 0x5CA0, symBinAddr: 0xCF50, symSize: 0x140 }
  - { offset: 0xA5616, size: 0x8, addend: 0x0, symName: __ZN13BufferSubListD1Ev, symObjAddr: 0x5B40, symBinAddr: 0xCEA0, symSize: 0xB0 }
  - { offset: 0xA5A7B, size: 0x8, addend: 0x0, symName: _alGenBuffersDirect, symObjAddr: 0x5C0, symBinAddr: 0x8410, symSize: 0x20 }
  - { offset: 0xA5AC5, size: 0x8, addend: 0x0, symName: _alGenBuffersDirect, symObjAddr: 0x5C0, symBinAddr: 0x8410, symSize: 0x20 }
  - { offset: 0xA5AE3, size: 0x8, addend: 0x0, symName: _alGenBuffersDirect, symObjAddr: 0x5C0, symBinAddr: 0x8410, symSize: 0x20 }
  - { offset: 0xA5AF7, size: 0x8, addend: 0x0, symName: _alGenBuffersDirect, symObjAddr: 0x5C0, symBinAddr: 0x8410, symSize: 0x20 }
  - { offset: 0xA5B14, size: 0x8, addend: 0x0, symName: _alGenBuffersDirect, symObjAddr: 0x5C0, symBinAddr: 0x8410, symSize: 0x20 }
  - { offset: 0xA5B4F, size: 0x8, addend: 0x0, symName: _alDeleteBuffers, symObjAddr: 0x5F0, symBinAddr: 0xC5570, symSize: 0x60 }
  - { offset: 0xA6328, size: 0x8, addend: 0x0, symName: _alDeleteBuffersDirect, symObjAddr: 0x920, symBinAddr: 0x8700, symSize: 0x20 }
  - { offset: 0xA6372, size: 0x8, addend: 0x0, symName: _alDeleteBuffersDirect, symObjAddr: 0x920, symBinAddr: 0x8700, symSize: 0x20 }
  - { offset: 0xA6390, size: 0x8, addend: 0x0, symName: _alDeleteBuffersDirect, symObjAddr: 0x920, symBinAddr: 0x8700, symSize: 0x20 }
  - { offset: 0xA63A4, size: 0x8, addend: 0x0, symName: _alDeleteBuffersDirect, symObjAddr: 0x920, symBinAddr: 0x8700, symSize: 0x20 }
  - { offset: 0xA63C1, size: 0x8, addend: 0x0, symName: _alDeleteBuffersDirect, symObjAddr: 0x920, symBinAddr: 0x8700, symSize: 0x20 }
  - { offset: 0xA63FC, size: 0x8, addend: 0x0, symName: _alIsBuffer, symObjAddr: 0x940, symBinAddr: 0x8720, symSize: 0xD0 }
  - { offset: 0xA66E8, size: 0x8, addend: 0x0, symName: _alIsBufferDirect, symObjAddr: 0xA10, symBinAddr: 0x87F0, symSize: 0x60 }
  - { offset: 0xA68ED, size: 0x8, addend: 0x0, symName: _alIsBufferDirect.cold.1, symObjAddr: 0x9380, symBinAddr: 0xC6050, symSize: 0x60 }
  - { offset: 0xA6908, size: 0x8, addend: 0x0, symName: _alIsBufferDirect.cold.1, symObjAddr: 0x9380, symBinAddr: 0xC6050, symSize: 0x60 }
  - { offset: 0xA69BB, size: 0x8, addend: 0x0, symName: _alBufferData, symObjAddr: 0xA70, symBinAddr: 0xC55D0, symSize: 0x90 }
  - { offset: 0xA6B6C, size: 0x8, addend: 0x0, symName: _alBufferDataDirect, symObjAddr: 0xB00, symBinAddr: 0x8850, symSize: 0x30 }
  - { offset: 0xA6C90, size: 0x8, addend: 0x0, symName: _alBufferStorageSOFT, symObjAddr: 0xB30, symBinAddr: 0xC5660, symSize: 0x90 }
  - { offset: 0xA8B14, size: 0x8, addend: 0x0, symName: __ZNSt3__116__variant_detail12__assignmentINS0_8__traitsIJNS_6vectorIhN2al9allocatorIhLm16EEEEENS3_IsNS5_IsLm16EEEEENS3_IiNS5_IiLm16EEEEENS3_IfNS5_IfLm16EEEEENS3_IdNS5_IdLm16EEEEENS3_I11MulawSampleNS5_ISG_Lm16EEEEENS3_I10AlawSampleNS5_ISJ_Lm16EEEEENS3_I8IMA4DataNS5_ISM_Lm16EEEEENS3_I11MSADPCMDataNS5_ISP_Lm16EEEEEEEEE9__emplaceB8fe200100ILm0EJmRhEEERDaDpOT0_, symObjAddr: 0x7BA0, symBinAddr: 0xE900, symSize: 0xD0 }
  - { offset: 0xA8FBC, size: 0x8, addend: 0x0, symName: __ZNSt3__116__variant_detail12__assignmentINS0_8__traitsIJNS_6vectorIhN2al9allocatorIhLm16EEEEENS3_IsNS5_IsLm16EEEEENS3_IiNS5_IiLm16EEEEENS3_IfNS5_IfLm16EEEEENS3_IdNS5_IdLm16EEEEENS3_I11MulawSampleNS5_ISG_Lm16EEEEENS3_I10AlawSampleNS5_ISJ_Lm16EEEEENS3_I8IMA4DataNS5_ISM_Lm16EEEEENS3_I11MSADPCMDataNS5_ISP_Lm16EEEEEEEEE9__emplaceB8fe200100ILm4EJmRdEEERDaDpOT0_, symObjAddr: 0x8190, symBinAddr: 0xEEF0, symSize: 0x140 }
  - { offset: 0xA95BF, size: 0x8, addend: 0x0, symName: __ZNSt3__116__variant_detail12__assignmentINS0_8__traitsIJNS_6vectorIhN2al9allocatorIhLm16EEEEENS3_IsNS5_IsLm16EEEEENS3_IiNS5_IiLm16EEEEENS3_IfNS5_IfLm16EEEEENS3_IdNS5_IdLm16EEEEENS3_I11MulawSampleNS5_ISG_Lm16EEEEENS3_I10AlawSampleNS5_ISJ_Lm16EEEEENS3_I8IMA4DataNS5_ISM_Lm16EEEEENS3_I11MSADPCMDataNS5_ISP_Lm16EEEEEEEEE9__emplaceB8fe200100ILm2EJmRiEEERDaDpOT0_, symObjAddr: 0x7F10, symBinAddr: 0xEC70, symSize: 0x140 }
  - { offset: 0xA9B1E, size: 0x8, addend: 0x0, symName: __ZNSt3__116__variant_detail12__assignmentINS0_8__traitsIJNS_6vectorIhN2al9allocatorIhLm16EEEEENS3_IsNS5_IsLm16EEEEENS3_IiNS5_IiLm16EEEEENS3_IfNS5_IfLm16EEEEENS3_IdNS5_IdLm16EEEEENS3_I11MulawSampleNS5_ISG_Lm16EEEEENS3_I10AlawSampleNS5_ISJ_Lm16EEEEENS3_I8IMA4DataNS5_ISM_Lm16EEEEENS3_I11MSADPCMDataNS5_ISP_Lm16EEEEEEEEE9__emplaceB8fe200100ILm3EJmRfEEERDaDpOT0_, symObjAddr: 0x8050, symBinAddr: 0xEDB0, symSize: 0x140 }
  - { offset: 0xAA0CF, size: 0x8, addend: 0x0, symName: __ZNSt3__116__variant_detail12__assignmentINS0_8__traitsIJNS_6vectorIhN2al9allocatorIhLm16EEEEENS3_IsNS5_IsLm16EEEEENS3_IiNS5_IiLm16EEEEENS3_IfNS5_IfLm16EEEEENS3_IdNS5_IdLm16EEEEENS3_I11MulawSampleNS5_ISG_Lm16EEEEENS3_I10AlawSampleNS5_ISJ_Lm16EEEEENS3_I8IMA4DataNS5_ISM_Lm16EEEEENS3_I11MSADPCMDataNS5_ISP_Lm16EEEEEEEEE9__emplaceB8fe200100ILm7EJmRSM_EEERDaDpOT0_, symObjAddr: 0x8470, symBinAddr: 0xF1D0, symSize: 0xD0 }
  - { offset: 0xAA7B5, size: 0x8, addend: 0x0, symName: __ZNSt3__116__variant_detail12__assignmentINS0_8__traitsIJNS_6vectorIhN2al9allocatorIhLm16EEEEENS3_IsNS5_IsLm16EEEEENS3_IiNS5_IiLm16EEEEENS3_IfNS5_IfLm16EEEEENS3_IdNS5_IdLm16EEEEENS3_I11MulawSampleNS5_ISG_Lm16EEEEENS3_I10AlawSampleNS5_ISJ_Lm16EEEEENS3_I8IMA4DataNS5_ISM_Lm16EEEEENS3_I11MSADPCMDataNS5_ISP_Lm16EEEEEEEEE9__emplaceB8fe200100ILm1EJmRsEEERDaDpOT0_, symObjAddr: 0x7D90, symBinAddr: 0xEAF0, symSize: 0x180 }
  - { offset: 0xAACC2, size: 0x8, addend: 0x0, symName: __ZNSt3__116__variant_detail12__assignmentINS0_8__traitsIJNS_6vectorIhN2al9allocatorIhLm16EEEEENS3_IsNS5_IsLm16EEEEENS3_IiNS5_IiLm16EEEEENS3_IfNS5_IfLm16EEEEENS3_IdNS5_IdLm16EEEEENS3_I11MulawSampleNS5_ISG_Lm16EEEEENS3_I10AlawSampleNS5_ISJ_Lm16EEEEENS3_I8IMA4DataNS5_ISM_Lm16EEEEENS3_I11MSADPCMDataNS5_ISP_Lm16EEEEEEEEE9__emplaceB8fe200100ILm5EJmRSG_EEERDaDpOT0_, symObjAddr: 0x82D0, symBinAddr: 0xF030, symSize: 0xD0 }
  - { offset: 0xAB304, size: 0x8, addend: 0x0, symName: __ZNSt3__116__variant_detail12__assignmentINS0_8__traitsIJNS_6vectorIhN2al9allocatorIhLm16EEEEENS3_IsNS5_IsLm16EEEEENS3_IiNS5_IiLm16EEEEENS3_IfNS5_IfLm16EEEEENS3_IdNS5_IdLm16EEEEENS3_I11MulawSampleNS5_ISG_Lm16EEEEENS3_I10AlawSampleNS5_ISJ_Lm16EEEEENS3_I8IMA4DataNS5_ISM_Lm16EEEEENS3_I11MSADPCMDataNS5_ISP_Lm16EEEEEEEEE9__emplaceB8fe200100ILm6EJmRSJ_EEERDaDpOT0_, symObjAddr: 0x83A0, symBinAddr: 0xF100, symSize: 0xD0 }
  - { offset: 0xAB998, size: 0x8, addend: 0x0, symName: __ZNSt3__116__variant_detail12__assignmentINS0_8__traitsIJNS_6vectorIhN2al9allocatorIhLm16EEEEENS3_IsNS5_IsLm16EEEEENS3_IiNS5_IiLm16EEEEENS3_IfNS5_IfLm16EEEEENS3_IdNS5_IdLm16EEEEENS3_I11MulawSampleNS5_ISG_Lm16EEEEENS3_I10AlawSampleNS5_ISJ_Lm16EEEEENS3_I8IMA4DataNS5_ISM_Lm16EEEEENS3_I11MSADPCMDataNS5_ISP_Lm16EEEEEEEEE9__emplaceB8fe200100ILm8EJmRSP_EEERDaDpOT0_, symObjAddr: 0x8540, symBinAddr: 0xF2A0, symSize: 0xD0 }
  - { offset: 0xAC187, size: 0x8, addend: 0x0, symName: __ZN2al7Context11throw_errorIJRKjS3_S3_EEEviN3fmt10alsoft_v117fstringIJDpT_EE1tEDpOS7_, symObjAddr: 0x65C0, symBinAddr: 0xD350, symSize: 0x30 }
  - { offset: 0xAC402, size: 0x8, addend: 0x0, symName: __ZN2al7Context11throw_errorIJRjNSt3__117basic_string_viewIcNS3_11char_traitsIcEEEEEEEviN3fmt10alsoft_v117fstringIJDpT_EE1tEDpOSB_, symObjAddr: 0x6590, symBinAddr: 0xD320, symSize: 0x30 }
  - { offset: 0xAC5AD, size: 0x8, addend: 0x0, symName: _alBufferStorageDirectSOFT, symObjAddr: 0x1580, symBinAddr: 0x9240, symSize: 0x20 }
  - { offset: 0xAC637, size: 0x8, addend: 0x0, symName: _alBufferStorageDirectSOFT, symObjAddr: 0x1580, symBinAddr: 0x9240, symSize: 0x20 }
  - { offset: 0xAC655, size: 0x8, addend: 0x0, symName: _alBufferStorageDirectSOFT, symObjAddr: 0x1580, symBinAddr: 0x9240, symSize: 0x20 }
  - { offset: 0xAC669, size: 0x8, addend: 0x0, symName: _alBufferStorageDirectSOFT, symObjAddr: 0x1580, symBinAddr: 0x9240, symSize: 0x20 }
  - { offset: 0xAC686, size: 0x8, addend: 0x0, symName: _alBufferStorageDirectSOFT, symObjAddr: 0x1580, symBinAddr: 0x9240, symSize: 0x20 }
  - { offset: 0xAC6C1, size: 0x8, addend: 0x0, symName: _alBufferDataStatic, symObjAddr: 0x15A0, symBinAddr: 0xC56F0, symSize: 0x80 }
  - { offset: 0xAEFA0, size: 0x8, addend: 0x0, symName: __ZN2al7Context11throw_errorIJRKPvNSt3__117basic_string_viewIcNS5_11char_traitsIcEEEERKjEEEviN3fmt10alsoft_v117fstringIJDpT_EE1tEDpOSF_, symObjAddr: 0x86D0, symBinAddr: 0xF430, symSize: 0x30 }
  - { offset: 0xAF1A4, size: 0x8, addend: 0x0, symName: _alBufferDataStaticDirect, symObjAddr: 0x1EB0, symBinAddr: 0x9AF0, symSize: 0x20 }
  - { offset: 0xAF21E, size: 0x8, addend: 0x0, symName: _alBufferDataStaticDirect, symObjAddr: 0x1EB0, symBinAddr: 0x9AF0, symSize: 0x20 }
  - { offset: 0xAF23C, size: 0x8, addend: 0x0, symName: _alBufferDataStaticDirect, symObjAddr: 0x1EB0, symBinAddr: 0x9AF0, symSize: 0x20 }
  - { offset: 0xAF250, size: 0x8, addend: 0x0, symName: _alBufferDataStaticDirect, symObjAddr: 0x1EB0, symBinAddr: 0x9AF0, symSize: 0x20 }
  - { offset: 0xAF26D, size: 0x8, addend: 0x0, symName: _alBufferDataStaticDirect, symObjAddr: 0x1EB0, symBinAddr: 0x9AF0, symSize: 0x20 }
  - { offset: 0xAF2A8, size: 0x8, addend: 0x0, symName: _alBufferCallbackSOFT, symObjAddr: 0x1ED0, symBinAddr: 0xC5770, symSize: 0x80 }
  - { offset: 0xAF616, size: 0x8, addend: 0x0, symName: _alBufferCallbackDirectSOFT, symObjAddr: 0x2690, symBinAddr: 0xA250, symSize: 0x20 }
  - { offset: 0xAF690, size: 0x8, addend: 0x0, symName: _alBufferCallbackDirectSOFT, symObjAddr: 0x2690, symBinAddr: 0xA250, symSize: 0x20 }
  - { offset: 0xAF6AE, size: 0x8, addend: 0x0, symName: _alBufferCallbackDirectSOFT, symObjAddr: 0x2690, symBinAddr: 0xA250, symSize: 0x20 }
  - { offset: 0xAF6C2, size: 0x8, addend: 0x0, symName: _alBufferCallbackDirectSOFT, symObjAddr: 0x2690, symBinAddr: 0xA250, symSize: 0x20 }
  - { offset: 0xAF6DF, size: 0x8, addend: 0x0, symName: _alBufferCallbackDirectSOFT, symObjAddr: 0x2690, symBinAddr: 0xA250, symSize: 0x20 }
  - { offset: 0xAF71A, size: 0x8, addend: 0x0, symName: _alBufferSubDataSOFT, symObjAddr: 0x26B0, symBinAddr: 0xC57F0, symSize: 0x80 }
  - { offset: 0xAFFDC, size: 0x8, addend: 0x0, symName: __ZN2al7Context11throw_errorIJRKiS3_RKjEEEviN3fmt10alsoft_v117fstringIJDpT_EE1tEDpOS9_, symObjAddr: 0x8730, symBinAddr: 0xF460, symSize: 0x30 }
  - { offset: 0xB023C, size: 0x8, addend: 0x0, symName: __ZN2al7Context11throw_errorIJRKiRKjS5_EEEviN3fmt10alsoft_v117fstringIJDpT_EE1tEDpOS9_, symObjAddr: 0x8760, symBinAddr: 0xF490, symSize: 0x30 }
  - { offset: 0xB03B5, size: 0x8, addend: 0x0, symName: _alBufferSubDataDirectSOFT, symObjAddr: 0x2BB0, symBinAddr: 0xA6F0, symSize: 0x20 }
  - { offset: 0xB042F, size: 0x8, addend: 0x0, symName: _alBufferSubDataDirectSOFT, symObjAddr: 0x2BB0, symBinAddr: 0xA6F0, symSize: 0x20 }
  - { offset: 0xB044D, size: 0x8, addend: 0x0, symName: _alBufferSubDataDirectSOFT, symObjAddr: 0x2BB0, symBinAddr: 0xA6F0, symSize: 0x20 }
  - { offset: 0xB0461, size: 0x8, addend: 0x0, symName: _alBufferSubDataDirectSOFT, symObjAddr: 0x2BB0, symBinAddr: 0xA6F0, symSize: 0x20 }
  - { offset: 0xB047E, size: 0x8, addend: 0x0, symName: _alBufferSubDataDirectSOFT, symObjAddr: 0x2BB0, symBinAddr: 0xA6F0, symSize: 0x20 }
  - { offset: 0xB04B9, size: 0x8, addend: 0x0, symName: _alMapBufferSOFT, symObjAddr: 0x2BD0, symBinAddr: 0xC5870, symSize: 0x80 }
  - { offset: 0xB0781, size: 0x8, addend: 0x0, symName: _alMapBufferDirectSOFT, symObjAddr: 0x2F10, symBinAddr: 0xA9D0, symSize: 0x20 }
  - { offset: 0xB07EF, size: 0x8, addend: 0x0, symName: _alMapBufferDirectSOFT, symObjAddr: 0x2F10, symBinAddr: 0xA9D0, symSize: 0x20 }
  - { offset: 0xB080D, size: 0x8, addend: 0x0, symName: _alMapBufferDirectSOFT, symObjAddr: 0x2F10, symBinAddr: 0xA9D0, symSize: 0x20 }
  - { offset: 0xB0821, size: 0x8, addend: 0x0, symName: _alMapBufferDirectSOFT, symObjAddr: 0x2F10, symBinAddr: 0xA9D0, symSize: 0x20 }
  - { offset: 0xB083E, size: 0x8, addend: 0x0, symName: _alMapBufferDirectSOFT, symObjAddr: 0x2F10, symBinAddr: 0xA9D0, symSize: 0x20 }
  - { offset: 0xB0879, size: 0x8, addend: 0x0, symName: _alUnmapBufferSOFT, symObjAddr: 0x2F30, symBinAddr: 0xC58F0, symSize: 0x60 }
  - { offset: 0xB098F, size: 0x8, addend: 0x0, symName: _alUnmapBufferDirectSOFT, symObjAddr: 0x30E0, symBinAddr: 0xAB40, symSize: 0x20 }
  - { offset: 0xB09C9, size: 0x8, addend: 0x0, symName: _alUnmapBufferDirectSOFT, symObjAddr: 0x30E0, symBinAddr: 0xAB40, symSize: 0x20 }
  - { offset: 0xB09E7, size: 0x8, addend: 0x0, symName: _alUnmapBufferDirectSOFT, symObjAddr: 0x30E0, symBinAddr: 0xAB40, symSize: 0x20 }
  - { offset: 0xB09FB, size: 0x8, addend: 0x0, symName: _alUnmapBufferDirectSOFT, symObjAddr: 0x30E0, symBinAddr: 0xAB40, symSize: 0x20 }
  - { offset: 0xB0A18, size: 0x8, addend: 0x0, symName: _alUnmapBufferDirectSOFT, symObjAddr: 0x30E0, symBinAddr: 0xAB40, symSize: 0x20 }
  - { offset: 0xB0A53, size: 0x8, addend: 0x0, symName: _alFlushMappedBufferSOFT, symObjAddr: 0x3100, symBinAddr: 0xC5950, symSize: 0x70 }
  - { offset: 0xB0B95, size: 0x8, addend: 0x0, symName: _alFlushMappedBufferDirectSOFT, symObjAddr: 0x3320, symBinAddr: 0xAD10, symSize: 0x20 }
  - { offset: 0xB0BEF, size: 0x8, addend: 0x0, symName: _alFlushMappedBufferDirectSOFT, symObjAddr: 0x3320, symBinAddr: 0xAD10, symSize: 0x20 }
  - { offset: 0xB0C0D, size: 0x8, addend: 0x0, symName: _alFlushMappedBufferDirectSOFT, symObjAddr: 0x3320, symBinAddr: 0xAD10, symSize: 0x20 }
  - { offset: 0xB0C21, size: 0x8, addend: 0x0, symName: _alFlushMappedBufferDirectSOFT, symObjAddr: 0x3320, symBinAddr: 0xAD10, symSize: 0x20 }
  - { offset: 0xB0C3E, size: 0x8, addend: 0x0, symName: _alFlushMappedBufferDirectSOFT, symObjAddr: 0x3320, symBinAddr: 0xAD10, symSize: 0x20 }
  - { offset: 0xB0C79, size: 0x8, addend: 0x0, symName: _alBufferf, symObjAddr: 0x3340, symBinAddr: 0xC59C0, symSize: 0x60 }
  - { offset: 0xB0EF3, size: 0x8, addend: 0x0, symName: _alBufferfDirect, symObjAddr: 0x34F0, symBinAddr: 0xAE80, symSize: 0x20 }
  - { offset: 0xB0F4D, size: 0x8, addend: 0x0, symName: _alBufferfDirect, symObjAddr: 0x34F0, symBinAddr: 0xAE80, symSize: 0x20 }
  - { offset: 0xB0F6B, size: 0x8, addend: 0x0, symName: _alBufferfDirect, symObjAddr: 0x34F0, symBinAddr: 0xAE80, symSize: 0x20 }
  - { offset: 0xB0F7F, size: 0x8, addend: 0x0, symName: _alBufferfDirect, symObjAddr: 0x34F0, symBinAddr: 0xAE80, symSize: 0x20 }
  - { offset: 0xB0F9C, size: 0x8, addend: 0x0, symName: _alBufferfDirect, symObjAddr: 0x34F0, symBinAddr: 0xAE80, symSize: 0x20 }
  - { offset: 0xB0FD7, size: 0x8, addend: 0x0, symName: _alBuffer3f, symObjAddr: 0x3510, symBinAddr: 0xC5A20, symSize: 0x60 }
  - { offset: 0xB1133, size: 0x8, addend: 0x0, symName: _alBuffer3fDirect, symObjAddr: 0x36C0, symBinAddr: 0xAFF0, symSize: 0x20 }
  - { offset: 0xB11AD, size: 0x8, addend: 0x0, symName: _alBuffer3fDirect, symObjAddr: 0x36C0, symBinAddr: 0xAFF0, symSize: 0x20 }
  - { offset: 0xB11CB, size: 0x8, addend: 0x0, symName: _alBuffer3fDirect, symObjAddr: 0x36C0, symBinAddr: 0xAFF0, symSize: 0x20 }
  - { offset: 0xB11DF, size: 0x8, addend: 0x0, symName: _alBuffer3fDirect, symObjAddr: 0x36C0, symBinAddr: 0xAFF0, symSize: 0x20 }
  - { offset: 0xB11FC, size: 0x8, addend: 0x0, symName: _alBuffer3fDirect, symObjAddr: 0x36C0, symBinAddr: 0xAFF0, symSize: 0x20 }
  - { offset: 0xB1237, size: 0x8, addend: 0x0, symName: _alBufferfv, symObjAddr: 0x36E0, symBinAddr: 0xC5A80, symSize: 0x70 }
  - { offset: 0xB1379, size: 0x8, addend: 0x0, symName: _alBufferfvDirect, symObjAddr: 0x38D0, symBinAddr: 0xB190, symSize: 0x20 }
  - { offset: 0xB13D3, size: 0x8, addend: 0x0, symName: _alBufferfvDirect, symObjAddr: 0x38D0, symBinAddr: 0xB190, symSize: 0x20 }
  - { offset: 0xB13F1, size: 0x8, addend: 0x0, symName: _alBufferfvDirect, symObjAddr: 0x38D0, symBinAddr: 0xB190, symSize: 0x20 }
  - { offset: 0xB1405, size: 0x8, addend: 0x0, symName: _alBufferfvDirect, symObjAddr: 0x38D0, symBinAddr: 0xB190, symSize: 0x20 }
  - { offset: 0xB1422, size: 0x8, addend: 0x0, symName: _alBufferfvDirect, symObjAddr: 0x38D0, symBinAddr: 0xB190, symSize: 0x20 }
  - { offset: 0xB145D, size: 0x8, addend: 0x0, symName: _alBufferi, symObjAddr: 0x38F0, symBinAddr: 0xC5AF0, symSize: 0x70 }
  - { offset: 0xB16B3, size: 0x8, addend: 0x0, symName: _alBufferiDirect, symObjAddr: 0x3DB0, symBinAddr: 0xB600, symSize: 0x20 }
  - { offset: 0xB170D, size: 0x8, addend: 0x0, symName: _alBufferiDirect, symObjAddr: 0x3DB0, symBinAddr: 0xB600, symSize: 0x20 }
  - { offset: 0xB172B, size: 0x8, addend: 0x0, symName: _alBufferiDirect, symObjAddr: 0x3DB0, symBinAddr: 0xB600, symSize: 0x20 }
  - { offset: 0xB173F, size: 0x8, addend: 0x0, symName: _alBufferiDirect, symObjAddr: 0x3DB0, symBinAddr: 0xB600, symSize: 0x20 }
  - { offset: 0xB175C, size: 0x8, addend: 0x0, symName: _alBufferiDirect, symObjAddr: 0x3DB0, symBinAddr: 0xB600, symSize: 0x20 }
  - { offset: 0xB1797, size: 0x8, addend: 0x0, symName: _alBuffer3i, symObjAddr: 0x3DD0, symBinAddr: 0xC5B60, symSize: 0x60 }
  - { offset: 0xB18F3, size: 0x8, addend: 0x0, symName: _alBuffer3iDirect, symObjAddr: 0x3F80, symBinAddr: 0xB770, symSize: 0x20 }
  - { offset: 0xB196D, size: 0x8, addend: 0x0, symName: _alBuffer3iDirect, symObjAddr: 0x3F80, symBinAddr: 0xB770, symSize: 0x20 }
  - { offset: 0xB198B, size: 0x8, addend: 0x0, symName: _alBuffer3iDirect, symObjAddr: 0x3F80, symBinAddr: 0xB770, symSize: 0x20 }
  - { offset: 0xB199F, size: 0x8, addend: 0x0, symName: _alBuffer3iDirect, symObjAddr: 0x3F80, symBinAddr: 0xB770, symSize: 0x20 }
  - { offset: 0xB19BC, size: 0x8, addend: 0x0, symName: _alBuffer3iDirect, symObjAddr: 0x3F80, symBinAddr: 0xB770, symSize: 0x20 }
  - { offset: 0xB19F7, size: 0x8, addend: 0x0, symName: _alBufferiv, symObjAddr: 0x3FA0, symBinAddr: 0xC5BC0, symSize: 0x70 }
  - { offset: 0xB1B80, size: 0x8, addend: 0x0, symName: _alBufferivDirect, symObjAddr: 0x4250, symBinAddr: 0xB9D0, symSize: 0x20 }
  - { offset: 0xB1BDA, size: 0x8, addend: 0x0, symName: _alBufferivDirect, symObjAddr: 0x4250, symBinAddr: 0xB9D0, symSize: 0x20 }
  - { offset: 0xB1BF8, size: 0x8, addend: 0x0, symName: _alBufferivDirect, symObjAddr: 0x4250, symBinAddr: 0xB9D0, symSize: 0x20 }
  - { offset: 0xB1C0C, size: 0x8, addend: 0x0, symName: _alBufferivDirect, symObjAddr: 0x4250, symBinAddr: 0xB9D0, symSize: 0x20 }
  - { offset: 0xB1C29, size: 0x8, addend: 0x0, symName: _alBufferivDirect, symObjAddr: 0x4250, symBinAddr: 0xB9D0, symSize: 0x20 }
  - { offset: 0xB1C64, size: 0x8, addend: 0x0, symName: _alGetBufferf, symObjAddr: 0x4270, symBinAddr: 0xC5C30, symSize: 0x70 }
  - { offset: 0xB1DA6, size: 0x8, addend: 0x0, symName: _alGetBufferfDirect, symObjAddr: 0x4480, symBinAddr: 0xBB90, symSize: 0x20 }
  - { offset: 0xB1E00, size: 0x8, addend: 0x0, symName: _alGetBufferfDirect, symObjAddr: 0x4480, symBinAddr: 0xBB90, symSize: 0x20 }
  - { offset: 0xB1E1E, size: 0x8, addend: 0x0, symName: _alGetBufferfDirect, symObjAddr: 0x4480, symBinAddr: 0xBB90, symSize: 0x20 }
  - { offset: 0xB1E32, size: 0x8, addend: 0x0, symName: _alGetBufferfDirect, symObjAddr: 0x4480, symBinAddr: 0xBB90, symSize: 0x20 }
  - { offset: 0xB1E4F, size: 0x8, addend: 0x0, symName: _alGetBufferfDirect, symObjAddr: 0x4480, symBinAddr: 0xBB90, symSize: 0x20 }
  - { offset: 0xB1E8A, size: 0x8, addend: 0x0, symName: _alGetBuffer3f, symObjAddr: 0x44A0, symBinAddr: 0xC5CA0, symSize: 0x80 }
  - { offset: 0xB1FFA, size: 0x8, addend: 0x0, symName: _alGetBuffer3fDirect, symObjAddr: 0x46C0, symBinAddr: 0xBD50, symSize: 0x20 }
  - { offset: 0xB2074, size: 0x8, addend: 0x0, symName: _alGetBuffer3fDirect, symObjAddr: 0x46C0, symBinAddr: 0xBD50, symSize: 0x20 }
  - { offset: 0xB2092, size: 0x8, addend: 0x0, symName: _alGetBuffer3fDirect, symObjAddr: 0x46C0, symBinAddr: 0xBD50, symSize: 0x20 }
  - { offset: 0xB20A6, size: 0x8, addend: 0x0, symName: _alGetBuffer3fDirect, symObjAddr: 0x46C0, symBinAddr: 0xBD50, symSize: 0x20 }
  - { offset: 0xB20C3, size: 0x8, addend: 0x0, symName: _alGetBuffer3fDirect, symObjAddr: 0x46C0, symBinAddr: 0xBD50, symSize: 0x20 }
  - { offset: 0xB20FE, size: 0x8, addend: 0x0, symName: _alGetBufferfv, symObjAddr: 0x46E0, symBinAddr: 0xC5D20, symSize: 0x70 }
  - { offset: 0xB2240, size: 0x8, addend: 0x0, symName: _alGetBufferfvDirect, symObjAddr: 0x4870, symBinAddr: 0xBE90, symSize: 0x20 }
  - { offset: 0xB229A, size: 0x8, addend: 0x0, symName: _alGetBufferfvDirect, symObjAddr: 0x4870, symBinAddr: 0xBE90, symSize: 0x20 }
  - { offset: 0xB22B8, size: 0x8, addend: 0x0, symName: _alGetBufferfvDirect, symObjAddr: 0x4870, symBinAddr: 0xBE90, symSize: 0x20 }
  - { offset: 0xB22CC, size: 0x8, addend: 0x0, symName: _alGetBufferfvDirect, symObjAddr: 0x4870, symBinAddr: 0xBE90, symSize: 0x20 }
  - { offset: 0xB22E9, size: 0x8, addend: 0x0, symName: _alGetBufferfvDirect, symObjAddr: 0x4870, symBinAddr: 0xBE90, symSize: 0x20 }
  - { offset: 0xB2324, size: 0x8, addend: 0x0, symName: _alGetBufferi, symObjAddr: 0x4890, symBinAddr: 0xC5D90, symSize: 0x70 }
  - { offset: 0xB2638, size: 0x8, addend: 0x0, symName: __ZNK13BufferStorage16blockSizeFromFmtEv, symObjAddr: 0x8970, symBinAddr: 0xF6A0, symSize: 0x70 }
  - { offset: 0xB271C, size: 0x8, addend: 0x0, symName: _alGetBufferiDirect, symObjAddr: 0x4CD0, symBinAddr: 0xC280, symSize: 0x20 }
  - { offset: 0xB2776, size: 0x8, addend: 0x0, symName: _alGetBufferiDirect, symObjAddr: 0x4CD0, symBinAddr: 0xC280, symSize: 0x20 }
  - { offset: 0xB2794, size: 0x8, addend: 0x0, symName: _alGetBufferiDirect, symObjAddr: 0x4CD0, symBinAddr: 0xC280, symSize: 0x20 }
  - { offset: 0xB27A8, size: 0x8, addend: 0x0, symName: _alGetBufferiDirect, symObjAddr: 0x4CD0, symBinAddr: 0xC280, symSize: 0x20 }
  - { offset: 0xB27C5, size: 0x8, addend: 0x0, symName: _alGetBufferiDirect, symObjAddr: 0x4CD0, symBinAddr: 0xC280, symSize: 0x20 }
  - { offset: 0xB2800, size: 0x8, addend: 0x0, symName: _alGetBuffer3i, symObjAddr: 0x4CF0, symBinAddr: 0xC5E00, symSize: 0x80 }
  - { offset: 0xB2970, size: 0x8, addend: 0x0, symName: _alGetBuffer3iDirect, symObjAddr: 0x4F10, symBinAddr: 0xC440, symSize: 0x20 }
  - { offset: 0xB29EA, size: 0x8, addend: 0x0, symName: _alGetBuffer3iDirect, symObjAddr: 0x4F10, symBinAddr: 0xC440, symSize: 0x20 }
  - { offset: 0xB2A08, size: 0x8, addend: 0x0, symName: _alGetBuffer3iDirect, symObjAddr: 0x4F10, symBinAddr: 0xC440, symSize: 0x20 }
  - { offset: 0xB2A1C, size: 0x8, addend: 0x0, symName: _alGetBuffer3iDirect, symObjAddr: 0x4F10, symBinAddr: 0xC440, symSize: 0x20 }
  - { offset: 0xB2A39, size: 0x8, addend: 0x0, symName: _alGetBuffer3iDirect, symObjAddr: 0x4F10, symBinAddr: 0xC440, symSize: 0x20 }
  - { offset: 0xB2A74, size: 0x8, addend: 0x0, symName: _alGetBufferiv, symObjAddr: 0x4F30, symBinAddr: 0xC5E80, symSize: 0x70 }
  - { offset: 0xB2BB6, size: 0x8, addend: 0x0, symName: _alGetBufferivDirect, symObjAddr: 0x5170, symBinAddr: 0xC630, symSize: 0x20 }
  - { offset: 0xB2C10, size: 0x8, addend: 0x0, symName: _alGetBufferivDirect, symObjAddr: 0x5170, symBinAddr: 0xC630, symSize: 0x20 }
  - { offset: 0xB2C2E, size: 0x8, addend: 0x0, symName: _alGetBufferivDirect, symObjAddr: 0x5170, symBinAddr: 0xC630, symSize: 0x20 }
  - { offset: 0xB2C42, size: 0x8, addend: 0x0, symName: _alGetBufferivDirect, symObjAddr: 0x5170, symBinAddr: 0xC630, symSize: 0x20 }
  - { offset: 0xB2C5F, size: 0x8, addend: 0x0, symName: _alGetBufferivDirect, symObjAddr: 0x5170, symBinAddr: 0xC630, symSize: 0x20 }
  - { offset: 0xB2C9A, size: 0x8, addend: 0x0, symName: _alGetBufferPtrSOFT, symObjAddr: 0x5190, symBinAddr: 0xC5EF0, symSize: 0x70 }
  - { offset: 0xB2DDC, size: 0x8, addend: 0x0, symName: _alGetBufferPtrDirectSOFT, symObjAddr: 0x5390, symBinAddr: 0xC7E0, symSize: 0x20 }
  - { offset: 0xB2E36, size: 0x8, addend: 0x0, symName: _alGetBufferPtrDirectSOFT, symObjAddr: 0x5390, symBinAddr: 0xC7E0, symSize: 0x20 }
  - { offset: 0xB2E54, size: 0x8, addend: 0x0, symName: _alGetBufferPtrDirectSOFT, symObjAddr: 0x5390, symBinAddr: 0xC7E0, symSize: 0x20 }
  - { offset: 0xB2E68, size: 0x8, addend: 0x0, symName: _alGetBufferPtrDirectSOFT, symObjAddr: 0x5390, symBinAddr: 0xC7E0, symSize: 0x20 }
  - { offset: 0xB2E85, size: 0x8, addend: 0x0, symName: _alGetBufferPtrDirectSOFT, symObjAddr: 0x5390, symBinAddr: 0xC7E0, symSize: 0x20 }
  - { offset: 0xB2EC0, size: 0x8, addend: 0x0, symName: _alGetBuffer3PtrSOFT, symObjAddr: 0x53B0, symBinAddr: 0xC5F60, symSize: 0x80 }
  - { offset: 0xB3030, size: 0x8, addend: 0x0, symName: _alGetBuffer3PtrDirectSOFT, symObjAddr: 0x55D0, symBinAddr: 0xC9A0, symSize: 0x20 }
  - { offset: 0xB30AA, size: 0x8, addend: 0x0, symName: _alGetBuffer3PtrDirectSOFT, symObjAddr: 0x55D0, symBinAddr: 0xC9A0, symSize: 0x20 }
  - { offset: 0xB30C8, size: 0x8, addend: 0x0, symName: _alGetBuffer3PtrDirectSOFT, symObjAddr: 0x55D0, symBinAddr: 0xC9A0, symSize: 0x20 }
  - { offset: 0xB30DC, size: 0x8, addend: 0x0, symName: _alGetBuffer3PtrDirectSOFT, symObjAddr: 0x55D0, symBinAddr: 0xC9A0, symSize: 0x20 }
  - { offset: 0xB30F9, size: 0x8, addend: 0x0, symName: _alGetBuffer3PtrDirectSOFT, symObjAddr: 0x55D0, symBinAddr: 0xC9A0, symSize: 0x20 }
  - { offset: 0xB3134, size: 0x8, addend: 0x0, symName: _alGetBufferPtrvSOFT, symObjAddr: 0x55F0, symBinAddr: 0xC5FE0, symSize: 0x70 }
  - { offset: 0xB3276, size: 0x8, addend: 0x0, symName: _alGetBufferPtrvDirectSOFT, symObjAddr: 0x5780, symBinAddr: 0xCAE0, symSize: 0x20 }
  - { offset: 0xB32D0, size: 0x8, addend: 0x0, symName: _alGetBufferPtrvDirectSOFT, symObjAddr: 0x5780, symBinAddr: 0xCAE0, symSize: 0x20 }
  - { offset: 0xB32EE, size: 0x8, addend: 0x0, symName: _alGetBufferPtrvDirectSOFT, symObjAddr: 0x5780, symBinAddr: 0xCAE0, symSize: 0x20 }
  - { offset: 0xB3302, size: 0x8, addend: 0x0, symName: _alGetBufferPtrvDirectSOFT, symObjAddr: 0x5780, symBinAddr: 0xCAE0, symSize: 0x20 }
  - { offset: 0xB331F, size: 0x8, addend: 0x0, symName: _alGetBufferPtrvDirectSOFT, symObjAddr: 0x5780, symBinAddr: 0xCAE0, symSize: 0x20 }
  - { offset: 0xB338B, size: 0x8, addend: 0x0, symName: _alBufferSamplesSOFT, symObjAddr: 0x57A0, symBinAddr: 0xCB00, symSize: 0x60 }
  - { offset: 0xB34F7, size: 0x8, addend: 0x0, symName: _alBufferSubSamplesSOFT, symObjAddr: 0x5800, symBinAddr: 0xCB60, symSize: 0x60 }
  - { offset: 0xB3657, size: 0x8, addend: 0x0, symName: _alGetBufferSamplesSOFT, symObjAddr: 0x5860, symBinAddr: 0xCBC0, symSize: 0x60 }
  - { offset: 0xB37B7, size: 0x8, addend: 0x0, symName: _alIsBufferFormatSupportedSOFT, symObjAddr: 0x58C0, symBinAddr: 0xCC20, symSize: 0x70 }
  - { offset: 0xB39D3, size: 0x8, addend: 0x0, symName: __ZN2al6Buffer7SetNameEN3gsl8not_nullIPNS_7ContextEEEjNSt3__117basic_string_viewIcNS6_11char_traitsIcEEEE, symObjAddr: 0x5930, symBinAddr: 0xCC90, symSize: 0x100 }
  - { offset: 0xB44AF, size: 0x8, addend: 0x0, symName: __ZN12_GLOBAL__N_112LookupBufferEN3gsl8not_nullIPN2al7ContextEEEj.cold.1, symObjAddr: 0x9460, symBinAddr: 0xC60B0, symSize: 0x1B }
  - { offset: 0xB44C7, size: 0x8, addend: 0x0, symName: __ZN13BufferSubListD2Ev, symObjAddr: 0x5A90, symBinAddr: 0xCDF0, symSize: 0xB0 }
  - { offset: 0xB4994, size: 0x8, addend: 0x0, symName: __ZNSt3__16vectorI13BufferSubListNS_9allocatorIS1_EEE20__throw_length_errorB8fe200100Ev, symObjAddr: 0x5E10, symBinAddr: 0xD0C0, symSize: 0x10 }
  - { offset: 0xB49B7, size: 0x8, addend: 0x0, symName: __ZNSt3__114__split_bufferI13BufferSubListRNS_9allocatorIS1_EEED1Ev, symObjAddr: 0x5DE0, symBinAddr: 0xD090, symSize: 0x30 }
  - { offset: 0xB4A66, size: 0x8, addend: 0x0, symName: __ZNSt3__114__split_bufferI13BufferSubListRNS_9allocatorIS1_EEE5clearB8fe200100Ev, symObjAddr: 0x6020, symBinAddr: 0xD210, symSize: 0x110 }
  - { offset: 0xB57EA, size: 0x8, addend: 0x0, symName: __ZNSt18bad_variant_accessD1Ev, symObjAddr: 0x6660, symBinAddr: 0xD3C0, symSize: 0x10 }
  - { offset: 0xB59A9, size: 0x8, addend: 0x0, symName: '__ZNSt3__116__variant_detail12__visitation6__base12__dispatcherIJLm0EEE10__dispatchB8fe200100IONS1_9__variant15__value_visitorIZN12_GLOBAL__N_18LoadDataEN3gsl8not_nullIPN2al7ContextEEENSA_IPNSB_6BufferEEEij11FmtChannels7FmtTypeNS_4spanIKSt4byteLm18446744073709551615EEEjE3$_0EEJRNS0_6__baseILNS0_6_TraitE1EJNS_6vectorIhNSB_9allocatorIhLm16EEEEENST_IsNSU_IsLm16EEEEENST_IiNSU_IiLm16EEEEENST_IfNSU_IfLm16EEEEENST_IdNSU_IdLm16EEEEENST_I11MulawSampleNSU_IS15_Lm16EEEEENST_I10AlawSampleNSU_IS18_Lm16EEEEENST_I8IMA4DataNSU_IS1B_Lm16EEEEENST_I11MSADPCMDataNSU_IS1E_Lm16EEEEEEEEEEEDcT_DpT0_', symObjAddr: 0x6670, symBinAddr: 0xD3D0, symSize: 0x90 }
  - { offset: 0xB5BE6, size: 0x8, addend: 0x0, symName: __ZNSt3__16vectorIhN2al9allocatorIhLm16EEEE8__appendEmRKh, symObjAddr: 0x6BC0, symBinAddr: 0xD920, symSize: 0x130 }
  - { offset: 0xB617C, size: 0x8, addend: 0x0, symName: '__ZNSt3__116__variant_detail12__visitation6__base12__dispatcherIJLm1EEE10__dispatchB8fe200100IONS1_9__variant15__value_visitorIZN12_GLOBAL__N_18LoadDataEN3gsl8not_nullIPN2al7ContextEEENSA_IPNSB_6BufferEEEij11FmtChannels7FmtTypeNS_4spanIKSt4byteLm18446744073709551615EEEjE3$_0EEJRNS0_6__baseILNS0_6_TraitE1EJNS_6vectorIhNSB_9allocatorIhLm16EEEEENST_IsNSU_IsLm16EEEEENST_IiNSU_IiLm16EEEEENST_IfNSU_IfLm16EEEEENST_IdNSU_IdLm16EEEEENST_I11MulawSampleNSU_IS15_Lm16EEEEENST_I10AlawSampleNSU_IS18_Lm16EEEEENST_I8IMA4DataNSU_IS1B_Lm16EEEEENST_I11MSADPCMDataNSU_IS1E_Lm16EEEEEEEEEEEDcT_DpT0_', symObjAddr: 0x6700, symBinAddr: 0xD460, symSize: 0xA0 }
  - { offset: 0xB63B9, size: 0x8, addend: 0x0, symName: __ZNSt3__16vectorIsN2al9allocatorIsLm16EEEE8__appendEmRKs, symObjAddr: 0x6D00, symBinAddr: 0xDA60, symSize: 0x2B0 }
  - { offset: 0xB68FF, size: 0x8, addend: 0x0, symName: '__ZNSt3__116__variant_detail12__visitation6__base12__dispatcherIJLm2EEE10__dispatchB8fe200100IONS1_9__variant15__value_visitorIZN12_GLOBAL__N_18LoadDataEN3gsl8not_nullIPN2al7ContextEEENSA_IPNSB_6BufferEEEij11FmtChannels7FmtTypeNS_4spanIKSt4byteLm18446744073709551615EEEjE3$_0EEJRNS0_6__baseILNS0_6_TraitE1EJNS_6vectorIhNSB_9allocatorIhLm16EEEEENST_IsNSU_IsLm16EEEEENST_IiNSU_IiLm16EEEEENST_IfNSU_IfLm16EEEEENST_IdNSU_IdLm16EEEEENST_I11MulawSampleNSU_IS15_Lm16EEEEENST_I10AlawSampleNSU_IS18_Lm16EEEEENST_I8IMA4DataNSU_IS1B_Lm16EEEEENST_I11MSADPCMDataNSU_IS1E_Lm16EEEEEEEEEEEDcT_DpT0_', symObjAddr: 0x67A0, symBinAddr: 0xD500, symSize: 0xA0 }
  - { offset: 0xB6B3C, size: 0x8, addend: 0x0, symName: __ZNSt3__16vectorIiN2al9allocatorIiLm16EEEE8__appendEmRKi, symObjAddr: 0x6FC0, symBinAddr: 0xDD20, symSize: 0x240 }
  - { offset: 0xB708B, size: 0x8, addend: 0x0, symName: '__ZNSt3__116__variant_detail12__visitation6__base12__dispatcherIJLm3EEE10__dispatchB8fe200100IONS1_9__variant15__value_visitorIZN12_GLOBAL__N_18LoadDataEN3gsl8not_nullIPN2al7ContextEEENSA_IPNSB_6BufferEEEij11FmtChannels7FmtTypeNS_4spanIKSt4byteLm18446744073709551615EEEjE3$_0EEJRNS0_6__baseILNS0_6_TraitE1EJNS_6vectorIhNSB_9allocatorIhLm16EEEEENST_IsNSU_IsLm16EEEEENST_IiNSU_IiLm16EEEEENST_IfNSU_IfLm16EEEEENST_IdNSU_IdLm16EEEEENST_I11MulawSampleNSU_IS15_Lm16EEEEENST_I10AlawSampleNSU_IS18_Lm16EEEEENST_I8IMA4DataNSU_IS1B_Lm16EEEEENST_I11MSADPCMDataNSU_IS1E_Lm16EEEEEEEEEEEDcT_DpT0_', symObjAddr: 0x6840, symBinAddr: 0xD5A0, symSize: 0xA0 }
  - { offset: 0xB72C8, size: 0x8, addend: 0x0, symName: __ZNSt3__16vectorIfN2al9allocatorIfLm16EEEE8__appendEmRKf, symObjAddr: 0x7210, symBinAddr: 0xDF70, symSize: 0x240 }
  - { offset: 0xB7817, size: 0x8, addend: 0x0, symName: '__ZNSt3__116__variant_detail12__visitation6__base12__dispatcherIJLm4EEE10__dispatchB8fe200100IONS1_9__variant15__value_visitorIZN12_GLOBAL__N_18LoadDataEN3gsl8not_nullIPN2al7ContextEEENSA_IPNSB_6BufferEEEij11FmtChannels7FmtTypeNS_4spanIKSt4byteLm18446744073709551615EEEjE3$_0EEJRNS0_6__baseILNS0_6_TraitE1EJNS_6vectorIhNSB_9allocatorIhLm16EEEEENST_IsNSU_IsLm16EEEEENST_IiNSU_IiLm16EEEEENST_IfNSU_IfLm16EEEEENST_IdNSU_IdLm16EEEEENST_I11MulawSampleNSU_IS15_Lm16EEEEENST_I10AlawSampleNSU_IS18_Lm16EEEEENST_I8IMA4DataNSU_IS1B_Lm16EEEEENST_I11MSADPCMDataNSU_IS1E_Lm16EEEEEEEEEEEDcT_DpT0_', symObjAddr: 0x68E0, symBinAddr: 0xD640, symSize: 0xA0 }
  - { offset: 0xB7A54, size: 0x8, addend: 0x0, symName: __ZNSt3__16vectorIdN2al9allocatorIdLm16EEEE8__appendEmRKd, symObjAddr: 0x7460, symBinAddr: 0xE1C0, symSize: 0x230 }
  - { offset: 0xB7FA2, size: 0x8, addend: 0x0, symName: '__ZNSt3__116__variant_detail12__visitation6__base12__dispatcherIJLm5EEE10__dispatchB8fe200100IONS1_9__variant15__value_visitorIZN12_GLOBAL__N_18LoadDataEN3gsl8not_nullIPN2al7ContextEEENSA_IPNSB_6BufferEEEij11FmtChannels7FmtTypeNS_4spanIKSt4byteLm18446744073709551615EEEjE3$_0EEJRNS0_6__baseILNS0_6_TraitE1EJNS_6vectorIhNSB_9allocatorIhLm16EEEEENST_IsNSU_IsLm16EEEEENST_IiNSU_IiLm16EEEEENST_IfNSU_IfLm16EEEEENST_IdNSU_IdLm16EEEEENST_I11MulawSampleNSU_IS15_Lm16EEEEENST_I10AlawSampleNSU_IS18_Lm16EEEEENST_I8IMA4DataNSU_IS1B_Lm16EEEEENST_I11MSADPCMDataNSU_IS1E_Lm16EEEEEEEEEEEDcT_DpT0_', symObjAddr: 0x6980, symBinAddr: 0xD6E0, symSize: 0x90 }
  - { offset: 0xB81DF, size: 0x8, addend: 0x0, symName: __ZNSt3__16vectorI11MulawSampleN2al9allocatorIS1_Lm16EEEE8__appendEmRKS1_, symObjAddr: 0x76A0, symBinAddr: 0xE400, symSize: 0x130 }
  - { offset: 0xB8775, size: 0x8, addend: 0x0, symName: '__ZNSt3__116__variant_detail12__visitation6__base12__dispatcherIJLm6EEE10__dispatchB8fe200100IONS1_9__variant15__value_visitorIZN12_GLOBAL__N_18LoadDataEN3gsl8not_nullIPN2al7ContextEEENSA_IPNSB_6BufferEEEij11FmtChannels7FmtTypeNS_4spanIKSt4byteLm18446744073709551615EEEjE3$_0EEJRNS0_6__baseILNS0_6_TraitE1EJNS_6vectorIhNSB_9allocatorIhLm16EEEEENST_IsNSU_IsLm16EEEEENST_IiNSU_IiLm16EEEEENST_IfNSU_IfLm16EEEEENST_IdNSU_IdLm16EEEEENST_I11MulawSampleNSU_IS15_Lm16EEEEENST_I10AlawSampleNSU_IS18_Lm16EEEEENST_I8IMA4DataNSU_IS1B_Lm16EEEEENST_I11MSADPCMDataNSU_IS1E_Lm16EEEEEEEEEEEDcT_DpT0_', symObjAddr: 0x6A10, symBinAddr: 0xD770, symSize: 0x90 }
  - { offset: 0xB89B2, size: 0x8, addend: 0x0, symName: __ZNSt3__16vectorI10AlawSampleN2al9allocatorIS1_Lm16EEEE8__appendEmRKS1_, symObjAddr: 0x77E0, symBinAddr: 0xE540, symSize: 0x130 }
  - { offset: 0xB8F48, size: 0x8, addend: 0x0, symName: '__ZNSt3__116__variant_detail12__visitation6__base12__dispatcherIJLm7EEE10__dispatchB8fe200100IONS1_9__variant15__value_visitorIZN12_GLOBAL__N_18LoadDataEN3gsl8not_nullIPN2al7ContextEEENSA_IPNSB_6BufferEEEij11FmtChannels7FmtTypeNS_4spanIKSt4byteLm18446744073709551615EEEjE3$_0EEJRNS0_6__baseILNS0_6_TraitE1EJNS_6vectorIhNSB_9allocatorIhLm16EEEEENST_IsNSU_IsLm16EEEEENST_IiNSU_IiLm16EEEEENST_IfNSU_IfLm16EEEEENST_IdNSU_IdLm16EEEEENST_I11MulawSampleNSU_IS15_Lm16EEEEENST_I10AlawSampleNSU_IS18_Lm16EEEEENST_I8IMA4DataNSU_IS1B_Lm16EEEEENST_I11MSADPCMDataNSU_IS1E_Lm16EEEEEEEEEEEDcT_DpT0_', symObjAddr: 0x6AA0, symBinAddr: 0xD800, symSize: 0x90 }
  - { offset: 0xB9185, size: 0x8, addend: 0x0, symName: __ZNSt3__16vectorI8IMA4DataN2al9allocatorIS1_Lm16EEEE8__appendEmRKS1_, symObjAddr: 0x7920, symBinAddr: 0xE680, symSize: 0x130 }
  - { offset: 0xB971B, size: 0x8, addend: 0x0, symName: '__ZNSt3__116__variant_detail12__visitation6__base12__dispatcherIJLm8EEE10__dispatchB8fe200100IONS1_9__variant15__value_visitorIZN12_GLOBAL__N_18LoadDataEN3gsl8not_nullIPN2al7ContextEEENSA_IPNSB_6BufferEEEij11FmtChannels7FmtTypeNS_4spanIKSt4byteLm18446744073709551615EEEjE3$_0EEJRNS0_6__baseILNS0_6_TraitE1EJNS_6vectorIhNSB_9allocatorIhLm16EEEEENST_IsNSU_IsLm16EEEEENST_IiNSU_IiLm16EEEEENST_IfNSU_IfLm16EEEEENST_IdNSU_IdLm16EEEEENST_I11MulawSampleNSU_IS15_Lm16EEEEENST_I10AlawSampleNSU_IS18_Lm16EEEEENST_I8IMA4DataNSU_IS1B_Lm16EEEEENST_I11MSADPCMDataNSU_IS1E_Lm16EEEEEEEEEEEDcT_DpT0_', symObjAddr: 0x6B30, symBinAddr: 0xD890, symSize: 0x90 }
  - { offset: 0xB9958, size: 0x8, addend: 0x0, symName: __ZNSt3__16vectorI11MSADPCMDataN2al9allocatorIS1_Lm16EEEE8__appendEmRKS1_, symObjAddr: 0x7A60, symBinAddr: 0xE7C0, symSize: 0x130 }
  - { offset: 0xBA18F, size: 0x8, addend: 0x0, symName: __ZNSt3__16vectorIhN2al9allocatorIhLm16EEEE20__throw_length_errorB8fe200100Ev, symObjAddr: 0x6CF0, symBinAddr: 0xDA50, symSize: 0x10 }
  - { offset: 0xBA1A7, size: 0x8, addend: 0x0, symName: __ZNSt3__16vectorIsN2al9allocatorIsLm16EEEE8__appendEmRKs, symObjAddr: 0x6D00, symBinAddr: 0xDA60, symSize: 0x2B0 }
  - { offset: 0xBA505, size: 0x8, addend: 0x0, symName: __ZNSt3__16vectorIsN2al9allocatorIsLm16EEEE20__throw_length_errorB8fe200100Ev, symObjAddr: 0x6FB0, symBinAddr: 0xDD10, symSize: 0x10 }
  - { offset: 0xBA51D, size: 0x8, addend: 0x0, symName: __ZNSt3__16vectorIiN2al9allocatorIiLm16EEEE8__appendEmRKi, symObjAddr: 0x6FC0, symBinAddr: 0xDD20, symSize: 0x240 }
  - { offset: 0xBA875, size: 0x8, addend: 0x0, symName: __ZNSt3__16vectorIiN2al9allocatorIiLm16EEEE20__throw_length_errorB8fe200100Ev, symObjAddr: 0x7200, symBinAddr: 0xDF60, symSize: 0x10 }
  - { offset: 0xBA88D, size: 0x8, addend: 0x0, symName: __ZNSt3__16vectorIfN2al9allocatorIfLm16EEEE8__appendEmRKf, symObjAddr: 0x7210, symBinAddr: 0xDF70, symSize: 0x240 }
  - { offset: 0xBABE5, size: 0x8, addend: 0x0, symName: __ZNSt3__16vectorIfN2al9allocatorIfLm16EEEE20__throw_length_errorB8fe200100Ev, symObjAddr: 0x7450, symBinAddr: 0xE1B0, symSize: 0x10 }
  - { offset: 0xBABFD, size: 0x8, addend: 0x0, symName: __ZNSt3__16vectorIdN2al9allocatorIdLm16EEEE8__appendEmRKd, symObjAddr: 0x7460, symBinAddr: 0xE1C0, symSize: 0x230 }
  - { offset: 0xBAF5B, size: 0x8, addend: 0x0, symName: __ZNSt3__16vectorIdN2al9allocatorIdLm16EEEE20__throw_length_errorB8fe200100Ev, symObjAddr: 0x7690, symBinAddr: 0xE3F0, symSize: 0x10 }
  - { offset: 0xBAF73, size: 0x8, addend: 0x0, symName: __ZNSt3__16vectorI11MulawSampleN2al9allocatorIS1_Lm16EEEE8__appendEmRKS1_, symObjAddr: 0x76A0, symBinAddr: 0xE400, symSize: 0x130 }
  - { offset: 0xBB339, size: 0x8, addend: 0x0, symName: __ZNSt3__16vectorI11MulawSampleN2al9allocatorIS1_Lm16EEEE20__throw_length_errorB8fe200100Ev, symObjAddr: 0x77D0, symBinAddr: 0xE530, symSize: 0x10 }
  - { offset: 0xBB351, size: 0x8, addend: 0x0, symName: __ZNSt3__16vectorI10AlawSampleN2al9allocatorIS1_Lm16EEEE8__appendEmRKS1_, symObjAddr: 0x77E0, symBinAddr: 0xE540, symSize: 0x130 }
  - { offset: 0xBB717, size: 0x8, addend: 0x0, symName: __ZNSt3__16vectorI10AlawSampleN2al9allocatorIS1_Lm16EEEE20__throw_length_errorB8fe200100Ev, symObjAddr: 0x7910, symBinAddr: 0xE670, symSize: 0x10 }
  - { offset: 0xBB72F, size: 0x8, addend: 0x0, symName: __ZNSt3__16vectorI8IMA4DataN2al9allocatorIS1_Lm16EEEE8__appendEmRKS1_, symObjAddr: 0x7920, symBinAddr: 0xE680, symSize: 0x130 }
  - { offset: 0xBBAF5, size: 0x8, addend: 0x0, symName: __ZNSt3__16vectorI8IMA4DataN2al9allocatorIS1_Lm16EEEE20__throw_length_errorB8fe200100Ev, symObjAddr: 0x7A50, symBinAddr: 0xE7B0, symSize: 0x10 }
  - { offset: 0xBBB0D, size: 0x8, addend: 0x0, symName: __ZNSt3__16vectorI11MSADPCMDataN2al9allocatorIS1_Lm16EEEE8__appendEmRKS1_, symObjAddr: 0x7A60, symBinAddr: 0xE7C0, symSize: 0x130 }
  - { offset: 0xBBED3, size: 0x8, addend: 0x0, symName: __ZNSt3__16vectorI11MSADPCMDataN2al9allocatorIS1_Lm16EEEE20__throw_length_errorB8fe200100Ev, symObjAddr: 0x7B90, symBinAddr: 0xE8F0, symSize: 0x10 }
  - { offset: 0xBBEEB, size: 0x8, addend: 0x0, symName: __ZNSt3__116__variant_detail12__assignmentINS0_8__traitsIJNS_6vectorIhN2al9allocatorIhLm16EEEEENS3_IsNS5_IsLm16EEEEENS3_IiNS5_IiLm16EEEEENS3_IfNS5_IfLm16EEEEENS3_IdNS5_IdLm16EEEEENS3_I11MulawSampleNS5_ISG_Lm16EEEEENS3_I10AlawSampleNS5_ISJ_Lm16EEEEENS3_I8IMA4DataNS5_ISM_Lm16EEEEENS3_I11MSADPCMDataNS5_ISP_Lm16EEEEEEEEE9__emplaceB8fe200100ILm0EJmRhEEERDaDpOT0_, symObjAddr: 0x7BA0, symBinAddr: 0xE900, symSize: 0xD0 }
  - { offset: 0xBC202, size: 0x8, addend: 0x0, symName: __ZNSt3__116__variant_detail12__visitation6__base12__dispatcherIJLm0EEE10__dispatchB8fe200100IOZNS0_6__dtorINS0_8__traitsIJNS_6vectorIhN2al9allocatorIhLm16EEEEENS8_IsNSA_IsLm16EEEEENS8_IiNSA_IiLm16EEEEENS8_IfNSA_IfLm16EEEEENS8_IdNSA_IdLm16EEEEENS8_I11MulawSampleNSA_ISL_Lm16EEEEENS8_I10AlawSampleNSA_ISO_Lm16EEEEENS8_I8IMA4DataNSA_ISR_Lm16EEEEENS8_I11MSADPCMDataNSA_ISU_Lm16EEEEEEEELNS0_6_TraitE1EE9__destroyB8fe200100EvEUlRT_E_JRNS0_6__baseILSY_1EJSC_SE_SG_SI_SK_SN_SQ_ST_SW_EEEEEEDcS10_DpT0_, symObjAddr: 0x7C70, symBinAddr: 0xE9D0, symSize: 0x20 }
  - { offset: 0xBC495, size: 0x8, addend: 0x0, symName: __ZNSt3__116__variant_detail12__visitation6__base12__dispatcherIJLm1EEE10__dispatchB8fe200100IOZNS0_6__dtorINS0_8__traitsIJNS_6vectorIhN2al9allocatorIhLm16EEEEENS8_IsNSA_IsLm16EEEEENS8_IiNSA_IiLm16EEEEENS8_IfNSA_IfLm16EEEEENS8_IdNSA_IdLm16EEEEENS8_I11MulawSampleNSA_ISL_Lm16EEEEENS8_I10AlawSampleNSA_ISO_Lm16EEEEENS8_I8IMA4DataNSA_ISR_Lm16EEEEENS8_I11MSADPCMDataNSA_ISU_Lm16EEEEEEEELNS0_6_TraitE1EE9__destroyB8fe200100EvEUlRT_E_JRNS0_6__baseILSY_1EJSC_SE_SG_SI_SK_SN_SQ_ST_SW_EEEEEEDcS10_DpT0_, symObjAddr: 0x7C90, symBinAddr: 0xE9F0, symSize: 0x20 }
  - { offset: 0xBC728, size: 0x8, addend: 0x0, symName: __ZNSt3__116__variant_detail12__visitation6__base12__dispatcherIJLm2EEE10__dispatchB8fe200100IOZNS0_6__dtorINS0_8__traitsIJNS_6vectorIhN2al9allocatorIhLm16EEEEENS8_IsNSA_IsLm16EEEEENS8_IiNSA_IiLm16EEEEENS8_IfNSA_IfLm16EEEEENS8_IdNSA_IdLm16EEEEENS8_I11MulawSampleNSA_ISL_Lm16EEEEENS8_I10AlawSampleNSA_ISO_Lm16EEEEENS8_I8IMA4DataNSA_ISR_Lm16EEEEENS8_I11MSADPCMDataNSA_ISU_Lm16EEEEEEEELNS0_6_TraitE1EE9__destroyB8fe200100EvEUlRT_E_JRNS0_6__baseILSY_1EJSC_SE_SG_SI_SK_SN_SQ_ST_SW_EEEEEEDcS10_DpT0_, symObjAddr: 0x7CB0, symBinAddr: 0xEA10, symSize: 0x20 }
  - { offset: 0xBC9BB, size: 0x8, addend: 0x0, symName: __ZNSt3__116__variant_detail12__visitation6__base12__dispatcherIJLm3EEE10__dispatchB8fe200100IOZNS0_6__dtorINS0_8__traitsIJNS_6vectorIhN2al9allocatorIhLm16EEEEENS8_IsNSA_IsLm16EEEEENS8_IiNSA_IiLm16EEEEENS8_IfNSA_IfLm16EEEEENS8_IdNSA_IdLm16EEEEENS8_I11MulawSampleNSA_ISL_Lm16EEEEENS8_I10AlawSampleNSA_ISO_Lm16EEEEENS8_I8IMA4DataNSA_ISR_Lm16EEEEENS8_I11MSADPCMDataNSA_ISU_Lm16EEEEEEEELNS0_6_TraitE1EE9__destroyB8fe200100EvEUlRT_E_JRNS0_6__baseILSY_1EJSC_SE_SG_SI_SK_SN_SQ_ST_SW_EEEEEEDcS10_DpT0_, symObjAddr: 0x7CD0, symBinAddr: 0xEA30, symSize: 0x20 }
  - { offset: 0xBCC4E, size: 0x8, addend: 0x0, symName: __ZNSt3__116__variant_detail12__visitation6__base12__dispatcherIJLm4EEE10__dispatchB8fe200100IOZNS0_6__dtorINS0_8__traitsIJNS_6vectorIhN2al9allocatorIhLm16EEEEENS8_IsNSA_IsLm16EEEEENS8_IiNSA_IiLm16EEEEENS8_IfNSA_IfLm16EEEEENS8_IdNSA_IdLm16EEEEENS8_I11MulawSampleNSA_ISL_Lm16EEEEENS8_I10AlawSampleNSA_ISO_Lm16EEEEENS8_I8IMA4DataNSA_ISR_Lm16EEEEENS8_I11MSADPCMDataNSA_ISU_Lm16EEEEEEEELNS0_6_TraitE1EE9__destroyB8fe200100EvEUlRT_E_JRNS0_6__baseILSY_1EJSC_SE_SG_SI_SK_SN_SQ_ST_SW_EEEEEEDcS10_DpT0_, symObjAddr: 0x7CF0, symBinAddr: 0xEA50, symSize: 0x20 }
  - { offset: 0xBCEE1, size: 0x8, addend: 0x0, symName: __ZNSt3__116__variant_detail12__visitation6__base12__dispatcherIJLm5EEE10__dispatchB8fe200100IOZNS0_6__dtorINS0_8__traitsIJNS_6vectorIhN2al9allocatorIhLm16EEEEENS8_IsNSA_IsLm16EEEEENS8_IiNSA_IiLm16EEEEENS8_IfNSA_IfLm16EEEEENS8_IdNSA_IdLm16EEEEENS8_I11MulawSampleNSA_ISL_Lm16EEEEENS8_I10AlawSampleNSA_ISO_Lm16EEEEENS8_I8IMA4DataNSA_ISR_Lm16EEEEENS8_I11MSADPCMDataNSA_ISU_Lm16EEEEEEEELNS0_6_TraitE1EE9__destroyB8fe200100EvEUlRT_E_JRNS0_6__baseILSY_1EJSC_SE_SG_SI_SK_SN_SQ_ST_SW_EEEEEEDcS10_DpT0_, symObjAddr: 0x7D10, symBinAddr: 0xEA70, symSize: 0x20 }
  - { offset: 0xBD174, size: 0x8, addend: 0x0, symName: __ZNSt3__116__variant_detail12__visitation6__base12__dispatcherIJLm6EEE10__dispatchB8fe200100IOZNS0_6__dtorINS0_8__traitsIJNS_6vectorIhN2al9allocatorIhLm16EEEEENS8_IsNSA_IsLm16EEEEENS8_IiNSA_IiLm16EEEEENS8_IfNSA_IfLm16EEEEENS8_IdNSA_IdLm16EEEEENS8_I11MulawSampleNSA_ISL_Lm16EEEEENS8_I10AlawSampleNSA_ISO_Lm16EEEEENS8_I8IMA4DataNSA_ISR_Lm16EEEEENS8_I11MSADPCMDataNSA_ISU_Lm16EEEEEEEELNS0_6_TraitE1EE9__destroyB8fe200100EvEUlRT_E_JRNS0_6__baseILSY_1EJSC_SE_SG_SI_SK_SN_SQ_ST_SW_EEEEEEDcS10_DpT0_, symObjAddr: 0x7D30, symBinAddr: 0xEA90, symSize: 0x20 }
  - { offset: 0xBD407, size: 0x8, addend: 0x0, symName: __ZNSt3__116__variant_detail12__visitation6__base12__dispatcherIJLm7EEE10__dispatchB8fe200100IOZNS0_6__dtorINS0_8__traitsIJNS_6vectorIhN2al9allocatorIhLm16EEEEENS8_IsNSA_IsLm16EEEEENS8_IiNSA_IiLm16EEEEENS8_IfNSA_IfLm16EEEEENS8_IdNSA_IdLm16EEEEENS8_I11MulawSampleNSA_ISL_Lm16EEEEENS8_I10AlawSampleNSA_ISO_Lm16EEEEENS8_I8IMA4DataNSA_ISR_Lm16EEEEENS8_I11MSADPCMDataNSA_ISU_Lm16EEEEEEEELNS0_6_TraitE1EE9__destroyB8fe200100EvEUlRT_E_JRNS0_6__baseILSY_1EJSC_SE_SG_SI_SK_SN_SQ_ST_SW_EEEEEEDcS10_DpT0_, symObjAddr: 0x7D50, symBinAddr: 0xEAB0, symSize: 0x20 }
  - { offset: 0xBD69A, size: 0x8, addend: 0x0, symName: __ZNSt3__116__variant_detail12__visitation6__base12__dispatcherIJLm8EEE10__dispatchB8fe200100IOZNS0_6__dtorINS0_8__traitsIJNS_6vectorIhN2al9allocatorIhLm16EEEEENS8_IsNSA_IsLm16EEEEENS8_IiNSA_IiLm16EEEEENS8_IfNSA_IfLm16EEEEENS8_IdNSA_IdLm16EEEEENS8_I11MulawSampleNSA_ISL_Lm16EEEEENS8_I10AlawSampleNSA_ISO_Lm16EEEEENS8_I8IMA4DataNSA_ISR_Lm16EEEEENS8_I11MSADPCMDataNSA_ISU_Lm16EEEEEEEELNS0_6_TraitE1EE9__destroyB8fe200100EvEUlRT_E_JRNS0_6__baseILSY_1EJSC_SE_SG_SI_SK_SN_SQ_ST_SW_EEEEEEDcS10_DpT0_, symObjAddr: 0x7D70, symBinAddr: 0xEAD0, symSize: 0x20 }
  - { offset: 0xC01AB, size: 0x8, addend: 0x0, symName: '__ZNSt3__116__variant_detail12__visitation6__base12__dispatcherIJLm0EEE10__dispatchB8fe200100IONS1_9__variant15__value_visitorIZN12_GLOBAL__N_18LoadDataEN3gsl8not_nullIPN2al7ContextEEENSA_IPNSB_6BufferEEEij11FmtChannels7FmtTypeNS_4spanIKSt4byteLm18446744073709551615EEEjE3$_2EEJRNS0_6__baseILNS0_6_TraitE0EJNSK_IhLm18446744073709551615EEENSK_IsLm18446744073709551615EEENSK_IiLm18446744073709551615EEENSK_IfLm18446744073709551615EEENSK_IdLm18446744073709551615EEENSK_I11MulawSampleLm18446744073709551615EEENSK_I10AlawSampleLm18446744073709551615EEENSK_I8IMA4DataLm18446744073709551615EEENSK_I11MSADPCMDataLm18446744073709551615EEEEEEEEEDcT_DpT0_', symObjAddr: 0x8610, symBinAddr: 0xF370, symSize: 0x10 }
  - { offset: 0xC02F2, size: 0x8, addend: 0x0, symName: '__ZNSt3__116__variant_detail12__visitation6__base12__dispatcherIJLm1EEE10__dispatchB8fe200100IONS1_9__variant15__value_visitorIZN12_GLOBAL__N_18LoadDataEN3gsl8not_nullIPN2al7ContextEEENSA_IPNSB_6BufferEEEij11FmtChannels7FmtTypeNS_4spanIKSt4byteLm18446744073709551615EEEjE3$_2EEJRNS0_6__baseILNS0_6_TraitE0EJNSK_IhLm18446744073709551615EEENSK_IsLm18446744073709551615EEENSK_IiLm18446744073709551615EEENSK_IfLm18446744073709551615EEENSK_IdLm18446744073709551615EEENSK_I11MulawSampleLm18446744073709551615EEENSK_I10AlawSampleLm18446744073709551615EEENSK_I8IMA4DataLm18446744073709551615EEENSK_I11MSADPCMDataLm18446744073709551615EEEEEEEEEDcT_DpT0_', symObjAddr: 0x8620, symBinAddr: 0xF380, symSize: 0x10 }
  - { offset: 0xC0484, size: 0x8, addend: 0x0, symName: '__ZNSt3__116__variant_detail12__visitation6__base12__dispatcherIJLm2EEE10__dispatchB8fe200100IONS1_9__variant15__value_visitorIZN12_GLOBAL__N_18LoadDataEN3gsl8not_nullIPN2al7ContextEEENSA_IPNSB_6BufferEEEij11FmtChannels7FmtTypeNS_4spanIKSt4byteLm18446744073709551615EEEjE3$_2EEJRNS0_6__baseILNS0_6_TraitE0EJNSK_IhLm18446744073709551615EEENSK_IsLm18446744073709551615EEENSK_IiLm18446744073709551615EEENSK_IfLm18446744073709551615EEENSK_IdLm18446744073709551615EEENSK_I11MulawSampleLm18446744073709551615EEENSK_I10AlawSampleLm18446744073709551615EEENSK_I8IMA4DataLm18446744073709551615EEENSK_I11MSADPCMDataLm18446744073709551615EEEEEEEEEDcT_DpT0_', symObjAddr: 0x8630, symBinAddr: 0xF390, symSize: 0x20 }
  - { offset: 0xC0616, size: 0x8, addend: 0x0, symName: '__ZNSt3__116__variant_detail12__visitation6__base12__dispatcherIJLm3EEE10__dispatchB8fe200100IONS1_9__variant15__value_visitorIZN12_GLOBAL__N_18LoadDataEN3gsl8not_nullIPN2al7ContextEEENSA_IPNSB_6BufferEEEij11FmtChannels7FmtTypeNS_4spanIKSt4byteLm18446744073709551615EEEjE3$_2EEJRNS0_6__baseILNS0_6_TraitE0EJNSK_IhLm18446744073709551615EEENSK_IsLm18446744073709551615EEENSK_IiLm18446744073709551615EEENSK_IfLm18446744073709551615EEENSK_IdLm18446744073709551615EEENSK_I11MulawSampleLm18446744073709551615EEENSK_I10AlawSampleLm18446744073709551615EEENSK_I8IMA4DataLm18446744073709551615EEENSK_I11MSADPCMDataLm18446744073709551615EEEEEEEEEDcT_DpT0_', symObjAddr: 0x8650, symBinAddr: 0xF3B0, symSize: 0x20 }
  - { offset: 0xC07A8, size: 0x8, addend: 0x0, symName: '__ZNSt3__116__variant_detail12__visitation6__base12__dispatcherIJLm4EEE10__dispatchB8fe200100IONS1_9__variant15__value_visitorIZN12_GLOBAL__N_18LoadDataEN3gsl8not_nullIPN2al7ContextEEENSA_IPNSB_6BufferEEEij11FmtChannels7FmtTypeNS_4spanIKSt4byteLm18446744073709551615EEEjE3$_2EEJRNS0_6__baseILNS0_6_TraitE0EJNSK_IhLm18446744073709551615EEENSK_IsLm18446744073709551615EEENSK_IiLm18446744073709551615EEENSK_IfLm18446744073709551615EEENSK_IdLm18446744073709551615EEENSK_I11MulawSampleLm18446744073709551615EEENSK_I10AlawSampleLm18446744073709551615EEENSK_I8IMA4DataLm18446744073709551615EEENSK_I11MSADPCMDataLm18446744073709551615EEEEEEEEEDcT_DpT0_', symObjAddr: 0x8670, symBinAddr: 0xF3D0, symSize: 0x20 }
  - { offset: 0xC0908, size: 0x8, addend: 0x0, symName: '__ZNSt3__116__variant_detail12__visitation6__base12__dispatcherIJLm5EEE10__dispatchB8fe200100IONS1_9__variant15__value_visitorIZN12_GLOBAL__N_18LoadDataEN3gsl8not_nullIPN2al7ContextEEENSA_IPNSB_6BufferEEEij11FmtChannels7FmtTypeNS_4spanIKSt4byteLm18446744073709551615EEEjE3$_2EEJRNS0_6__baseILNS0_6_TraitE0EJNSK_IhLm18446744073709551615EEENSK_IsLm18446744073709551615EEENSK_IiLm18446744073709551615EEENSK_IfLm18446744073709551615EEENSK_IdLm18446744073709551615EEENSK_I11MulawSampleLm18446744073709551615EEENSK_I10AlawSampleLm18446744073709551615EEENSK_I8IMA4DataLm18446744073709551615EEENSK_I11MSADPCMDataLm18446744073709551615EEEEEEEEEDcT_DpT0_', symObjAddr: 0x8690, symBinAddr: 0xF3F0, symSize: 0x10 }
  - { offset: 0xC0A1D, size: 0x8, addend: 0x0, symName: '__ZNSt3__116__variant_detail12__visitation6__base12__dispatcherIJLm6EEE10__dispatchB8fe200100IONS1_9__variant15__value_visitorIZN12_GLOBAL__N_18LoadDataEN3gsl8not_nullIPN2al7ContextEEENSA_IPNSB_6BufferEEEij11FmtChannels7FmtTypeNS_4spanIKSt4byteLm18446744073709551615EEEjE3$_2EEJRNS0_6__baseILNS0_6_TraitE0EJNSK_IhLm18446744073709551615EEENSK_IsLm18446744073709551615EEENSK_IiLm18446744073709551615EEENSK_IfLm18446744073709551615EEENSK_IdLm18446744073709551615EEENSK_I11MulawSampleLm18446744073709551615EEENSK_I10AlawSampleLm18446744073709551615EEENSK_I8IMA4DataLm18446744073709551615EEENSK_I11MSADPCMDataLm18446744073709551615EEEEEEEEEDcT_DpT0_', symObjAddr: 0x86A0, symBinAddr: 0xF400, symSize: 0x10 }
  - { offset: 0xC0B32, size: 0x8, addend: 0x0, symName: '__ZNSt3__116__variant_detail12__visitation6__base12__dispatcherIJLm7EEE10__dispatchB8fe200100IONS1_9__variant15__value_visitorIZN12_GLOBAL__N_18LoadDataEN3gsl8not_nullIPN2al7ContextEEENSA_IPNSB_6BufferEEEij11FmtChannels7FmtTypeNS_4spanIKSt4byteLm18446744073709551615EEEjE3$_2EEJRNS0_6__baseILNS0_6_TraitE0EJNSK_IhLm18446744073709551615EEENSK_IsLm18446744073709551615EEENSK_IiLm18446744073709551615EEENSK_IfLm18446744073709551615EEENSK_IdLm18446744073709551615EEENSK_I11MulawSampleLm18446744073709551615EEENSK_I10AlawSampleLm18446744073709551615EEENSK_I8IMA4DataLm18446744073709551615EEENSK_I11MSADPCMDataLm18446744073709551615EEEEEEEEEDcT_DpT0_', symObjAddr: 0x86B0, symBinAddr: 0xF410, symSize: 0x10 }
  - { offset: 0xC0C47, size: 0x8, addend: 0x0, symName: '__ZNSt3__116__variant_detail12__visitation6__base12__dispatcherIJLm8EEE10__dispatchB8fe200100IONS1_9__variant15__value_visitorIZN12_GLOBAL__N_18LoadDataEN3gsl8not_nullIPN2al7ContextEEENSA_IPNSB_6BufferEEEij11FmtChannels7FmtTypeNS_4spanIKSt4byteLm18446744073709551615EEEjE3$_2EEJRNS0_6__baseILNS0_6_TraitE0EJNSK_IhLm18446744073709551615EEENSK_IsLm18446744073709551615EEENSK_IiLm18446744073709551615EEENSK_IfLm18446744073709551615EEENSK_IdLm18446744073709551615EEENSK_I11MulawSampleLm18446744073709551615EEENSK_I10AlawSampleLm18446744073709551615EEENSK_I8IMA4DataLm18446744073709551615EEENSK_I11MSADPCMDataLm18446744073709551615EEEEEEEEEDcT_DpT0_', symObjAddr: 0x86C0, symBinAddr: 0xF420, symSize: 0x10 }
  - { offset: 0xC0DCE, size: 0x8, addend: 0x0, symName: '__ZNSt3__116__variant_detail12__visitation6__base12__dispatcherIJLm0EEE10__dispatchB8fe200100IONS1_9__variant15__value_visitorIZN12_GLOBAL__N_119alBufferSubDataSOFTEN3gsl8not_nullIPN2al7ContextEEEjiPKviiE3$_0EEJRNS0_6__baseILNS0_6_TraitE0EJNS_4spanIhLm18446744073709551615EEENSM_IsLm18446744073709551615EEENSM_IiLm18446744073709551615EEENSM_IfLm18446744073709551615EEENSM_IdLm18446744073709551615EEENSM_I11MulawSampleLm18446744073709551615EEENSM_I10AlawSampleLm18446744073709551615EEENSM_I8IMA4DataLm18446744073709551615EEENSM_I11MSADPCMDataLm18446744073709551615EEEEEEEEEDcT_DpT0_', symObjAddr: 0x8790, symBinAddr: 0xF4C0, symSize: 0x10 }
  - { offset: 0xC0EE3, size: 0x8, addend: 0x0, symName: '__ZNSt3__116__variant_detail12__visitation6__base12__dispatcherIJLm1EEE10__dispatchB8fe200100IONS1_9__variant15__value_visitorIZN12_GLOBAL__N_119alBufferSubDataSOFTEN3gsl8not_nullIPN2al7ContextEEEjiPKviiE3$_0EEJRNS0_6__baseILNS0_6_TraitE0EJNS_4spanIhLm18446744073709551615EEENSM_IsLm18446744073709551615EEENSM_IiLm18446744073709551615EEENSM_IfLm18446744073709551615EEENSM_IdLm18446744073709551615EEENSM_I11MulawSampleLm18446744073709551615EEENSM_I10AlawSampleLm18446744073709551615EEENSM_I8IMA4DataLm18446744073709551615EEENSM_I11MSADPCMDataLm18446744073709551615EEEEEEEEEDcT_DpT0_', symObjAddr: 0x87A0, symBinAddr: 0xF4D0, symSize: 0x10 }
  - { offset: 0xC1043, size: 0x8, addend: 0x0, symName: '__ZNSt3__116__variant_detail12__visitation6__base12__dispatcherIJLm2EEE10__dispatchB8fe200100IONS1_9__variant15__value_visitorIZN12_GLOBAL__N_119alBufferSubDataSOFTEN3gsl8not_nullIPN2al7ContextEEEjiPKviiE3$_0EEJRNS0_6__baseILNS0_6_TraitE0EJNS_4spanIhLm18446744073709551615EEENSM_IsLm18446744073709551615EEENSM_IiLm18446744073709551615EEENSM_IfLm18446744073709551615EEENSM_IdLm18446744073709551615EEENSM_I11MulawSampleLm18446744073709551615EEENSM_I10AlawSampleLm18446744073709551615EEENSM_I8IMA4DataLm18446744073709551615EEENSM_I11MSADPCMDataLm18446744073709551615EEEEEEEEEDcT_DpT0_', symObjAddr: 0x87B0, symBinAddr: 0xF4E0, symSize: 0x20 }
  - { offset: 0xC11A3, size: 0x8, addend: 0x0, symName: '__ZNSt3__116__variant_detail12__visitation6__base12__dispatcherIJLm3EEE10__dispatchB8fe200100IONS1_9__variant15__value_visitorIZN12_GLOBAL__N_119alBufferSubDataSOFTEN3gsl8not_nullIPN2al7ContextEEEjiPKviiE3$_0EEJRNS0_6__baseILNS0_6_TraitE0EJNS_4spanIhLm18446744073709551615EEENSM_IsLm18446744073709551615EEENSM_IiLm18446744073709551615EEENSM_IfLm18446744073709551615EEENSM_IdLm18446744073709551615EEENSM_I11MulawSampleLm18446744073709551615EEENSM_I10AlawSampleLm18446744073709551615EEENSM_I8IMA4DataLm18446744073709551615EEENSM_I11MSADPCMDataLm18446744073709551615EEEEEEEEEDcT_DpT0_', symObjAddr: 0x87D0, symBinAddr: 0xF500, symSize: 0x20 }
  - { offset: 0xC1303, size: 0x8, addend: 0x0, symName: '__ZNSt3__116__variant_detail12__visitation6__base12__dispatcherIJLm4EEE10__dispatchB8fe200100IONS1_9__variant15__value_visitorIZN12_GLOBAL__N_119alBufferSubDataSOFTEN3gsl8not_nullIPN2al7ContextEEEjiPKviiE3$_0EEJRNS0_6__baseILNS0_6_TraitE0EJNS_4spanIhLm18446744073709551615EEENSM_IsLm18446744073709551615EEENSM_IiLm18446744073709551615EEENSM_IfLm18446744073709551615EEENSM_IdLm18446744073709551615EEENSM_I11MulawSampleLm18446744073709551615EEENSM_I10AlawSampleLm18446744073709551615EEENSM_I8IMA4DataLm18446744073709551615EEENSM_I11MSADPCMDataLm18446744073709551615EEEEEEEEEDcT_DpT0_', symObjAddr: 0x87F0, symBinAddr: 0xF520, symSize: 0x20 }
  - { offset: 0xC1463, size: 0x8, addend: 0x0, symName: '__ZNSt3__116__variant_detail12__visitation6__base12__dispatcherIJLm5EEE10__dispatchB8fe200100IONS1_9__variant15__value_visitorIZN12_GLOBAL__N_119alBufferSubDataSOFTEN3gsl8not_nullIPN2al7ContextEEEjiPKviiE3$_0EEJRNS0_6__baseILNS0_6_TraitE0EJNS_4spanIhLm18446744073709551615EEENSM_IsLm18446744073709551615EEENSM_IiLm18446744073709551615EEENSM_IfLm18446744073709551615EEENSM_IdLm18446744073709551615EEENSM_I11MulawSampleLm18446744073709551615EEENSM_I10AlawSampleLm18446744073709551615EEENSM_I8IMA4DataLm18446744073709551615EEENSM_I11MSADPCMDataLm18446744073709551615EEEEEEEEEDcT_DpT0_', symObjAddr: 0x8810, symBinAddr: 0xF540, symSize: 0x10 }
  - { offset: 0xC1578, size: 0x8, addend: 0x0, symName: '__ZNSt3__116__variant_detail12__visitation6__base12__dispatcherIJLm6EEE10__dispatchB8fe200100IONS1_9__variant15__value_visitorIZN12_GLOBAL__N_119alBufferSubDataSOFTEN3gsl8not_nullIPN2al7ContextEEEjiPKviiE3$_0EEJRNS0_6__baseILNS0_6_TraitE0EJNS_4spanIhLm18446744073709551615EEENSM_IsLm18446744073709551615EEENSM_IiLm18446744073709551615EEENSM_IfLm18446744073709551615EEENSM_IdLm18446744073709551615EEENSM_I11MulawSampleLm18446744073709551615EEENSM_I10AlawSampleLm18446744073709551615EEENSM_I8IMA4DataLm18446744073709551615EEENSM_I11MSADPCMDataLm18446744073709551615EEEEEEEEEDcT_DpT0_', symObjAddr: 0x8820, symBinAddr: 0xF550, symSize: 0x10 }
  - { offset: 0xC168D, size: 0x8, addend: 0x0, symName: '__ZNSt3__116__variant_detail12__visitation6__base12__dispatcherIJLm7EEE10__dispatchB8fe200100IONS1_9__variant15__value_visitorIZN12_GLOBAL__N_119alBufferSubDataSOFTEN3gsl8not_nullIPN2al7ContextEEEjiPKviiE3$_0EEJRNS0_6__baseILNS0_6_TraitE0EJNS_4spanIhLm18446744073709551615EEENSM_IsLm18446744073709551615EEENSM_IiLm18446744073709551615EEENSM_IfLm18446744073709551615EEENSM_IdLm18446744073709551615EEENSM_I11MulawSampleLm18446744073709551615EEENSM_I10AlawSampleLm18446744073709551615EEENSM_I8IMA4DataLm18446744073709551615EEENSM_I11MSADPCMDataLm18446744073709551615EEEEEEEEEDcT_DpT0_', symObjAddr: 0x8830, symBinAddr: 0xF560, symSize: 0x10 }
  - { offset: 0xC17A2, size: 0x8, addend: 0x0, symName: '__ZNSt3__116__variant_detail12__visitation6__base12__dispatcherIJLm8EEE10__dispatchB8fe200100IONS1_9__variant15__value_visitorIZN12_GLOBAL__N_119alBufferSubDataSOFTEN3gsl8not_nullIPN2al7ContextEEEjiPKviiE3$_0EEJRNS0_6__baseILNS0_6_TraitE0EJNS_4spanIhLm18446744073709551615EEENSM_IsLm18446744073709551615EEENSM_IiLm18446744073709551615EEENSM_IfLm18446744073709551615EEENSM_IdLm18446744073709551615EEENSM_I11MulawSampleLm18446744073709551615EEENSM_I10AlawSampleLm18446744073709551615EEENSM_I8IMA4DataLm18446744073709551615EEENSM_I11MSADPCMDataLm18446744073709551615EEEEEEEEEDcT_DpT0_', symObjAddr: 0x8840, symBinAddr: 0xF570, symSize: 0x10 }
  - { offset: 0xC190B, size: 0x8, addend: 0x0, symName: '__ZNSt3__116__variant_detail12__visitation6__base12__dispatcherIJLm0EEE10__dispatchB8fe200100IONS1_9__variant15__value_visitorIZN12_GLOBAL__N_115alMapBufferSOFTEN3gsl8not_nullIPN2al7ContextEEEjiijE3$_0EEJRNS0_6__baseILNS0_6_TraitE0EJNS_4spanIhLm18446744073709551615EEENSK_IsLm18446744073709551615EEENSK_IiLm18446744073709551615EEENSK_IfLm18446744073709551615EEENSK_IdLm18446744073709551615EEENSK_I11MulawSampleLm18446744073709551615EEENSK_I10AlawSampleLm18446744073709551615EEENSK_I8IMA4DataLm18446744073709551615EEENSK_I11MSADPCMDataLm18446744073709551615EEEEEEEEEDcT_DpT0_', symObjAddr: 0x8850, symBinAddr: 0xF580, symSize: 0x20 }
  - { offset: 0xC1A4F, size: 0x8, addend: 0x0, symName: '__ZNSt3__116__variant_detail12__visitation6__base12__dispatcherIJLm1EEE10__dispatchB8fe200100IONS1_9__variant15__value_visitorIZN12_GLOBAL__N_115alMapBufferSOFTEN3gsl8not_nullIPN2al7ContextEEEjiijE3$_0EEJRNS0_6__baseILNS0_6_TraitE0EJNS_4spanIhLm18446744073709551615EEENSK_IsLm18446744073709551615EEENSK_IiLm18446744073709551615EEENSK_IfLm18446744073709551615EEENSK_IdLm18446744073709551615EEENSK_I11MulawSampleLm18446744073709551615EEENSK_I10AlawSampleLm18446744073709551615EEENSK_I8IMA4DataLm18446744073709551615EEENSK_I11MSADPCMDataLm18446744073709551615EEEEEEEEEDcT_DpT0_', symObjAddr: 0x8870, symBinAddr: 0xF5A0, symSize: 0x20 }
  - { offset: 0xC1BDE, size: 0x8, addend: 0x0, symName: '__ZNSt3__116__variant_detail12__visitation6__base12__dispatcherIJLm2EEE10__dispatchB8fe200100IONS1_9__variant15__value_visitorIZN12_GLOBAL__N_115alMapBufferSOFTEN3gsl8not_nullIPN2al7ContextEEEjiijE3$_0EEJRNS0_6__baseILNS0_6_TraitE0EJNS_4spanIhLm18446744073709551615EEENSK_IsLm18446744073709551615EEENSK_IiLm18446744073709551615EEENSK_IfLm18446744073709551615EEENSK_IdLm18446744073709551615EEENSK_I11MulawSampleLm18446744073709551615EEENSK_I10AlawSampleLm18446744073709551615EEENSK_I8IMA4DataLm18446744073709551615EEENSK_I11MSADPCMDataLm18446744073709551615EEEEEEEEEDcT_DpT0_', symObjAddr: 0x8890, symBinAddr: 0xF5C0, symSize: 0x20 }
  - { offset: 0xC1D6D, size: 0x8, addend: 0x0, symName: '__ZNSt3__116__variant_detail12__visitation6__base12__dispatcherIJLm3EEE10__dispatchB8fe200100IONS1_9__variant15__value_visitorIZN12_GLOBAL__N_115alMapBufferSOFTEN3gsl8not_nullIPN2al7ContextEEEjiijE3$_0EEJRNS0_6__baseILNS0_6_TraitE0EJNS_4spanIhLm18446744073709551615EEENSK_IsLm18446744073709551615EEENSK_IiLm18446744073709551615EEENSK_IfLm18446744073709551615EEENSK_IdLm18446744073709551615EEENSK_I11MulawSampleLm18446744073709551615EEENSK_I10AlawSampleLm18446744073709551615EEENSK_I8IMA4DataLm18446744073709551615EEENSK_I11MSADPCMDataLm18446744073709551615EEEEEEEEEDcT_DpT0_', symObjAddr: 0x88B0, symBinAddr: 0xF5E0, symSize: 0x20 }
  - { offset: 0xC1EFC, size: 0x8, addend: 0x0, symName: '__ZNSt3__116__variant_detail12__visitation6__base12__dispatcherIJLm4EEE10__dispatchB8fe200100IONS1_9__variant15__value_visitorIZN12_GLOBAL__N_115alMapBufferSOFTEN3gsl8not_nullIPN2al7ContextEEEjiijE3$_0EEJRNS0_6__baseILNS0_6_TraitE0EJNS_4spanIhLm18446744073709551615EEENSK_IsLm18446744073709551615EEENSK_IiLm18446744073709551615EEENSK_IfLm18446744073709551615EEENSK_IdLm18446744073709551615EEENSK_I11MulawSampleLm18446744073709551615EEENSK_I10AlawSampleLm18446744073709551615EEENSK_I8IMA4DataLm18446744073709551615EEENSK_I11MSADPCMDataLm18446744073709551615EEEEEEEEEDcT_DpT0_', symObjAddr: 0x88D0, symBinAddr: 0xF600, symSize: 0x20 }
  - { offset: 0xC208B, size: 0x8, addend: 0x0, symName: '__ZNSt3__116__variant_detail12__visitation6__base12__dispatcherIJLm5EEE10__dispatchB8fe200100IONS1_9__variant15__value_visitorIZN12_GLOBAL__N_115alMapBufferSOFTEN3gsl8not_nullIPN2al7ContextEEEjiijE3$_0EEJRNS0_6__baseILNS0_6_TraitE0EJNS_4spanIhLm18446744073709551615EEENSK_IsLm18446744073709551615EEENSK_IiLm18446744073709551615EEENSK_IfLm18446744073709551615EEENSK_IdLm18446744073709551615EEENSK_I11MulawSampleLm18446744073709551615EEENSK_I10AlawSampleLm18446744073709551615EEENSK_I8IMA4DataLm18446744073709551615EEENSK_I11MSADPCMDataLm18446744073709551615EEEEEEEEEDcT_DpT0_', symObjAddr: 0x88F0, symBinAddr: 0xF620, symSize: 0x20 }
  - { offset: 0xC21CF, size: 0x8, addend: 0x0, symName: '__ZNSt3__116__variant_detail12__visitation6__base12__dispatcherIJLm6EEE10__dispatchB8fe200100IONS1_9__variant15__value_visitorIZN12_GLOBAL__N_115alMapBufferSOFTEN3gsl8not_nullIPN2al7ContextEEEjiijE3$_0EEJRNS0_6__baseILNS0_6_TraitE0EJNS_4spanIhLm18446744073709551615EEENSK_IsLm18446744073709551615EEENSK_IiLm18446744073709551615EEENSK_IfLm18446744073709551615EEENSK_IdLm18446744073709551615EEENSK_I11MulawSampleLm18446744073709551615EEENSK_I10AlawSampleLm18446744073709551615EEENSK_I8IMA4DataLm18446744073709551615EEENSK_I11MSADPCMDataLm18446744073709551615EEEEEEEEEDcT_DpT0_', symObjAddr: 0x8910, symBinAddr: 0xF640, symSize: 0x20 }
  - { offset: 0xC2313, size: 0x8, addend: 0x0, symName: '__ZNSt3__116__variant_detail12__visitation6__base12__dispatcherIJLm7EEE10__dispatchB8fe200100IONS1_9__variant15__value_visitorIZN12_GLOBAL__N_115alMapBufferSOFTEN3gsl8not_nullIPN2al7ContextEEEjiijE3$_0EEJRNS0_6__baseILNS0_6_TraitE0EJNS_4spanIhLm18446744073709551615EEENSK_IsLm18446744073709551615EEENSK_IiLm18446744073709551615EEENSK_IfLm18446744073709551615EEENSK_IdLm18446744073709551615EEENSK_I11MulawSampleLm18446744073709551615EEENSK_I10AlawSampleLm18446744073709551615EEENSK_I8IMA4DataLm18446744073709551615EEENSK_I11MSADPCMDataLm18446744073709551615EEEEEEEEEDcT_DpT0_', symObjAddr: 0x8930, symBinAddr: 0xF660, symSize: 0x20 }
  - { offset: 0xC2457, size: 0x8, addend: 0x0, symName: '__ZNSt3__116__variant_detail12__visitation6__base12__dispatcherIJLm8EEE10__dispatchB8fe200100IONS1_9__variant15__value_visitorIZN12_GLOBAL__N_115alMapBufferSOFTEN3gsl8not_nullIPN2al7ContextEEEjiijE3$_0EEJRNS0_6__baseILNS0_6_TraitE0EJNS_4spanIhLm18446744073709551615EEENSK_IsLm18446744073709551615EEENSK_IiLm18446744073709551615EEENSK_IfLm18446744073709551615EEENSK_IdLm18446744073709551615EEENSK_I11MulawSampleLm18446744073709551615EEENSK_I10AlawSampleLm18446744073709551615EEENSK_I8IMA4DataLm18446744073709551615EEENSK_I11MSADPCMDataLm18446744073709551615EEEEEEEEEDcT_DpT0_', symObjAddr: 0x8950, symBinAddr: 0xF680, symSize: 0x20 }
  - { offset: 0xC25F1, size: 0x8, addend: 0x0, symName: '__ZNSt3__116__variant_detail12__visitation6__base12__dispatcherIJLm0EEE10__dispatchB8fe200100IONS1_9__variant15__value_visitorIZN12_GLOBAL__N_112alGetBufferiEN3gsl8not_nullIPN2al7ContextEEEjiPiE3$_0EEJRNS0_6__baseILNS0_6_TraitE0EJNS_4spanIhLm18446744073709551615EEENSL_IsLm18446744073709551615EEENSL_IiLm18446744073709551615EEENSL_IfLm18446744073709551615EEENSL_IdLm18446744073709551615EEENSL_I11MulawSampleLm18446744073709551615EEENSL_I10AlawSampleLm18446744073709551615EEENSL_I8IMA4DataLm18446744073709551615EEENSL_I11MSADPCMDataLm18446744073709551615EEEEEEEEEDcT_DpT0_', symObjAddr: 0x89E0, symBinAddr: 0xF710, symSize: 0x10 }
  - { offset: 0xC2723, size: 0x8, addend: 0x0, symName: '__ZNSt3__116__variant_detail12__visitation6__base12__dispatcherIJLm1EEE10__dispatchB8fe200100IONS1_9__variant15__value_visitorIZN12_GLOBAL__N_112alGetBufferiEN3gsl8not_nullIPN2al7ContextEEEjiPiE3$_0EEJRNS0_6__baseILNS0_6_TraitE0EJNS_4spanIhLm18446744073709551615EEENSL_IsLm18446744073709551615EEENSL_IiLm18446744073709551615EEENSL_IfLm18446744073709551615EEENSL_IdLm18446744073709551615EEENSL_I11MulawSampleLm18446744073709551615EEENSL_I10AlawSampleLm18446744073709551615EEENSL_I8IMA4DataLm18446744073709551615EEENSL_I11MSADPCMDataLm18446744073709551615EEEEEEEEEDcT_DpT0_', symObjAddr: 0x89F0, symBinAddr: 0xF720, symSize: 0x10 }
  - { offset: 0xC286B, size: 0x8, addend: 0x0, symName: '__ZNSt3__116__variant_detail12__visitation6__base12__dispatcherIJLm2EEE10__dispatchB8fe200100IONS1_9__variant15__value_visitorIZN12_GLOBAL__N_112alGetBufferiEN3gsl8not_nullIPN2al7ContextEEEjiPiE3$_0EEJRNS0_6__baseILNS0_6_TraitE0EJNS_4spanIhLm18446744073709551615EEENSL_IsLm18446744073709551615EEENSL_IiLm18446744073709551615EEENSL_IfLm18446744073709551615EEENSL_IdLm18446744073709551615EEENSL_I11MulawSampleLm18446744073709551615EEENSL_I10AlawSampleLm18446744073709551615EEENSL_I8IMA4DataLm18446744073709551615EEENSL_I11MSADPCMDataLm18446744073709551615EEEEEEEEEDcT_DpT0_', symObjAddr: 0x8A00, symBinAddr: 0xF730, symSize: 0x10 }
  - { offset: 0xC29B3, size: 0x8, addend: 0x0, symName: '__ZNSt3__116__variant_detail12__visitation6__base12__dispatcherIJLm3EEE10__dispatchB8fe200100IONS1_9__variant15__value_visitorIZN12_GLOBAL__N_112alGetBufferiEN3gsl8not_nullIPN2al7ContextEEEjiPiE3$_0EEJRNS0_6__baseILNS0_6_TraitE0EJNS_4spanIhLm18446744073709551615EEENSL_IsLm18446744073709551615EEENSL_IiLm18446744073709551615EEENSL_IfLm18446744073709551615EEENSL_IdLm18446744073709551615EEENSL_I11MulawSampleLm18446744073709551615EEENSL_I10AlawSampleLm18446744073709551615EEENSL_I8IMA4DataLm18446744073709551615EEENSL_I11MSADPCMDataLm18446744073709551615EEEEEEEEEDcT_DpT0_', symObjAddr: 0x8A10, symBinAddr: 0xF740, symSize: 0x10 }
  - { offset: 0xC2AFB, size: 0x8, addend: 0x0, symName: '__ZNSt3__116__variant_detail12__visitation6__base12__dispatcherIJLm4EEE10__dispatchB8fe200100IONS1_9__variant15__value_visitorIZN12_GLOBAL__N_112alGetBufferiEN3gsl8not_nullIPN2al7ContextEEEjiPiE3$_0EEJRNS0_6__baseILNS0_6_TraitE0EJNS_4spanIhLm18446744073709551615EEENSL_IsLm18446744073709551615EEENSL_IiLm18446744073709551615EEENSL_IfLm18446744073709551615EEENSL_IdLm18446744073709551615EEENSL_I11MulawSampleLm18446744073709551615EEENSL_I10AlawSampleLm18446744073709551615EEENSL_I8IMA4DataLm18446744073709551615EEENSL_I11MSADPCMDataLm18446744073709551615EEEEEEEEEDcT_DpT0_', symObjAddr: 0x8A20, symBinAddr: 0xF750, symSize: 0x10 }
  - { offset: 0xC2C5F, size: 0x8, addend: 0x0, symName: '__ZNSt3__116__variant_detail12__visitation6__base12__dispatcherIJLm5EEE10__dispatchB8fe200100IONS1_9__variant15__value_visitorIZN12_GLOBAL__N_112alGetBufferiEN3gsl8not_nullIPN2al7ContextEEEjiPiE3$_0EEJRNS0_6__baseILNS0_6_TraitE0EJNS_4spanIhLm18446744073709551615EEENSL_IsLm18446744073709551615EEENSL_IiLm18446744073709551615EEENSL_IfLm18446744073709551615EEENSL_IdLm18446744073709551615EEENSL_I11MulawSampleLm18446744073709551615EEENSL_I10AlawSampleLm18446744073709551615EEENSL_I8IMA4DataLm18446744073709551615EEENSL_I11MSADPCMDataLm18446744073709551615EEEEEEEEEDcT_DpT0_', symObjAddr: 0x8A30, symBinAddr: 0xF760, symSize: 0x10 }
  - { offset: 0xC2DAD, size: 0x8, addend: 0x0, symName: '__ZNSt3__116__variant_detail12__visitation6__base12__dispatcherIJLm6EEE10__dispatchB8fe200100IONS1_9__variant15__value_visitorIZN12_GLOBAL__N_112alGetBufferiEN3gsl8not_nullIPN2al7ContextEEEjiPiE3$_0EEJRNS0_6__baseILNS0_6_TraitE0EJNS_4spanIhLm18446744073709551615EEENSL_IsLm18446744073709551615EEENSL_IiLm18446744073709551615EEENSL_IfLm18446744073709551615EEENSL_IdLm18446744073709551615EEENSL_I11MulawSampleLm18446744073709551615EEENSL_I10AlawSampleLm18446744073709551615EEENSL_I8IMA4DataLm18446744073709551615EEENSL_I11MSADPCMDataLm18446744073709551615EEEEEEEEEDcT_DpT0_', symObjAddr: 0x8A40, symBinAddr: 0xF770, symSize: 0x10 }
  - { offset: 0xC2EFB, size: 0x8, addend: 0x0, symName: '__ZNSt3__116__variant_detail12__visitation6__base12__dispatcherIJLm7EEE10__dispatchB8fe200100IONS1_9__variant15__value_visitorIZN12_GLOBAL__N_112alGetBufferiEN3gsl8not_nullIPN2al7ContextEEEjiPiE3$_0EEJRNS0_6__baseILNS0_6_TraitE0EJNS_4spanIhLm18446744073709551615EEENSL_IsLm18446744073709551615EEENSL_IiLm18446744073709551615EEENSL_IfLm18446744073709551615EEENSL_IdLm18446744073709551615EEENSL_I11MulawSampleLm18446744073709551615EEENSL_I10AlawSampleLm18446744073709551615EEENSL_I8IMA4DataLm18446744073709551615EEENSL_I11MSADPCMDataLm18446744073709551615EEEEEEEEEDcT_DpT0_', symObjAddr: 0x8A50, symBinAddr: 0xF780, symSize: 0x10 }
  - { offset: 0xC3049, size: 0x8, addend: 0x0, symName: '__ZNSt3__116__variant_detail12__visitation6__base12__dispatcherIJLm8EEE10__dispatchB8fe200100IONS1_9__variant15__value_visitorIZN12_GLOBAL__N_112alGetBufferiEN3gsl8not_nullIPN2al7ContextEEEjiPiE3$_0EEJRNS0_6__baseILNS0_6_TraitE0EJNS_4spanIhLm18446744073709551615EEENSL_IsLm18446744073709551615EEENSL_IiLm18446744073709551615EEENSL_IfLm18446744073709551615EEENSL_IdLm18446744073709551615EEENSL_I11MulawSampleLm18446744073709551615EEENSL_I10AlawSampleLm18446744073709551615EEENSL_I8IMA4DataLm18446744073709551615EEENSL_I11MSADPCMDataLm18446744073709551615EEEEEEEEEDcT_DpT0_', symObjAddr: 0x8A60, symBinAddr: 0xF790, symSize: 0x10 }
  - { offset: 0xE945C, size: 0x8, addend: 0x0, symName: __ZN12_GLOBAL__N_124alDebugMessageControlEXTEN3gsl8not_nullIPN2al7ContextEEEiiiiPKjc, symObjAddr: 0xD90, symBinAddr: 0x10400, symSize: 0x5D0 }
  - { offset: 0xE9490, size: 0x8, addend: 0x0, symName: __ZZN12_GLOBAL__N_124alDebugMessageControlEXTEN3gsl8not_nullIPN2al7ContextEEEiiiiPKjcE6Values, symObjAddr: 0x4DCA, symBinAddr: 0xCB4CA, symSize: 0x0 }
  - { offset: 0xEA403, size: 0x8, addend: 0x0, symName: __ZN12_GLOBAL__N_118GetDebugSourceEnumE11DebugSource, symObjAddr: 0x490, symBinAddr: 0xFC30, symSize: 0xC0 }
  - { offset: 0xEA5B7, size: 0x8, addend: 0x0, symName: __ZN12_GLOBAL__N_116GetDebugTypeEnumE9DebugType, symObjAddr: 0x550, symBinAddr: 0xFCF0, symSize: 0xC0 }
  - { offset: 0xEA76A, size: 0x8, addend: 0x0, symName: __ZN12_GLOBAL__N_120GetDebugSeverityEnumE13DebugSeverity, symObjAddr: 0x610, symBinAddr: 0xFDB0, symSize: 0xC0 }
  - { offset: 0xEA959, size: 0x8, addend: 0x0, symName: __ZN12_GLOBAL__N_123alDebugMessageInsertEXTEN3gsl8not_nullIPN2al7ContextEEEiijiiPKc, symObjAddr: 0xA50, symBinAddr: 0x10150, symSize: 0x290 }
  - { offset: 0xEAE43, size: 0x8, addend: 0x0, symName: __ZN12_GLOBAL__N_119alPushDebugGroupEXTEN3gsl8not_nullIPN2al7ContextEEEijiPKc, symObjAddr: 0x1400, symBinAddr: 0x109F0, symSize: 0x3A0 }
  - { offset: 0xEB8C8, size: 0x8, addend: 0x0, symName: __ZN12_GLOBAL__N_118alPopDebugGroupEXTEN3gsl8not_nullIPN2al7ContextEEE, symObjAddr: 0x1810, symBinAddr: 0x10DB0, symSize: 0x1E0 }
  - { offset: 0xEBEF6, size: 0x8, addend: 0x0, symName: __ZN12_GLOBAL__N_123alGetDebugMessageLogEXTEN3gsl8not_nullIPN2al7ContextEEEjiPiS6_PjS6_S6_Pc, symObjAddr: 0x1AB0, symBinAddr: 0x10FB0, symSize: 0x8B0 }
  - { offset: 0xEDCF3, size: 0x8, addend: 0x0, symName: __ZN12_GLOBAL__N_116alObjectLabelEXTEN3gsl8not_nullIPN2al7ContextEEEijiPKc, symObjAddr: 0x2400, symBinAddr: 0x11880, symSize: 0x1C0 }
  - { offset: 0xEDFD7, size: 0x8, addend: 0x0, symName: __ZN12_GLOBAL__N_119alGetObjectLabelEXTEN3gsl8not_nullIPN2al7ContextEEEijiPiPc, symObjAddr: 0x2660, symBinAddr: 0x11A60, symSize: 0x830 }
  - { offset: 0xF5EC1, size: 0x8, addend: 0x0, symName: __ZN2al7Context16sendDebugMessageERNSt3__111unique_lockINS1_5mutexEEE11DebugSource9DebugTypej13DebugSeverityNS1_17basic_string_viewIcNS1_11char_traitsIcEEEE, symObjAddr: 0x0, symBinAddr: 0xF7A0, symSize: 0x420 }
  - { offset: 0xF6518, size: 0x8, addend: 0x0, symName: __ZNSt3__15dequeI13DebugLogEntryNS_9allocatorIS1_EEE12emplace_backIJR11DebugSourceR9DebugTypeRjR13DebugSeverityRNS_17basic_string_viewIcNS_11char_traitsIcEEEEEEERS1_DpOT_, symObjAddr: 0x6D0, symBinAddr: 0xFE70, symSize: 0x170 }
  - { offset: 0xF6AE0, size: 0x8, addend: 0x0, symName: __Z3ERRIJmRKtRNSt3__117basic_string_viewIcNS2_11char_traitsIcEEEEEEvN3fmt10alsoft_v117fstringIJDpT_EE1tEDpOSB_, symObjAddr: 0x420, symBinAddr: 0xFBC0, symSize: 0x70 }
  - { offset: 0xF6D91, size: 0x8, addend: 0x0, symName: __Z3ERRIJNSt3__117basic_string_viewIcNS0_11char_traitsIcEEEES4_RjS4_RS4_EEvN3fmt10alsoft_v117fstringIJDpT_EE1tEDpOSA_, symObjAddr: 0x840, symBinAddr: 0xFFE0, symSize: 0x80 }
  - { offset: 0xF7B10, size: 0x8, addend: 0x0, symName: __ZNSt3__15dequeI13DebugLogEntryNS_9allocatorIS1_EEE19__add_back_capacityEv, symObjAddr: 0x3BD0, symBinAddr: 0x12E20, symSize: 0x280 }
  - { offset: 0xF85D3, size: 0x8, addend: 0x0, symName: __ZNSt3__114__split_bufferI10DebugGroupRNS_9allocatorIS1_EEED1Ev, symObjAddr: 0x3890, symBinAddr: 0x12AE0, symSize: 0x50 }
  - { offset: 0xF88B8, size: 0x8, addend: 0x0, symName: _alDebugMessageCallbackEXT, symObjAddr: 0x8C0, symBinAddr: 0x10060, symSize: 0x90 }
  - { offset: 0xF8ACB, size: 0x8, addend: 0x0, symName: _alDebugMessageCallbackDirectEXT, symObjAddr: 0x950, symBinAddr: 0x100F0, symSize: 0x60 }
  - { offset: 0xF8C04, size: 0x8, addend: 0x0, symName: _alDebugMessageInsertEXT, symObjAddr: 0x9C0, symBinAddr: 0xC60D0, symSize: 0x90 }
  - { offset: 0xF90C1, size: 0x8, addend: 0x0, symName: __ZN2al7Context11throw_errorIJmRKtEEEviN3fmt10alsoft_v117fstringIJDpT_EE1tEDpOS7_, symObjAddr: 0x2EE0, symBinAddr: 0x122B0, symSize: 0x30 }
  - { offset: 0xF9330, size: 0x8, addend: 0x0, symName: _alDebugMessageInsertDirectEXT, symObjAddr: 0xCE0, symBinAddr: 0x103E0, symSize: 0x20 }
  - { offset: 0xF93BA, size: 0x8, addend: 0x0, symName: _alDebugMessageInsertDirectEXT, symObjAddr: 0xCE0, symBinAddr: 0x103E0, symSize: 0x20 }
  - { offset: 0xF93D8, size: 0x8, addend: 0x0, symName: _alDebugMessageInsertDirectEXT, symObjAddr: 0xCE0, symBinAddr: 0x103E0, symSize: 0x20 }
  - { offset: 0xF93EC, size: 0x8, addend: 0x0, symName: _alDebugMessageInsertDirectEXT, symObjAddr: 0xCE0, symBinAddr: 0x103E0, symSize: 0x20 }
  - { offset: 0xF9409, size: 0x8, addend: 0x0, symName: _alDebugMessageInsertDirectEXT, symObjAddr: 0xCE0, symBinAddr: 0x103E0, symSize: 0x20 }
  - { offset: 0xF9444, size: 0x8, addend: 0x0, symName: _alDebugMessageControlEXT, symObjAddr: 0xD00, symBinAddr: 0xC6160, symSize: 0x90 }
  - { offset: 0xF9E4D, size: 0x8, addend: 0x0, symName: __ZNSt3__16vectorIyNS_9allocatorIyEEE6insertENS_11__wrap_iterIPKyEERS5_, symObjAddr: 0x2FB0, symBinAddr: 0x12300, symSize: 0x260 }
  - { offset: 0xFA811, size: 0x8, addend: 0x0, symName: __ZNSt3__16vectorIjNS_9allocatorIjEEE6insertENS_11__wrap_iterIPKjEERS5_, symObjAddr: 0x32E0, symBinAddr: 0x12570, symSize: 0x260 }
  - { offset: 0xFB1ED, size: 0x8, addend: 0x0, symName: __ZN2al7Context11throw_errorIJRcEEEviN3fmt10alsoft_v117fstringIJDpT_EE1tEDpOS6_, symObjAddr: 0x2F90, symBinAddr: 0x122E0, symSize: 0x20 }
  - { offset: 0xFB26B, size: 0x8, addend: 0x0, symName: _alDebugMessageControlDirectEXT, symObjAddr: 0x1360, symBinAddr: 0x109D0, symSize: 0x20 }
  - { offset: 0xFB2F5, size: 0x8, addend: 0x0, symName: _alDebugMessageControlDirectEXT, symObjAddr: 0x1360, symBinAddr: 0x109D0, symSize: 0x20 }
  - { offset: 0xFB313, size: 0x8, addend: 0x0, symName: _alDebugMessageControlDirectEXT, symObjAddr: 0x1360, symBinAddr: 0x109D0, symSize: 0x20 }
  - { offset: 0xFB327, size: 0x8, addend: 0x0, symName: _alDebugMessageControlDirectEXT, symObjAddr: 0x1360, symBinAddr: 0x109D0, symSize: 0x20 }
  - { offset: 0xFB344, size: 0x8, addend: 0x0, symName: _alDebugMessageControlDirectEXT, symObjAddr: 0x1360, symBinAddr: 0x109D0, symSize: 0x20 }
  - { offset: 0xFB37F, size: 0x8, addend: 0x0, symName: _alPushDebugGroupEXT, symObjAddr: 0x1380, symBinAddr: 0xC61F0, symSize: 0x80 }
  - { offset: 0xFB8E7, size: 0x8, addend: 0x0, symName: __ZN2al7Context11throw_errorIJRiRKtEEEviN3fmt10alsoft_v117fstringIJDpT_EE1tEDpOS8_, symObjAddr: 0x3580, symBinAddr: 0x127E0, symSize: 0x30 }
  - { offset: 0xFB9F9, size: 0x8, addend: 0x0, symName: __ZNSt3__16vectorI10DebugGroupNS_9allocatorIS1_EEE24__emplace_back_slow_pathIJRK11DebugSourceRjNS_17basic_string_viewIcNS_11char_traitsIcEEEEEEEPS1_DpOT_, symObjAddr: 0x35B0, symBinAddr: 0x12810, symSize: 0x2D0 }
  - { offset: 0xFC3F9, size: 0x8, addend: 0x0, symName: __ZNSt3__16vectorIjNS_9allocatorIjEEE18__assign_with_sizeB8fe200100IPjS5_EEvT_T0_l, symObjAddr: 0x3950, symBinAddr: 0x12BA0, symSize: 0x140 }
  - { offset: 0xFCE6D, size: 0x8, addend: 0x0, symName: __ZNSt3__16vectorIyNS_9allocatorIyEEE18__assign_with_sizeB8fe200100IPyS5_EEvT_T0_l, symObjAddr: 0x3A90, symBinAddr: 0x12CE0, symSize: 0x140 }
  - { offset: 0xFD8C4, size: 0x8, addend: 0x0, symName: __ZNSt3__15dequeI13DebugLogEntryNS_9allocatorIS1_EEE19__add_back_capacityEv, symObjAddr: 0x3BD0, symBinAddr: 0x12E20, symSize: 0x280 }
  - { offset: 0xFD9BA, size: 0x8, addend: 0x0, symName: _alPushDebugGroupDirectEXT, symObjAddr: 0x17A0, symBinAddr: 0x10D90, symSize: 0x20 }
  - { offset: 0xFDA24, size: 0x8, addend: 0x0, symName: _alPushDebugGroupDirectEXT, symObjAddr: 0x17A0, symBinAddr: 0x10D90, symSize: 0x20 }
  - { offset: 0xFDA42, size: 0x8, addend: 0x0, symName: _alPushDebugGroupDirectEXT, symObjAddr: 0x17A0, symBinAddr: 0x10D90, symSize: 0x20 }
  - { offset: 0xFDA56, size: 0x8, addend: 0x0, symName: _alPushDebugGroupDirectEXT, symObjAddr: 0x17A0, symBinAddr: 0x10D90, symSize: 0x20 }
  - { offset: 0xFDA73, size: 0x8, addend: 0x0, symName: _alPushDebugGroupDirectEXT, symObjAddr: 0x17A0, symBinAddr: 0x10D90, symSize: 0x20 }
  - { offset: 0xFDAAE, size: 0x8, addend: 0x0, symName: _alPopDebugGroupEXT, symObjAddr: 0x17C0, symBinAddr: 0xC6270, symSize: 0x50 }
  - { offset: 0xFDC9E, size: 0x8, addend: 0x0, symName: __ZN10DebugGroupD1Ev, symObjAddr: 0x38F0, symBinAddr: 0x12B40, symSize: 0x10 }
  - { offset: 0xFDCDD, size: 0x8, addend: 0x0, symName: _alPopDebugGroupDirectEXT, symObjAddr: 0x19F0, symBinAddr: 0x10F90, symSize: 0x20 }
  - { offset: 0xFDD07, size: 0x8, addend: 0x0, symName: _alPopDebugGroupDirectEXT, symObjAddr: 0x19F0, symBinAddr: 0x10F90, symSize: 0x20 }
  - { offset: 0xFDD25, size: 0x8, addend: 0x0, symName: _alPopDebugGroupDirectEXT, symObjAddr: 0x19F0, symBinAddr: 0x10F90, symSize: 0x20 }
  - { offset: 0xFDD39, size: 0x8, addend: 0x0, symName: _alPopDebugGroupDirectEXT, symObjAddr: 0x19F0, symBinAddr: 0x10F90, symSize: 0x20 }
  - { offset: 0xFDD56, size: 0x8, addend: 0x0, symName: _alPopDebugGroupDirectEXT, symObjAddr: 0x19F0, symBinAddr: 0x10F90, symSize: 0x20 }
  - { offset: 0xFDD91, size: 0x8, addend: 0x0, symName: _alGetDebugMessageLogEXT, symObjAddr: 0x1A10, symBinAddr: 0xC62C0, symSize: 0xA0 }
  - { offset: 0xFEFEA, size: 0x8, addend: 0x0, symName: _alGetDebugMessageLogDirectEXT, symObjAddr: 0x2360, symBinAddr: 0x11860, symSize: 0x20 }
  - { offset: 0xFF098, size: 0x8, addend: 0x0, symName: _alGetDebugMessageLogDirectEXT, symObjAddr: 0x2360, symBinAddr: 0x11860, symSize: 0x20 }
  - { offset: 0xFF0B6, size: 0x8, addend: 0x0, symName: _alGetDebugMessageLogDirectEXT, symObjAddr: 0x2360, symBinAddr: 0x11860, symSize: 0x20 }
  - { offset: 0xFF0CA, size: 0x8, addend: 0x0, symName: _alGetDebugMessageLogDirectEXT, symObjAddr: 0x2360, symBinAddr: 0x11860, symSize: 0x20 }
  - { offset: 0xFF0E7, size: 0x8, addend: 0x0, symName: _alGetDebugMessageLogDirectEXT, symObjAddr: 0x2360, symBinAddr: 0x11860, symSize: 0x20 }
  - { offset: 0xFF122, size: 0x8, addend: 0x0, symName: _alObjectLabelEXT, symObjAddr: 0x2380, symBinAddr: 0xC6360, symSize: 0x80 }
  - { offset: 0xFF27A, size: 0x8, addend: 0x0, symName: _alObjectLabelDirectEXT, symObjAddr: 0x25C0, symBinAddr: 0x11A40, symSize: 0x20 }
  - { offset: 0xFF2E4, size: 0x8, addend: 0x0, symName: _alObjectLabelDirectEXT, symObjAddr: 0x25C0, symBinAddr: 0x11A40, symSize: 0x20 }
  - { offset: 0xFF302, size: 0x8, addend: 0x0, symName: _alObjectLabelDirectEXT, symObjAddr: 0x25C0, symBinAddr: 0x11A40, symSize: 0x20 }
  - { offset: 0xFF316, size: 0x8, addend: 0x0, symName: _alObjectLabelDirectEXT, symObjAddr: 0x25C0, symBinAddr: 0x11A40, symSize: 0x20 }
  - { offset: 0xFF333, size: 0x8, addend: 0x0, symName: _alObjectLabelDirectEXT, symObjAddr: 0x25C0, symBinAddr: 0x11A40, symSize: 0x20 }
  - { offset: 0xFF36E, size: 0x8, addend: 0x0, symName: _alGetObjectLabelEXT, symObjAddr: 0x25E0, symBinAddr: 0xC63E0, symSize: 0x80 }
  - { offset: 0xFF95B, size: 0x8, addend: 0x0, symName: _alGetObjectLabelDirectEXT, symObjAddr: 0x2E90, symBinAddr: 0x12290, symSize: 0x20 }
  - { offset: 0xFF9D5, size: 0x8, addend: 0x0, symName: _alGetObjectLabelDirectEXT, symObjAddr: 0x2E90, symBinAddr: 0x12290, symSize: 0x20 }
  - { offset: 0xFF9F3, size: 0x8, addend: 0x0, symName: _alGetObjectLabelDirectEXT, symObjAddr: 0x2E90, symBinAddr: 0x12290, symSize: 0x20 }
  - { offset: 0xFFA07, size: 0x8, addend: 0x0, symName: _alGetObjectLabelDirectEXT, symObjAddr: 0x2E90, symBinAddr: 0x12290, symSize: 0x20 }
  - { offset: 0xFFA24, size: 0x8, addend: 0x0, symName: _alGetObjectLabelDirectEXT, symObjAddr: 0x2E90, symBinAddr: 0x12290, symSize: 0x20 }
  - { offset: 0x10005F, size: 0x8, addend: 0x0, symName: __ZNSt3__16vectorIyNS_9allocatorIyEEE20__throw_length_errorB8fe200100Ev, symObjAddr: 0x3210, symBinAddr: 0x12560, symSize: 0x10 }
  - { offset: 0x10057B, size: 0x8, addend: 0x0, symName: __ZNSt3__16vectorIjNS_9allocatorIjEEE20__throw_length_errorB8fe200100Ev, symObjAddr: 0x3540, symBinAddr: 0x127D0, symSize: 0x10 }
  - { offset: 0x100891, size: 0x8, addend: 0x0, symName: __ZNSt3__16vectorI10DebugGroupNS_9allocatorIS1_EEE20__throw_length_errorB8fe200100Ev, symObjAddr: 0x38E0, symBinAddr: 0x12B30, symSize: 0x10 }
  - { offset: 0x1008A9, size: 0x8, addend: 0x0, symName: __ZN10DebugGroupD1Ev, symObjAddr: 0x38F0, symBinAddr: 0x12B40, symSize: 0x10 }
  - { offset: 0x1008B4, size: 0x8, addend: 0x0, symName: __ZNSt3__114__split_bufferI10DebugGroupRNS_9allocatorIS1_EEED1Ev, symObjAddr: 0x3890, symBinAddr: 0x12AE0, symSize: 0x50 }
  - { offset: 0x100A79, size: 0x8, addend: 0x0, symName: __ZN10DebugGroupD2Ev, symObjAddr: 0x3900, symBinAddr: 0x12B50, symSize: 0x50 }
  - { offset: 0x10142E, size: 0x8, addend: 0x0, symName: __ZNSt3__114__split_bufferIP13DebugLogEntryNS_9allocatorIS2_EEE12emplace_backIJRS2_EEEvDpOT_, symObjAddr: 0x3E50, symBinAddr: 0x130A0, symSize: 0x1E0 }
  - { offset: 0x101C47, size: 0x8, addend: 0x0, symName: __ZNSt3__114__split_bufferIP13DebugLogEntryNS_9allocatorIS2_EEE13emplace_frontIJS2_EEEvDpOT_, symObjAddr: 0x4210, symBinAddr: 0x13280, symSize: 0x1D0 }
  - { offset: 0x102154, size: 0x8, addend: 0x0, symName: __ZNSt3__114__split_bufferIP13DebugLogEntryRNS_9allocatorIS2_EEE13emplace_frontIJRS2_EEEvDpOT_, symObjAddr: 0x43E0, symBinAddr: 0x13450, symSize: 0x1CE }
  - { offset: 0x104746, size: 0x8, addend: 0x0, symName: _gEffectList, symObjAddr: 0x5980, symBinAddr: 0x115970, symSize: 0x0 }
  - { offset: 0x11F854, size: 0x8, addend: 0x0, symName: __ZNSt3__120__throw_out_of_rangeB8fe200100EPKc, symObjAddr: 0x4260, symBinAddr: 0x16E10, symSize: 0x50 }
  - { offset: 0x12BFD4, size: 0x8, addend: 0x0, symName: _DisabledEffects, symObjAddr: 0x97F0, symBinAddr: 0x121000, symSize: 0x0 }
  - { offset: 0x12C05D, size: 0x8, addend: 0x0, symName: __ZL10reverblist, symObjAddr: 0x5F58, symBinAddr: 0x115F30, symSize: 0x0 }
  - { offset: 0x12C2AA, size: 0x8, addend: 0x0, symName: __ZN12_GLOBAL__N_19alEffectiEN3gsl8not_nullIPN2al7ContextEEEjii, symObjAddr: 0x8C0, symBinAddr: 0x13DA0, symSize: 0x400 }
  - { offset: 0x12CB3C, size: 0x8, addend: 0x0, symName: __ZN12_GLOBAL__N_110alEffectivEN3gsl8not_nullIPN2al7ContextEEEjiPKi, symObjAddr: 0xD50, symBinAddr: 0x141C0, symSize: 0x1A0 }
  - { offset: 0x12D2D4, size: 0x8, addend: 0x0, symName: __ZN12_GLOBAL__N_19alEffectfEN3gsl8not_nullIPN2al7ContextEEEjif, symObjAddr: 0xF80, symBinAddr: 0x14380, symSize: 0x170 }
  - { offset: 0x12DA32, size: 0x8, addend: 0x0, symName: __ZN12_GLOBAL__N_110alEffectfvEN3gsl8not_nullIPN2al7ContextEEEjiPKf, symObjAddr: 0x1180, symBinAddr: 0x14510, symSize: 0x170 }
  - { offset: 0x12E190, size: 0x8, addend: 0x0, symName: __ZN12_GLOBAL__N_112alGetEffectiEN3gsl8not_nullIPN2al7ContextEEEjiPi, symObjAddr: 0x1380, symBinAddr: 0x146A0, symSize: 0x180 }
  - { offset: 0x12E8EE, size: 0x8, addend: 0x0, symName: __ZN12_GLOBAL__N_113alGetEffectivEN3gsl8not_nullIPN2al7ContextEEEjiPi, symObjAddr: 0x1590, symBinAddr: 0x14840, symSize: 0x1A0 }
  - { offset: 0x12F086, size: 0x8, addend: 0x0, symName: __ZN12_GLOBAL__N_112alGetEffectfEN3gsl8not_nullIPN2al7ContextEEEjiPf, symObjAddr: 0x17C0, symBinAddr: 0x14A00, symSize: 0x170 }
  - { offset: 0x12F7E4, size: 0x8, addend: 0x0, symName: __ZN12_GLOBAL__N_113alGetEffectfvEN3gsl8not_nullIPN2al7ContextEEEjiPf, symObjAddr: 0x19C0, symBinAddr: 0x14B90, symSize: 0x170 }
  - { offset: 0x12FF42, size: 0x8, addend: 0x0, symName: __ZN12_GLOBAL__N_112alGenEffectsEN3gsl8not_nullIPN2al7ContextEEEiPj, symObjAddr: 0x60, symBinAddr: 0x13620, symSize: 0x3E0 }
  - { offset: 0x1306C5, size: 0x8, addend: 0x0, symName: __ZN12_GLOBAL__N_115alDeleteEffectsEN3gsl8not_nullIPN2al7ContextEEEiPKj, symObjAddr: 0x4D0, symBinAddr: 0x13A20, symSize: 0x230 }
  - { offset: 0x1310DF, size: 0x8, addend: 0x0, symName: _alGenEffects, symObjAddr: 0x0, symBinAddr: 0xC6460, symSize: 0x60 }
  - { offset: 0x131703, size: 0x8, addend: 0x0, symName: __ZNSt3__16vectorI13EffectSubListNS_9allocatorIS1_EEE24__emplace_back_slow_pathIJS1_EEEPS1_DpOT_, symObjAddr: 0x2210, symBinAddr: 0x152F0, symSize: 0x190 }
  - { offset: 0x131D43, size: 0x8, addend: 0x0, symName: __ZN12_GLOBAL__N_112alGenEffectsEN3gsl8not_nullIPN2al7ContextEEEiPj.cold.1, symObjAddr: 0x4BF0, symBinAddr: 0xC68A0, symSize: 0xF0 }
  - { offset: 0x1321F0, size: 0x8, addend: 0x0, symName: _alGenEffectsDirect, symObjAddr: 0x440, symBinAddr: 0x13A00, symSize: 0x20 }
  - { offset: 0x13223A, size: 0x8, addend: 0x0, symName: _alGenEffectsDirect, symObjAddr: 0x440, symBinAddr: 0x13A00, symSize: 0x20 }
  - { offset: 0x132258, size: 0x8, addend: 0x0, symName: _alGenEffectsDirect, symObjAddr: 0x440, symBinAddr: 0x13A00, symSize: 0x20 }
  - { offset: 0x13226C, size: 0x8, addend: 0x0, symName: _alGenEffectsDirect, symObjAddr: 0x440, symBinAddr: 0x13A00, symSize: 0x20 }
  - { offset: 0x132289, size: 0x8, addend: 0x0, symName: _alGenEffectsDirect, symObjAddr: 0x440, symBinAddr: 0x13A00, symSize: 0x20 }
  - { offset: 0x1322C4, size: 0x8, addend: 0x0, symName: _alDeleteEffects, symObjAddr: 0x470, symBinAddr: 0xC64C0, symSize: 0x60 }
  - { offset: 0x1329AA, size: 0x8, addend: 0x0, symName: _alDeleteEffectsDirect, symObjAddr: 0x700, symBinAddr: 0x13C50, symSize: 0x20 }
  - { offset: 0x1329F4, size: 0x8, addend: 0x0, symName: _alDeleteEffectsDirect, symObjAddr: 0x700, symBinAddr: 0x13C50, symSize: 0x20 }
  - { offset: 0x132A12, size: 0x8, addend: 0x0, symName: _alDeleteEffectsDirect, symObjAddr: 0x700, symBinAddr: 0x13C50, symSize: 0x20 }
  - { offset: 0x132A26, size: 0x8, addend: 0x0, symName: _alDeleteEffectsDirect, symObjAddr: 0x700, symBinAddr: 0x13C50, symSize: 0x20 }
  - { offset: 0x132A43, size: 0x8, addend: 0x0, symName: _alDeleteEffectsDirect, symObjAddr: 0x700, symBinAddr: 0x13C50, symSize: 0x20 }
  - { offset: 0x132A7E, size: 0x8, addend: 0x0, symName: _alIsEffect, symObjAddr: 0x720, symBinAddr: 0x13C70, symSize: 0xD0 }
  - { offset: 0x132D6A, size: 0x8, addend: 0x0, symName: _alIsEffectDirect, symObjAddr: 0x7F0, symBinAddr: 0x13D40, symSize: 0x60 }
  - { offset: 0x132F6F, size: 0x8, addend: 0x0, symName: _alIsEffectDirect.cold.1, symObjAddr: 0x4CE0, symBinAddr: 0xC6990, symSize: 0x58 }
  - { offset: 0x132F8A, size: 0x8, addend: 0x0, symName: _alIsEffectDirect.cold.1, symObjAddr: 0x4CE0, symBinAddr: 0xC6990, symSize: 0x58 }
  - { offset: 0x13302B, size: 0x8, addend: 0x0, symName: _alEffecti, symObjAddr: 0x850, symBinAddr: 0xC6520, symSize: 0x70 }
  - { offset: 0x1334DE, size: 0x8, addend: 0x0, symName: _alEffectiDirect, symObjAddr: 0xCC0, symBinAddr: 0x141A0, symSize: 0x20 }
  - { offset: 0x133538, size: 0x8, addend: 0x0, symName: _alEffectiDirect, symObjAddr: 0xCC0, symBinAddr: 0x141A0, symSize: 0x20 }
  - { offset: 0x133556, size: 0x8, addend: 0x0, symName: _alEffectiDirect, symObjAddr: 0xCC0, symBinAddr: 0x141A0, symSize: 0x20 }
  - { offset: 0x13356A, size: 0x8, addend: 0x0, symName: _alEffectiDirect, symObjAddr: 0xCC0, symBinAddr: 0x141A0, symSize: 0x20 }
  - { offset: 0x133587, size: 0x8, addend: 0x0, symName: _alEffectiDirect, symObjAddr: 0xCC0, symBinAddr: 0x141A0, symSize: 0x20 }
  - { offset: 0x1335C2, size: 0x8, addend: 0x0, symName: _alEffectiv, symObjAddr: 0xCE0, symBinAddr: 0xC6590, symSize: 0x70 }
  - { offset: 0x13386C, size: 0x8, addend: 0x0, symName: _alEffectivDirect, symObjAddr: 0xEF0, symBinAddr: 0x14360, symSize: 0x20 }
  - { offset: 0x1338C6, size: 0x8, addend: 0x0, symName: _alEffectivDirect, symObjAddr: 0xEF0, symBinAddr: 0x14360, symSize: 0x20 }
  - { offset: 0x1338E4, size: 0x8, addend: 0x0, symName: _alEffectivDirect, symObjAddr: 0xEF0, symBinAddr: 0x14360, symSize: 0x20 }
  - { offset: 0x1338F8, size: 0x8, addend: 0x0, symName: _alEffectivDirect, symObjAddr: 0xEF0, symBinAddr: 0x14360, symSize: 0x20 }
  - { offset: 0x133915, size: 0x8, addend: 0x0, symName: _alEffectivDirect, symObjAddr: 0xEF0, symBinAddr: 0x14360, symSize: 0x20 }
  - { offset: 0x133950, size: 0x8, addend: 0x0, symName: _alEffectf, symObjAddr: 0xF10, symBinAddr: 0xC6600, symSize: 0x70 }
  - { offset: 0x133BFC, size: 0x8, addend: 0x0, symName: _alEffectfDirect, symObjAddr: 0x10F0, symBinAddr: 0x144F0, symSize: 0x20 }
  - { offset: 0x133C56, size: 0x8, addend: 0x0, symName: _alEffectfDirect, symObjAddr: 0x10F0, symBinAddr: 0x144F0, symSize: 0x20 }
  - { offset: 0x133C74, size: 0x8, addend: 0x0, symName: _alEffectfDirect, symObjAddr: 0x10F0, symBinAddr: 0x144F0, symSize: 0x20 }
  - { offset: 0x133C88, size: 0x8, addend: 0x0, symName: _alEffectfDirect, symObjAddr: 0x10F0, symBinAddr: 0x144F0, symSize: 0x20 }
  - { offset: 0x133CA5, size: 0x8, addend: 0x0, symName: _alEffectfDirect, symObjAddr: 0x10F0, symBinAddr: 0x144F0, symSize: 0x20 }
  - { offset: 0x133CE0, size: 0x8, addend: 0x0, symName: _alEffectfv, symObjAddr: 0x1110, symBinAddr: 0xC6670, symSize: 0x70 }
  - { offset: 0x133F8A, size: 0x8, addend: 0x0, symName: _alEffectfvDirect, symObjAddr: 0x12F0, symBinAddr: 0x14680, symSize: 0x20 }
  - { offset: 0x133FE4, size: 0x8, addend: 0x0, symName: _alEffectfvDirect, symObjAddr: 0x12F0, symBinAddr: 0x14680, symSize: 0x20 }
  - { offset: 0x134002, size: 0x8, addend: 0x0, symName: _alEffectfvDirect, symObjAddr: 0x12F0, symBinAddr: 0x14680, symSize: 0x20 }
  - { offset: 0x134016, size: 0x8, addend: 0x0, symName: _alEffectfvDirect, symObjAddr: 0x12F0, symBinAddr: 0x14680, symSize: 0x20 }
  - { offset: 0x134033, size: 0x8, addend: 0x0, symName: _alEffectfvDirect, symObjAddr: 0x12F0, symBinAddr: 0x14680, symSize: 0x20 }
  - { offset: 0x13406E, size: 0x8, addend: 0x0, symName: _alGetEffecti, symObjAddr: 0x1310, symBinAddr: 0xC66E0, symSize: 0x70 }
  - { offset: 0x134318, size: 0x8, addend: 0x0, symName: _alGetEffectiDirect, symObjAddr: 0x1500, symBinAddr: 0x14820, symSize: 0x20 }
  - { offset: 0x134372, size: 0x8, addend: 0x0, symName: _alGetEffectiDirect, symObjAddr: 0x1500, symBinAddr: 0x14820, symSize: 0x20 }
  - { offset: 0x134390, size: 0x8, addend: 0x0, symName: _alGetEffectiDirect, symObjAddr: 0x1500, symBinAddr: 0x14820, symSize: 0x20 }
  - { offset: 0x1343A4, size: 0x8, addend: 0x0, symName: _alGetEffectiDirect, symObjAddr: 0x1500, symBinAddr: 0x14820, symSize: 0x20 }
  - { offset: 0x1343C1, size: 0x8, addend: 0x0, symName: _alGetEffectiDirect, symObjAddr: 0x1500, symBinAddr: 0x14820, symSize: 0x20 }
  - { offset: 0x1343FC, size: 0x8, addend: 0x0, symName: _alGetEffectiv, symObjAddr: 0x1520, symBinAddr: 0xC6750, symSize: 0x70 }
  - { offset: 0x1346A6, size: 0x8, addend: 0x0, symName: _alGetEffectivDirect, symObjAddr: 0x1730, symBinAddr: 0x149E0, symSize: 0x20 }
  - { offset: 0x134700, size: 0x8, addend: 0x0, symName: _alGetEffectivDirect, symObjAddr: 0x1730, symBinAddr: 0x149E0, symSize: 0x20 }
  - { offset: 0x13471E, size: 0x8, addend: 0x0, symName: _alGetEffectivDirect, symObjAddr: 0x1730, symBinAddr: 0x149E0, symSize: 0x20 }
  - { offset: 0x134732, size: 0x8, addend: 0x0, symName: _alGetEffectivDirect, symObjAddr: 0x1730, symBinAddr: 0x149E0, symSize: 0x20 }
  - { offset: 0x13474F, size: 0x8, addend: 0x0, symName: _alGetEffectivDirect, symObjAddr: 0x1730, symBinAddr: 0x149E0, symSize: 0x20 }
  - { offset: 0x13478A, size: 0x8, addend: 0x0, symName: _alGetEffectf, symObjAddr: 0x1750, symBinAddr: 0xC67C0, symSize: 0x70 }
  - { offset: 0x134A34, size: 0x8, addend: 0x0, symName: _alGetEffectfDirect, symObjAddr: 0x1930, symBinAddr: 0x14B70, symSize: 0x20 }
  - { offset: 0x134A8E, size: 0x8, addend: 0x0, symName: _alGetEffectfDirect, symObjAddr: 0x1930, symBinAddr: 0x14B70, symSize: 0x20 }
  - { offset: 0x134AAC, size: 0x8, addend: 0x0, symName: _alGetEffectfDirect, symObjAddr: 0x1930, symBinAddr: 0x14B70, symSize: 0x20 }
  - { offset: 0x134AC0, size: 0x8, addend: 0x0, symName: _alGetEffectfDirect, symObjAddr: 0x1930, symBinAddr: 0x14B70, symSize: 0x20 }
  - { offset: 0x134ADD, size: 0x8, addend: 0x0, symName: _alGetEffectfDirect, symObjAddr: 0x1930, symBinAddr: 0x14B70, symSize: 0x20 }
  - { offset: 0x134B18, size: 0x8, addend: 0x0, symName: _alGetEffectfv, symObjAddr: 0x1950, symBinAddr: 0xC6830, symSize: 0x70 }
  - { offset: 0x134DC2, size: 0x8, addend: 0x0, symName: _alGetEffectfvDirect, symObjAddr: 0x1B30, symBinAddr: 0x14D00, symSize: 0x20 }
  - { offset: 0x134E1C, size: 0x8, addend: 0x0, symName: _alGetEffectfvDirect, symObjAddr: 0x1B30, symBinAddr: 0x14D00, symSize: 0x20 }
  - { offset: 0x134E3A, size: 0x8, addend: 0x0, symName: _alGetEffectfvDirect, symObjAddr: 0x1B30, symBinAddr: 0x14D00, symSize: 0x20 }
  - { offset: 0x134E4E, size: 0x8, addend: 0x0, symName: _alGetEffectfvDirect, symObjAddr: 0x1B30, symBinAddr: 0x14D00, symSize: 0x20 }
  - { offset: 0x134E6B, size: 0x8, addend: 0x0, symName: _alGetEffectfvDirect, symObjAddr: 0x1B30, symBinAddr: 0x14D00, symSize: 0x20 }
  - { offset: 0x134EA5, size: 0x8, addend: 0x0, symName: __Z10InitEffectPN2al6EffectE, symObjAddr: 0x1B50, symBinAddr: 0x14D20, symSize: 0x60 }
  - { offset: 0x134FED, size: 0x8, addend: 0x0, symName: __ZN2al6Effect7SetNameEN3gsl8not_nullIPNS_7ContextEEEjNSt3__117basic_string_viewIcNS6_11char_traitsIcEEEE, symObjAddr: 0x1BB0, symBinAddr: 0x14D80, symSize: 0x100 }
  - { offset: 0x135AC7, size: 0x8, addend: 0x0, symName: __ZN13EffectSubListD2Ev, symObjAddr: 0x1CB0, symBinAddr: 0x14E80, symSize: 0x40 }
  - { offset: 0x135AE7, size: 0x8, addend: 0x0, symName: __ZN13EffectSubListD2Ev, symObjAddr: 0x1CB0, symBinAddr: 0x14E80, symSize: 0x40 }
  - { offset: 0x135CA8, size: 0x8, addend: 0x0, symName: __Z16LoadReverbPresetNSt3__117basic_string_viewIcNS_11char_traitsIcEEEEPN2al6EffectE, symObjAddr: 0x1D30, symBinAddr: 0x14EC0, symSize: 0x3B0 }
  - { offset: 0x136480, size: 0x8, addend: 0x0, symName: __Z17IsValidEffectTypei, symObjAddr: 0x20E0, symBinAddr: 0x15270, symSize: 0x80 }
  - { offset: 0x1368DD, size: 0x8, addend: 0x0, symName: __ZNSt3__16vectorI13EffectSubListNS_9allocatorIS1_EEE20__throw_length_errorB8fe200100Ev, symObjAddr: 0x23A0, symBinAddr: 0x15480, symSize: 0x10 }
  - { offset: 0x137240, size: 0x8, addend: 0x0, symName: '__ZNSt3__116__variant_detail12__visitation6__base12__dispatcherIJLm0EEE10__dispatchB8fe200100IONS1_9__variant15__value_visitorIZN12_GLOBAL__N_19alEffectiEN3gsl8not_nullIPN2al7ContextEEEjiiE3$_1EEJRNS0_6__baseILNS0_6_TraitE0EJ17NullEffectHandler19ReverbEffectHandler22StdReverbEffectHandler20AutowahEffectHandler19ChorusEffectHandler23CompressorEffectHandler23DistortionEffectHandler17EchoEffectHandler22EqualizerEffectHandler20FlangerEffectHandler21FshifterEffectHandler22ModulatorEffectHandler21PshifterEffectHandler21VmorpherEffectHandler28DedicatedDialogEffectHandler25DedicatedLfeEffectHandler24ConvolutionEffectHandlerEEEEEEDcT_DpT0_', symObjAddr: 0x28C0, symBinAddr: 0x15490, symSize: 0x30 }
  - { offset: 0x137274, size: 0x8, addend: 0x0, symName: '__ZNSt3__116__variant_detail12__visitation6__base12__dispatcherIJLm0EEE10__dispatchB8fe200100IONS1_9__variant15__value_visitorIZN12_GLOBAL__N_19alEffectiEN3gsl8not_nullIPN2al7ContextEEEjiiE3$_1EEJRNS0_6__baseILNS0_6_TraitE0EJ17NullEffectHandler19ReverbEffectHandler22StdReverbEffectHandler20AutowahEffectHandler19ChorusEffectHandler23CompressorEffectHandler23DistortionEffectHandler17EchoEffectHandler22EqualizerEffectHandler20FlangerEffectHandler21FshifterEffectHandler22ModulatorEffectHandler21PshifterEffectHandler21VmorpherEffectHandler28DedicatedDialogEffectHandler25DedicatedLfeEffectHandler24ConvolutionEffectHandlerEEEEEEDcT_DpT0_', symObjAddr: 0x28C0, symBinAddr: 0x15490, symSize: 0x30 }
  - { offset: 0x137292, size: 0x8, addend: 0x0, symName: '__ZNSt3__116__variant_detail12__visitation6__base12__dispatcherIJLm0EEE10__dispatchB8fe200100IONS1_9__variant15__value_visitorIZN12_GLOBAL__N_19alEffectiEN3gsl8not_nullIPN2al7ContextEEEjiiE3$_1EEJRNS0_6__baseILNS0_6_TraitE0EJ17NullEffectHandler19ReverbEffectHandler22StdReverbEffectHandler20AutowahEffectHandler19ChorusEffectHandler23CompressorEffectHandler23DistortionEffectHandler17EchoEffectHandler22EqualizerEffectHandler20FlangerEffectHandler21FshifterEffectHandler22ModulatorEffectHandler21PshifterEffectHandler21VmorpherEffectHandler28DedicatedDialogEffectHandler25DedicatedLfeEffectHandler24ConvolutionEffectHandlerEEEEEEDcT_DpT0_', symObjAddr: 0x28C0, symBinAddr: 0x15490, symSize: 0x30 }
  - { offset: 0x13744E, size: 0x8, addend: 0x0, symName: '__ZNSt3__116__variant_detail12__visitation6__base12__dispatcherIJLm1EEE10__dispatchB8fe200100IONS1_9__variant15__value_visitorIZN12_GLOBAL__N_19alEffectiEN3gsl8not_nullIPN2al7ContextEEEjiiE3$_1EEJRNS0_6__baseILNS0_6_TraitE0EJ17NullEffectHandler19ReverbEffectHandler22StdReverbEffectHandler20AutowahEffectHandler19ChorusEffectHandler23CompressorEffectHandler23DistortionEffectHandler17EchoEffectHandler22EqualizerEffectHandler20FlangerEffectHandler21FshifterEffectHandler22ModulatorEffectHandler21PshifterEffectHandler21VmorpherEffectHandler28DedicatedDialogEffectHandler25DedicatedLfeEffectHandler24ConvolutionEffectHandlerEEEEEEDcT_DpT0_', symObjAddr: 0x28F0, symBinAddr: 0x154C0, symSize: 0x30 }
  - { offset: 0x137482, size: 0x8, addend: 0x0, symName: '__ZNSt3__116__variant_detail12__visitation6__base12__dispatcherIJLm1EEE10__dispatchB8fe200100IONS1_9__variant15__value_visitorIZN12_GLOBAL__N_19alEffectiEN3gsl8not_nullIPN2al7ContextEEEjiiE3$_1EEJRNS0_6__baseILNS0_6_TraitE0EJ17NullEffectHandler19ReverbEffectHandler22StdReverbEffectHandler20AutowahEffectHandler19ChorusEffectHandler23CompressorEffectHandler23DistortionEffectHandler17EchoEffectHandler22EqualizerEffectHandler20FlangerEffectHandler21FshifterEffectHandler22ModulatorEffectHandler21PshifterEffectHandler21VmorpherEffectHandler28DedicatedDialogEffectHandler25DedicatedLfeEffectHandler24ConvolutionEffectHandlerEEEEEEDcT_DpT0_', symObjAddr: 0x28F0, symBinAddr: 0x154C0, symSize: 0x30 }
  - { offset: 0x1374A0, size: 0x8, addend: 0x0, symName: '__ZNSt3__116__variant_detail12__visitation6__base12__dispatcherIJLm1EEE10__dispatchB8fe200100IONS1_9__variant15__value_visitorIZN12_GLOBAL__N_19alEffectiEN3gsl8not_nullIPN2al7ContextEEEjiiE3$_1EEJRNS0_6__baseILNS0_6_TraitE0EJ17NullEffectHandler19ReverbEffectHandler22StdReverbEffectHandler20AutowahEffectHandler19ChorusEffectHandler23CompressorEffectHandler23DistortionEffectHandler17EchoEffectHandler22EqualizerEffectHandler20FlangerEffectHandler21FshifterEffectHandler22ModulatorEffectHandler21PshifterEffectHandler21VmorpherEffectHandler28DedicatedDialogEffectHandler25DedicatedLfeEffectHandler24ConvolutionEffectHandlerEEEEEEDcT_DpT0_', symObjAddr: 0x28F0, symBinAddr: 0x154C0, symSize: 0x30 }
  - { offset: 0x13765C, size: 0x8, addend: 0x0, symName: '__ZNSt3__116__variant_detail12__visitation6__base12__dispatcherIJLm2EEE10__dispatchB8fe200100IONS1_9__variant15__value_visitorIZN12_GLOBAL__N_19alEffectiEN3gsl8not_nullIPN2al7ContextEEEjiiE3$_1EEJRNS0_6__baseILNS0_6_TraitE0EJ17NullEffectHandler19ReverbEffectHandler22StdReverbEffectHandler20AutowahEffectHandler19ChorusEffectHandler23CompressorEffectHandler23DistortionEffectHandler17EchoEffectHandler22EqualizerEffectHandler20FlangerEffectHandler21FshifterEffectHandler22ModulatorEffectHandler21PshifterEffectHandler21VmorpherEffectHandler28DedicatedDialogEffectHandler25DedicatedLfeEffectHandler24ConvolutionEffectHandlerEEEEEEDcT_DpT0_', symObjAddr: 0x2920, symBinAddr: 0x154F0, symSize: 0x30 }
  - { offset: 0x137690, size: 0x8, addend: 0x0, symName: '__ZNSt3__116__variant_detail12__visitation6__base12__dispatcherIJLm2EEE10__dispatchB8fe200100IONS1_9__variant15__value_visitorIZN12_GLOBAL__N_19alEffectiEN3gsl8not_nullIPN2al7ContextEEEjiiE3$_1EEJRNS0_6__baseILNS0_6_TraitE0EJ17NullEffectHandler19ReverbEffectHandler22StdReverbEffectHandler20AutowahEffectHandler19ChorusEffectHandler23CompressorEffectHandler23DistortionEffectHandler17EchoEffectHandler22EqualizerEffectHandler20FlangerEffectHandler21FshifterEffectHandler22ModulatorEffectHandler21PshifterEffectHandler21VmorpherEffectHandler28DedicatedDialogEffectHandler25DedicatedLfeEffectHandler24ConvolutionEffectHandlerEEEEEEDcT_DpT0_', symObjAddr: 0x2920, symBinAddr: 0x154F0, symSize: 0x30 }
  - { offset: 0x1376AE, size: 0x8, addend: 0x0, symName: '__ZNSt3__116__variant_detail12__visitation6__base12__dispatcherIJLm2EEE10__dispatchB8fe200100IONS1_9__variant15__value_visitorIZN12_GLOBAL__N_19alEffectiEN3gsl8not_nullIPN2al7ContextEEEjiiE3$_1EEJRNS0_6__baseILNS0_6_TraitE0EJ17NullEffectHandler19ReverbEffectHandler22StdReverbEffectHandler20AutowahEffectHandler19ChorusEffectHandler23CompressorEffectHandler23DistortionEffectHandler17EchoEffectHandler22EqualizerEffectHandler20FlangerEffectHandler21FshifterEffectHandler22ModulatorEffectHandler21PshifterEffectHandler21VmorpherEffectHandler28DedicatedDialogEffectHandler25DedicatedLfeEffectHandler24ConvolutionEffectHandlerEEEEEEDcT_DpT0_', symObjAddr: 0x2920, symBinAddr: 0x154F0, symSize: 0x30 }
  - { offset: 0x137876, size: 0x8, addend: 0x0, symName: '__ZNSt3__116__variant_detail12__visitation6__base12__dispatcherIJLm3EEE10__dispatchB8fe200100IONS1_9__variant15__value_visitorIZN12_GLOBAL__N_19alEffectiEN3gsl8not_nullIPN2al7ContextEEEjiiE3$_1EEJRNS0_6__baseILNS0_6_TraitE0EJ17NullEffectHandler19ReverbEffectHandler22StdReverbEffectHandler20AutowahEffectHandler19ChorusEffectHandler23CompressorEffectHandler23DistortionEffectHandler17EchoEffectHandler22EqualizerEffectHandler20FlangerEffectHandler21FshifterEffectHandler22ModulatorEffectHandler21PshifterEffectHandler21VmorpherEffectHandler28DedicatedDialogEffectHandler25DedicatedLfeEffectHandler24ConvolutionEffectHandlerEEEEEEDcT_DpT0_', symObjAddr: 0x2950, symBinAddr: 0x15520, symSize: 0x30 }
  - { offset: 0x1378AA, size: 0x8, addend: 0x0, symName: '__ZNSt3__116__variant_detail12__visitation6__base12__dispatcherIJLm3EEE10__dispatchB8fe200100IONS1_9__variant15__value_visitorIZN12_GLOBAL__N_19alEffectiEN3gsl8not_nullIPN2al7ContextEEEjiiE3$_1EEJRNS0_6__baseILNS0_6_TraitE0EJ17NullEffectHandler19ReverbEffectHandler22StdReverbEffectHandler20AutowahEffectHandler19ChorusEffectHandler23CompressorEffectHandler23DistortionEffectHandler17EchoEffectHandler22EqualizerEffectHandler20FlangerEffectHandler21FshifterEffectHandler22ModulatorEffectHandler21PshifterEffectHandler21VmorpherEffectHandler28DedicatedDialogEffectHandler25DedicatedLfeEffectHandler24ConvolutionEffectHandlerEEEEEEDcT_DpT0_', symObjAddr: 0x2950, symBinAddr: 0x15520, symSize: 0x30 }
  - { offset: 0x1378C8, size: 0x8, addend: 0x0, symName: '__ZNSt3__116__variant_detail12__visitation6__base12__dispatcherIJLm3EEE10__dispatchB8fe200100IONS1_9__variant15__value_visitorIZN12_GLOBAL__N_19alEffectiEN3gsl8not_nullIPN2al7ContextEEEjiiE3$_1EEJRNS0_6__baseILNS0_6_TraitE0EJ17NullEffectHandler19ReverbEffectHandler22StdReverbEffectHandler20AutowahEffectHandler19ChorusEffectHandler23CompressorEffectHandler23DistortionEffectHandler17EchoEffectHandler22EqualizerEffectHandler20FlangerEffectHandler21FshifterEffectHandler22ModulatorEffectHandler21PshifterEffectHandler21VmorpherEffectHandler28DedicatedDialogEffectHandler25DedicatedLfeEffectHandler24ConvolutionEffectHandlerEEEEEEDcT_DpT0_', symObjAddr: 0x2950, symBinAddr: 0x15520, symSize: 0x30 }
  - { offset: 0x137A90, size: 0x8, addend: 0x0, symName: '__ZNSt3__116__variant_detail12__visitation6__base12__dispatcherIJLm4EEE10__dispatchB8fe200100IONS1_9__variant15__value_visitorIZN12_GLOBAL__N_19alEffectiEN3gsl8not_nullIPN2al7ContextEEEjiiE3$_1EEJRNS0_6__baseILNS0_6_TraitE0EJ17NullEffectHandler19ReverbEffectHandler22StdReverbEffectHandler20AutowahEffectHandler19ChorusEffectHandler23CompressorEffectHandler23DistortionEffectHandler17EchoEffectHandler22EqualizerEffectHandler20FlangerEffectHandler21FshifterEffectHandler22ModulatorEffectHandler21PshifterEffectHandler21VmorpherEffectHandler28DedicatedDialogEffectHandler25DedicatedLfeEffectHandler24ConvolutionEffectHandlerEEEEEEDcT_DpT0_', symObjAddr: 0x2980, symBinAddr: 0x15550, symSize: 0x30 }
  - { offset: 0x137AC4, size: 0x8, addend: 0x0, symName: '__ZNSt3__116__variant_detail12__visitation6__base12__dispatcherIJLm4EEE10__dispatchB8fe200100IONS1_9__variant15__value_visitorIZN12_GLOBAL__N_19alEffectiEN3gsl8not_nullIPN2al7ContextEEEjiiE3$_1EEJRNS0_6__baseILNS0_6_TraitE0EJ17NullEffectHandler19ReverbEffectHandler22StdReverbEffectHandler20AutowahEffectHandler19ChorusEffectHandler23CompressorEffectHandler23DistortionEffectHandler17EchoEffectHandler22EqualizerEffectHandler20FlangerEffectHandler21FshifterEffectHandler22ModulatorEffectHandler21PshifterEffectHandler21VmorpherEffectHandler28DedicatedDialogEffectHandler25DedicatedLfeEffectHandler24ConvolutionEffectHandlerEEEEEEDcT_DpT0_', symObjAddr: 0x2980, symBinAddr: 0x15550, symSize: 0x30 }
  - { offset: 0x137AE2, size: 0x8, addend: 0x0, symName: '__ZNSt3__116__variant_detail12__visitation6__base12__dispatcherIJLm4EEE10__dispatchB8fe200100IONS1_9__variant15__value_visitorIZN12_GLOBAL__N_19alEffectiEN3gsl8not_nullIPN2al7ContextEEEjiiE3$_1EEJRNS0_6__baseILNS0_6_TraitE0EJ17NullEffectHandler19ReverbEffectHandler22StdReverbEffectHandler20AutowahEffectHandler19ChorusEffectHandler23CompressorEffectHandler23DistortionEffectHandler17EchoEffectHandler22EqualizerEffectHandler20FlangerEffectHandler21FshifterEffectHandler22ModulatorEffectHandler21PshifterEffectHandler21VmorpherEffectHandler28DedicatedDialogEffectHandler25DedicatedLfeEffectHandler24ConvolutionEffectHandlerEEEEEEDcT_DpT0_', symObjAddr: 0x2980, symBinAddr: 0x15550, symSize: 0x30 }
  - { offset: 0x137CAA, size: 0x8, addend: 0x0, symName: '__ZNSt3__116__variant_detail12__visitation6__base12__dispatcherIJLm5EEE10__dispatchB8fe200100IONS1_9__variant15__value_visitorIZN12_GLOBAL__N_19alEffectiEN3gsl8not_nullIPN2al7ContextEEEjiiE3$_1EEJRNS0_6__baseILNS0_6_TraitE0EJ17NullEffectHandler19ReverbEffectHandler22StdReverbEffectHandler20AutowahEffectHandler19ChorusEffectHandler23CompressorEffectHandler23DistortionEffectHandler17EchoEffectHandler22EqualizerEffectHandler20FlangerEffectHandler21FshifterEffectHandler22ModulatorEffectHandler21PshifterEffectHandler21VmorpherEffectHandler28DedicatedDialogEffectHandler25DedicatedLfeEffectHandler24ConvolutionEffectHandlerEEEEEEDcT_DpT0_', symObjAddr: 0x29B0, symBinAddr: 0x15580, symSize: 0x30 }
  - { offset: 0x137CDE, size: 0x8, addend: 0x0, symName: '__ZNSt3__116__variant_detail12__visitation6__base12__dispatcherIJLm5EEE10__dispatchB8fe200100IONS1_9__variant15__value_visitorIZN12_GLOBAL__N_19alEffectiEN3gsl8not_nullIPN2al7ContextEEEjiiE3$_1EEJRNS0_6__baseILNS0_6_TraitE0EJ17NullEffectHandler19ReverbEffectHandler22StdReverbEffectHandler20AutowahEffectHandler19ChorusEffectHandler23CompressorEffectHandler23DistortionEffectHandler17EchoEffectHandler22EqualizerEffectHandler20FlangerEffectHandler21FshifterEffectHandler22ModulatorEffectHandler21PshifterEffectHandler21VmorpherEffectHandler28DedicatedDialogEffectHandler25DedicatedLfeEffectHandler24ConvolutionEffectHandlerEEEEEEDcT_DpT0_', symObjAddr: 0x29B0, symBinAddr: 0x15580, symSize: 0x30 }
  - { offset: 0x137CFC, size: 0x8, addend: 0x0, symName: '__ZNSt3__116__variant_detail12__visitation6__base12__dispatcherIJLm5EEE10__dispatchB8fe200100IONS1_9__variant15__value_visitorIZN12_GLOBAL__N_19alEffectiEN3gsl8not_nullIPN2al7ContextEEEjiiE3$_1EEJRNS0_6__baseILNS0_6_TraitE0EJ17NullEffectHandler19ReverbEffectHandler22StdReverbEffectHandler20AutowahEffectHandler19ChorusEffectHandler23CompressorEffectHandler23DistortionEffectHandler17EchoEffectHandler22EqualizerEffectHandler20FlangerEffectHandler21FshifterEffectHandler22ModulatorEffectHandler21PshifterEffectHandler21VmorpherEffectHandler28DedicatedDialogEffectHandler25DedicatedLfeEffectHandler24ConvolutionEffectHandlerEEEEEEDcT_DpT0_', symObjAddr: 0x29B0, symBinAddr: 0x15580, symSize: 0x30 }
  - { offset: 0x137EC4, size: 0x8, addend: 0x0, symName: '__ZNSt3__116__variant_detail12__visitation6__base12__dispatcherIJLm6EEE10__dispatchB8fe200100IONS1_9__variant15__value_visitorIZN12_GLOBAL__N_19alEffectiEN3gsl8not_nullIPN2al7ContextEEEjiiE3$_1EEJRNS0_6__baseILNS0_6_TraitE0EJ17NullEffectHandler19ReverbEffectHandler22StdReverbEffectHandler20AutowahEffectHandler19ChorusEffectHandler23CompressorEffectHandler23DistortionEffectHandler17EchoEffectHandler22EqualizerEffectHandler20FlangerEffectHandler21FshifterEffectHandler22ModulatorEffectHandler21PshifterEffectHandler21VmorpherEffectHandler28DedicatedDialogEffectHandler25DedicatedLfeEffectHandler24ConvolutionEffectHandlerEEEEEEDcT_DpT0_', symObjAddr: 0x29E0, symBinAddr: 0x155B0, symSize: 0x30 }
  - { offset: 0x137EF8, size: 0x8, addend: 0x0, symName: '__ZNSt3__116__variant_detail12__visitation6__base12__dispatcherIJLm6EEE10__dispatchB8fe200100IONS1_9__variant15__value_visitorIZN12_GLOBAL__N_19alEffectiEN3gsl8not_nullIPN2al7ContextEEEjiiE3$_1EEJRNS0_6__baseILNS0_6_TraitE0EJ17NullEffectHandler19ReverbEffectHandler22StdReverbEffectHandler20AutowahEffectHandler19ChorusEffectHandler23CompressorEffectHandler23DistortionEffectHandler17EchoEffectHandler22EqualizerEffectHandler20FlangerEffectHandler21FshifterEffectHandler22ModulatorEffectHandler21PshifterEffectHandler21VmorpherEffectHandler28DedicatedDialogEffectHandler25DedicatedLfeEffectHandler24ConvolutionEffectHandlerEEEEEEDcT_DpT0_', symObjAddr: 0x29E0, symBinAddr: 0x155B0, symSize: 0x30 }
  - { offset: 0x137F16, size: 0x8, addend: 0x0, symName: '__ZNSt3__116__variant_detail12__visitation6__base12__dispatcherIJLm6EEE10__dispatchB8fe200100IONS1_9__variant15__value_visitorIZN12_GLOBAL__N_19alEffectiEN3gsl8not_nullIPN2al7ContextEEEjiiE3$_1EEJRNS0_6__baseILNS0_6_TraitE0EJ17NullEffectHandler19ReverbEffectHandler22StdReverbEffectHandler20AutowahEffectHandler19ChorusEffectHandler23CompressorEffectHandler23DistortionEffectHandler17EchoEffectHandler22EqualizerEffectHandler20FlangerEffectHandler21FshifterEffectHandler22ModulatorEffectHandler21PshifterEffectHandler21VmorpherEffectHandler28DedicatedDialogEffectHandler25DedicatedLfeEffectHandler24ConvolutionEffectHandlerEEEEEEDcT_DpT0_', symObjAddr: 0x29E0, symBinAddr: 0x155B0, symSize: 0x30 }
  - { offset: 0x1380DE, size: 0x8, addend: 0x0, symName: '__ZNSt3__116__variant_detail12__visitation6__base12__dispatcherIJLm7EEE10__dispatchB8fe200100IONS1_9__variant15__value_visitorIZN12_GLOBAL__N_19alEffectiEN3gsl8not_nullIPN2al7ContextEEEjiiE3$_1EEJRNS0_6__baseILNS0_6_TraitE0EJ17NullEffectHandler19ReverbEffectHandler22StdReverbEffectHandler20AutowahEffectHandler19ChorusEffectHandler23CompressorEffectHandler23DistortionEffectHandler17EchoEffectHandler22EqualizerEffectHandler20FlangerEffectHandler21FshifterEffectHandler22ModulatorEffectHandler21PshifterEffectHandler21VmorpherEffectHandler28DedicatedDialogEffectHandler25DedicatedLfeEffectHandler24ConvolutionEffectHandlerEEEEEEDcT_DpT0_', symObjAddr: 0x2A10, symBinAddr: 0x155E0, symSize: 0x30 }
  - { offset: 0x138112, size: 0x8, addend: 0x0, symName: '__ZNSt3__116__variant_detail12__visitation6__base12__dispatcherIJLm7EEE10__dispatchB8fe200100IONS1_9__variant15__value_visitorIZN12_GLOBAL__N_19alEffectiEN3gsl8not_nullIPN2al7ContextEEEjiiE3$_1EEJRNS0_6__baseILNS0_6_TraitE0EJ17NullEffectHandler19ReverbEffectHandler22StdReverbEffectHandler20AutowahEffectHandler19ChorusEffectHandler23CompressorEffectHandler23DistortionEffectHandler17EchoEffectHandler22EqualizerEffectHandler20FlangerEffectHandler21FshifterEffectHandler22ModulatorEffectHandler21PshifterEffectHandler21VmorpherEffectHandler28DedicatedDialogEffectHandler25DedicatedLfeEffectHandler24ConvolutionEffectHandlerEEEEEEDcT_DpT0_', symObjAddr: 0x2A10, symBinAddr: 0x155E0, symSize: 0x30 }
  - { offset: 0x138130, size: 0x8, addend: 0x0, symName: '__ZNSt3__116__variant_detail12__visitation6__base12__dispatcherIJLm7EEE10__dispatchB8fe200100IONS1_9__variant15__value_visitorIZN12_GLOBAL__N_19alEffectiEN3gsl8not_nullIPN2al7ContextEEEjiiE3$_1EEJRNS0_6__baseILNS0_6_TraitE0EJ17NullEffectHandler19ReverbEffectHandler22StdReverbEffectHandler20AutowahEffectHandler19ChorusEffectHandler23CompressorEffectHandler23DistortionEffectHandler17EchoEffectHandler22EqualizerEffectHandler20FlangerEffectHandler21FshifterEffectHandler22ModulatorEffectHandler21PshifterEffectHandler21VmorpherEffectHandler28DedicatedDialogEffectHandler25DedicatedLfeEffectHandler24ConvolutionEffectHandlerEEEEEEDcT_DpT0_', symObjAddr: 0x2A10, symBinAddr: 0x155E0, symSize: 0x30 }
  - { offset: 0x1382F8, size: 0x8, addend: 0x0, symName: '__ZNSt3__116__variant_detail12__visitation6__base12__dispatcherIJLm8EEE10__dispatchB8fe200100IONS1_9__variant15__value_visitorIZN12_GLOBAL__N_19alEffectiEN3gsl8not_nullIPN2al7ContextEEEjiiE3$_1EEJRNS0_6__baseILNS0_6_TraitE0EJ17NullEffectHandler19ReverbEffectHandler22StdReverbEffectHandler20AutowahEffectHandler19ChorusEffectHandler23CompressorEffectHandler23DistortionEffectHandler17EchoEffectHandler22EqualizerEffectHandler20FlangerEffectHandler21FshifterEffectHandler22ModulatorEffectHandler21PshifterEffectHandler21VmorpherEffectHandler28DedicatedDialogEffectHandler25DedicatedLfeEffectHandler24ConvolutionEffectHandlerEEEEEEDcT_DpT0_', symObjAddr: 0x2A40, symBinAddr: 0x15610, symSize: 0x30 }
  - { offset: 0x13832C, size: 0x8, addend: 0x0, symName: '__ZNSt3__116__variant_detail12__visitation6__base12__dispatcherIJLm8EEE10__dispatchB8fe200100IONS1_9__variant15__value_visitorIZN12_GLOBAL__N_19alEffectiEN3gsl8not_nullIPN2al7ContextEEEjiiE3$_1EEJRNS0_6__baseILNS0_6_TraitE0EJ17NullEffectHandler19ReverbEffectHandler22StdReverbEffectHandler20AutowahEffectHandler19ChorusEffectHandler23CompressorEffectHandler23DistortionEffectHandler17EchoEffectHandler22EqualizerEffectHandler20FlangerEffectHandler21FshifterEffectHandler22ModulatorEffectHandler21PshifterEffectHandler21VmorpherEffectHandler28DedicatedDialogEffectHandler25DedicatedLfeEffectHandler24ConvolutionEffectHandlerEEEEEEDcT_DpT0_', symObjAddr: 0x2A40, symBinAddr: 0x15610, symSize: 0x30 }
  - { offset: 0x13834A, size: 0x8, addend: 0x0, symName: '__ZNSt3__116__variant_detail12__visitation6__base12__dispatcherIJLm8EEE10__dispatchB8fe200100IONS1_9__variant15__value_visitorIZN12_GLOBAL__N_19alEffectiEN3gsl8not_nullIPN2al7ContextEEEjiiE3$_1EEJRNS0_6__baseILNS0_6_TraitE0EJ17NullEffectHandler19ReverbEffectHandler22StdReverbEffectHandler20AutowahEffectHandler19ChorusEffectHandler23CompressorEffectHandler23DistortionEffectHandler17EchoEffectHandler22EqualizerEffectHandler20FlangerEffectHandler21FshifterEffectHandler22ModulatorEffectHandler21PshifterEffectHandler21VmorpherEffectHandler28DedicatedDialogEffectHandler25DedicatedLfeEffectHandler24ConvolutionEffectHandlerEEEEEEDcT_DpT0_', symObjAddr: 0x2A40, symBinAddr: 0x15610, symSize: 0x30 }
  - { offset: 0x138506, size: 0x8, addend: 0x0, symName: '__ZNSt3__116__variant_detail12__visitation6__base12__dispatcherIJLm9EEE10__dispatchB8fe200100IONS1_9__variant15__value_visitorIZN12_GLOBAL__N_19alEffectiEN3gsl8not_nullIPN2al7ContextEEEjiiE3$_1EEJRNS0_6__baseILNS0_6_TraitE0EJ17NullEffectHandler19ReverbEffectHandler22StdReverbEffectHandler20AutowahEffectHandler19ChorusEffectHandler23CompressorEffectHandler23DistortionEffectHandler17EchoEffectHandler22EqualizerEffectHandler20FlangerEffectHandler21FshifterEffectHandler22ModulatorEffectHandler21PshifterEffectHandler21VmorpherEffectHandler28DedicatedDialogEffectHandler25DedicatedLfeEffectHandler24ConvolutionEffectHandlerEEEEEEDcT_DpT0_', symObjAddr: 0x2A70, symBinAddr: 0x15640, symSize: 0x30 }
  - { offset: 0x13853A, size: 0x8, addend: 0x0, symName: '__ZNSt3__116__variant_detail12__visitation6__base12__dispatcherIJLm9EEE10__dispatchB8fe200100IONS1_9__variant15__value_visitorIZN12_GLOBAL__N_19alEffectiEN3gsl8not_nullIPN2al7ContextEEEjiiE3$_1EEJRNS0_6__baseILNS0_6_TraitE0EJ17NullEffectHandler19ReverbEffectHandler22StdReverbEffectHandler20AutowahEffectHandler19ChorusEffectHandler23CompressorEffectHandler23DistortionEffectHandler17EchoEffectHandler22EqualizerEffectHandler20FlangerEffectHandler21FshifterEffectHandler22ModulatorEffectHandler21PshifterEffectHandler21VmorpherEffectHandler28DedicatedDialogEffectHandler25DedicatedLfeEffectHandler24ConvolutionEffectHandlerEEEEEEDcT_DpT0_', symObjAddr: 0x2A70, symBinAddr: 0x15640, symSize: 0x30 }
  - { offset: 0x138558, size: 0x8, addend: 0x0, symName: '__ZNSt3__116__variant_detail12__visitation6__base12__dispatcherIJLm9EEE10__dispatchB8fe200100IONS1_9__variant15__value_visitorIZN12_GLOBAL__N_19alEffectiEN3gsl8not_nullIPN2al7ContextEEEjiiE3$_1EEJRNS0_6__baseILNS0_6_TraitE0EJ17NullEffectHandler19ReverbEffectHandler22StdReverbEffectHandler20AutowahEffectHandler19ChorusEffectHandler23CompressorEffectHandler23DistortionEffectHandler17EchoEffectHandler22EqualizerEffectHandler20FlangerEffectHandler21FshifterEffectHandler22ModulatorEffectHandler21PshifterEffectHandler21VmorpherEffectHandler28DedicatedDialogEffectHandler25DedicatedLfeEffectHandler24ConvolutionEffectHandlerEEEEEEDcT_DpT0_', symObjAddr: 0x2A70, symBinAddr: 0x15640, symSize: 0x30 }
  - { offset: 0x138720, size: 0x8, addend: 0x0, symName: '__ZNSt3__116__variant_detail12__visitation6__base12__dispatcherIJLm10EEE10__dispatchB8fe200100IONS1_9__variant15__value_visitorIZN12_GLOBAL__N_19alEffectiEN3gsl8not_nullIPN2al7ContextEEEjiiE3$_1EEJRNS0_6__baseILNS0_6_TraitE0EJ17NullEffectHandler19ReverbEffectHandler22StdReverbEffectHandler20AutowahEffectHandler19ChorusEffectHandler23CompressorEffectHandler23DistortionEffectHandler17EchoEffectHandler22EqualizerEffectHandler20FlangerEffectHandler21FshifterEffectHandler22ModulatorEffectHandler21PshifterEffectHandler21VmorpherEffectHandler28DedicatedDialogEffectHandler25DedicatedLfeEffectHandler24ConvolutionEffectHandlerEEEEEEDcT_DpT0_', symObjAddr: 0x2AA0, symBinAddr: 0x15670, symSize: 0x30 }
  - { offset: 0x138754, size: 0x8, addend: 0x0, symName: '__ZNSt3__116__variant_detail12__visitation6__base12__dispatcherIJLm10EEE10__dispatchB8fe200100IONS1_9__variant15__value_visitorIZN12_GLOBAL__N_19alEffectiEN3gsl8not_nullIPN2al7ContextEEEjiiE3$_1EEJRNS0_6__baseILNS0_6_TraitE0EJ17NullEffectHandler19ReverbEffectHandler22StdReverbEffectHandler20AutowahEffectHandler19ChorusEffectHandler23CompressorEffectHandler23DistortionEffectHandler17EchoEffectHandler22EqualizerEffectHandler20FlangerEffectHandler21FshifterEffectHandler22ModulatorEffectHandler21PshifterEffectHandler21VmorpherEffectHandler28DedicatedDialogEffectHandler25DedicatedLfeEffectHandler24ConvolutionEffectHandlerEEEEEEDcT_DpT0_', symObjAddr: 0x2AA0, symBinAddr: 0x15670, symSize: 0x30 }
  - { offset: 0x138772, size: 0x8, addend: 0x0, symName: '__ZNSt3__116__variant_detail12__visitation6__base12__dispatcherIJLm10EEE10__dispatchB8fe200100IONS1_9__variant15__value_visitorIZN12_GLOBAL__N_19alEffectiEN3gsl8not_nullIPN2al7ContextEEEjiiE3$_1EEJRNS0_6__baseILNS0_6_TraitE0EJ17NullEffectHandler19ReverbEffectHandler22StdReverbEffectHandler20AutowahEffectHandler19ChorusEffectHandler23CompressorEffectHandler23DistortionEffectHandler17EchoEffectHandler22EqualizerEffectHandler20FlangerEffectHandler21FshifterEffectHandler22ModulatorEffectHandler21PshifterEffectHandler21VmorpherEffectHandler28DedicatedDialogEffectHandler25DedicatedLfeEffectHandler24ConvolutionEffectHandlerEEEEEEDcT_DpT0_', symObjAddr: 0x2AA0, symBinAddr: 0x15670, symSize: 0x30 }
  - { offset: 0x13893A, size: 0x8, addend: 0x0, symName: '__ZNSt3__116__variant_detail12__visitation6__base12__dispatcherIJLm11EEE10__dispatchB8fe200100IONS1_9__variant15__value_visitorIZN12_GLOBAL__N_19alEffectiEN3gsl8not_nullIPN2al7ContextEEEjiiE3$_1EEJRNS0_6__baseILNS0_6_TraitE0EJ17NullEffectHandler19ReverbEffectHandler22StdReverbEffectHandler20AutowahEffectHandler19ChorusEffectHandler23CompressorEffectHandler23DistortionEffectHandler17EchoEffectHandler22EqualizerEffectHandler20FlangerEffectHandler21FshifterEffectHandler22ModulatorEffectHandler21PshifterEffectHandler21VmorpherEffectHandler28DedicatedDialogEffectHandler25DedicatedLfeEffectHandler24ConvolutionEffectHandlerEEEEEEDcT_DpT0_', symObjAddr: 0x2AD0, symBinAddr: 0x156A0, symSize: 0x30 }
  - { offset: 0x13896E, size: 0x8, addend: 0x0, symName: '__ZNSt3__116__variant_detail12__visitation6__base12__dispatcherIJLm11EEE10__dispatchB8fe200100IONS1_9__variant15__value_visitorIZN12_GLOBAL__N_19alEffectiEN3gsl8not_nullIPN2al7ContextEEEjiiE3$_1EEJRNS0_6__baseILNS0_6_TraitE0EJ17NullEffectHandler19ReverbEffectHandler22StdReverbEffectHandler20AutowahEffectHandler19ChorusEffectHandler23CompressorEffectHandler23DistortionEffectHandler17EchoEffectHandler22EqualizerEffectHandler20FlangerEffectHandler21FshifterEffectHandler22ModulatorEffectHandler21PshifterEffectHandler21VmorpherEffectHandler28DedicatedDialogEffectHandler25DedicatedLfeEffectHandler24ConvolutionEffectHandlerEEEEEEDcT_DpT0_', symObjAddr: 0x2AD0, symBinAddr: 0x156A0, symSize: 0x30 }
  - { offset: 0x13898C, size: 0x8, addend: 0x0, symName: '__ZNSt3__116__variant_detail12__visitation6__base12__dispatcherIJLm11EEE10__dispatchB8fe200100IONS1_9__variant15__value_visitorIZN12_GLOBAL__N_19alEffectiEN3gsl8not_nullIPN2al7ContextEEEjiiE3$_1EEJRNS0_6__baseILNS0_6_TraitE0EJ17NullEffectHandler19ReverbEffectHandler22StdReverbEffectHandler20AutowahEffectHandler19ChorusEffectHandler23CompressorEffectHandler23DistortionEffectHandler17EchoEffectHandler22EqualizerEffectHandler20FlangerEffectHandler21FshifterEffectHandler22ModulatorEffectHandler21PshifterEffectHandler21VmorpherEffectHandler28DedicatedDialogEffectHandler25DedicatedLfeEffectHandler24ConvolutionEffectHandlerEEEEEEDcT_DpT0_', symObjAddr: 0x2AD0, symBinAddr: 0x156A0, symSize: 0x30 }
  - { offset: 0x138B54, size: 0x8, addend: 0x0, symName: '__ZNSt3__116__variant_detail12__visitation6__base12__dispatcherIJLm12EEE10__dispatchB8fe200100IONS1_9__variant15__value_visitorIZN12_GLOBAL__N_19alEffectiEN3gsl8not_nullIPN2al7ContextEEEjiiE3$_1EEJRNS0_6__baseILNS0_6_TraitE0EJ17NullEffectHandler19ReverbEffectHandler22StdReverbEffectHandler20AutowahEffectHandler19ChorusEffectHandler23CompressorEffectHandler23DistortionEffectHandler17EchoEffectHandler22EqualizerEffectHandler20FlangerEffectHandler21FshifterEffectHandler22ModulatorEffectHandler21PshifterEffectHandler21VmorpherEffectHandler28DedicatedDialogEffectHandler25DedicatedLfeEffectHandler24ConvolutionEffectHandlerEEEEEEDcT_DpT0_', symObjAddr: 0x2B00, symBinAddr: 0x156D0, symSize: 0x30 }
  - { offset: 0x138B88, size: 0x8, addend: 0x0, symName: '__ZNSt3__116__variant_detail12__visitation6__base12__dispatcherIJLm12EEE10__dispatchB8fe200100IONS1_9__variant15__value_visitorIZN12_GLOBAL__N_19alEffectiEN3gsl8not_nullIPN2al7ContextEEEjiiE3$_1EEJRNS0_6__baseILNS0_6_TraitE0EJ17NullEffectHandler19ReverbEffectHandler22StdReverbEffectHandler20AutowahEffectHandler19ChorusEffectHandler23CompressorEffectHandler23DistortionEffectHandler17EchoEffectHandler22EqualizerEffectHandler20FlangerEffectHandler21FshifterEffectHandler22ModulatorEffectHandler21PshifterEffectHandler21VmorpherEffectHandler28DedicatedDialogEffectHandler25DedicatedLfeEffectHandler24ConvolutionEffectHandlerEEEEEEDcT_DpT0_', symObjAddr: 0x2B00, symBinAddr: 0x156D0, symSize: 0x30 }
  - { offset: 0x138BA6, size: 0x8, addend: 0x0, symName: '__ZNSt3__116__variant_detail12__visitation6__base12__dispatcherIJLm12EEE10__dispatchB8fe200100IONS1_9__variant15__value_visitorIZN12_GLOBAL__N_19alEffectiEN3gsl8not_nullIPN2al7ContextEEEjiiE3$_1EEJRNS0_6__baseILNS0_6_TraitE0EJ17NullEffectHandler19ReverbEffectHandler22StdReverbEffectHandler20AutowahEffectHandler19ChorusEffectHandler23CompressorEffectHandler23DistortionEffectHandler17EchoEffectHandler22EqualizerEffectHandler20FlangerEffectHandler21FshifterEffectHandler22ModulatorEffectHandler21PshifterEffectHandler21VmorpherEffectHandler28DedicatedDialogEffectHandler25DedicatedLfeEffectHandler24ConvolutionEffectHandlerEEEEEEDcT_DpT0_', symObjAddr: 0x2B00, symBinAddr: 0x156D0, symSize: 0x30 }
  - { offset: 0x138D6E, size: 0x8, addend: 0x0, symName: '__ZNSt3__116__variant_detail12__visitation6__base12__dispatcherIJLm13EEE10__dispatchB8fe200100IONS1_9__variant15__value_visitorIZN12_GLOBAL__N_19alEffectiEN3gsl8not_nullIPN2al7ContextEEEjiiE3$_1EEJRNS0_6__baseILNS0_6_TraitE0EJ17NullEffectHandler19ReverbEffectHandler22StdReverbEffectHandler20AutowahEffectHandler19ChorusEffectHandler23CompressorEffectHandler23DistortionEffectHandler17EchoEffectHandler22EqualizerEffectHandler20FlangerEffectHandler21FshifterEffectHandler22ModulatorEffectHandler21PshifterEffectHandler21VmorpherEffectHandler28DedicatedDialogEffectHandler25DedicatedLfeEffectHandler24ConvolutionEffectHandlerEEEEEEDcT_DpT0_', symObjAddr: 0x2B30, symBinAddr: 0x15700, symSize: 0x30 }
  - { offset: 0x138DA2, size: 0x8, addend: 0x0, symName: '__ZNSt3__116__variant_detail12__visitation6__base12__dispatcherIJLm13EEE10__dispatchB8fe200100IONS1_9__variant15__value_visitorIZN12_GLOBAL__N_19alEffectiEN3gsl8not_nullIPN2al7ContextEEEjiiE3$_1EEJRNS0_6__baseILNS0_6_TraitE0EJ17NullEffectHandler19ReverbEffectHandler22StdReverbEffectHandler20AutowahEffectHandler19ChorusEffectHandler23CompressorEffectHandler23DistortionEffectHandler17EchoEffectHandler22EqualizerEffectHandler20FlangerEffectHandler21FshifterEffectHandler22ModulatorEffectHandler21PshifterEffectHandler21VmorpherEffectHandler28DedicatedDialogEffectHandler25DedicatedLfeEffectHandler24ConvolutionEffectHandlerEEEEEEDcT_DpT0_', symObjAddr: 0x2B30, symBinAddr: 0x15700, symSize: 0x30 }
  - { offset: 0x138DC0, size: 0x8, addend: 0x0, symName: '__ZNSt3__116__variant_detail12__visitation6__base12__dispatcherIJLm13EEE10__dispatchB8fe200100IONS1_9__variant15__value_visitorIZN12_GLOBAL__N_19alEffectiEN3gsl8not_nullIPN2al7ContextEEEjiiE3$_1EEJRNS0_6__baseILNS0_6_TraitE0EJ17NullEffectHandler19ReverbEffectHandler22StdReverbEffectHandler20AutowahEffectHandler19ChorusEffectHandler23CompressorEffectHandler23DistortionEffectHandler17EchoEffectHandler22EqualizerEffectHandler20FlangerEffectHandler21FshifterEffectHandler22ModulatorEffectHandler21PshifterEffectHandler21VmorpherEffectHandler28DedicatedDialogEffectHandler25DedicatedLfeEffectHandler24ConvolutionEffectHandlerEEEEEEDcT_DpT0_', symObjAddr: 0x2B30, symBinAddr: 0x15700, symSize: 0x30 }
  - { offset: 0x138F88, size: 0x8, addend: 0x0, symName: '__ZNSt3__116__variant_detail12__visitation6__base12__dispatcherIJLm14EEE10__dispatchB8fe200100IONS1_9__variant15__value_visitorIZN12_GLOBAL__N_19alEffectiEN3gsl8not_nullIPN2al7ContextEEEjiiE3$_1EEJRNS0_6__baseILNS0_6_TraitE0EJ17NullEffectHandler19ReverbEffectHandler22StdReverbEffectHandler20AutowahEffectHandler19ChorusEffectHandler23CompressorEffectHandler23DistortionEffectHandler17EchoEffectHandler22EqualizerEffectHandler20FlangerEffectHandler21FshifterEffectHandler22ModulatorEffectHandler21PshifterEffectHandler21VmorpherEffectHandler28DedicatedDialogEffectHandler25DedicatedLfeEffectHandler24ConvolutionEffectHandlerEEEEEEDcT_DpT0_', symObjAddr: 0x2B60, symBinAddr: 0x15730, symSize: 0x30 }
  - { offset: 0x138FBC, size: 0x8, addend: 0x0, symName: '__ZNSt3__116__variant_detail12__visitation6__base12__dispatcherIJLm14EEE10__dispatchB8fe200100IONS1_9__variant15__value_visitorIZN12_GLOBAL__N_19alEffectiEN3gsl8not_nullIPN2al7ContextEEEjiiE3$_1EEJRNS0_6__baseILNS0_6_TraitE0EJ17NullEffectHandler19ReverbEffectHandler22StdReverbEffectHandler20AutowahEffectHandler19ChorusEffectHandler23CompressorEffectHandler23DistortionEffectHandler17EchoEffectHandler22EqualizerEffectHandler20FlangerEffectHandler21FshifterEffectHandler22ModulatorEffectHandler21PshifterEffectHandler21VmorpherEffectHandler28DedicatedDialogEffectHandler25DedicatedLfeEffectHandler24ConvolutionEffectHandlerEEEEEEDcT_DpT0_', symObjAddr: 0x2B60, symBinAddr: 0x15730, symSize: 0x30 }
  - { offset: 0x138FDA, size: 0x8, addend: 0x0, symName: '__ZNSt3__116__variant_detail12__visitation6__base12__dispatcherIJLm14EEE10__dispatchB8fe200100IONS1_9__variant15__value_visitorIZN12_GLOBAL__N_19alEffectiEN3gsl8not_nullIPN2al7ContextEEEjiiE3$_1EEJRNS0_6__baseILNS0_6_TraitE0EJ17NullEffectHandler19ReverbEffectHandler22StdReverbEffectHandler20AutowahEffectHandler19ChorusEffectHandler23CompressorEffectHandler23DistortionEffectHandler17EchoEffectHandler22EqualizerEffectHandler20FlangerEffectHandler21FshifterEffectHandler22ModulatorEffectHandler21PshifterEffectHandler21VmorpherEffectHandler28DedicatedDialogEffectHandler25DedicatedLfeEffectHandler24ConvolutionEffectHandlerEEEEEEDcT_DpT0_', symObjAddr: 0x2B60, symBinAddr: 0x15730, symSize: 0x30 }
  - { offset: 0x139196, size: 0x8, addend: 0x0, symName: '__ZNSt3__116__variant_detail12__visitation6__base12__dispatcherIJLm15EEE10__dispatchB8fe200100IONS1_9__variant15__value_visitorIZN12_GLOBAL__N_19alEffectiEN3gsl8not_nullIPN2al7ContextEEEjiiE3$_1EEJRNS0_6__baseILNS0_6_TraitE0EJ17NullEffectHandler19ReverbEffectHandler22StdReverbEffectHandler20AutowahEffectHandler19ChorusEffectHandler23CompressorEffectHandler23DistortionEffectHandler17EchoEffectHandler22EqualizerEffectHandler20FlangerEffectHandler21FshifterEffectHandler22ModulatorEffectHandler21PshifterEffectHandler21VmorpherEffectHandler28DedicatedDialogEffectHandler25DedicatedLfeEffectHandler24ConvolutionEffectHandlerEEEEEEDcT_DpT0_', symObjAddr: 0x2B90, symBinAddr: 0x15760, symSize: 0x30 }
  - { offset: 0x1391CA, size: 0x8, addend: 0x0, symName: '__ZNSt3__116__variant_detail12__visitation6__base12__dispatcherIJLm15EEE10__dispatchB8fe200100IONS1_9__variant15__value_visitorIZN12_GLOBAL__N_19alEffectiEN3gsl8not_nullIPN2al7ContextEEEjiiE3$_1EEJRNS0_6__baseILNS0_6_TraitE0EJ17NullEffectHandler19ReverbEffectHandler22StdReverbEffectHandler20AutowahEffectHandler19ChorusEffectHandler23CompressorEffectHandler23DistortionEffectHandler17EchoEffectHandler22EqualizerEffectHandler20FlangerEffectHandler21FshifterEffectHandler22ModulatorEffectHandler21PshifterEffectHandler21VmorpherEffectHandler28DedicatedDialogEffectHandler25DedicatedLfeEffectHandler24ConvolutionEffectHandlerEEEEEEDcT_DpT0_', symObjAddr: 0x2B90, symBinAddr: 0x15760, symSize: 0x30 }
  - { offset: 0x1391E8, size: 0x8, addend: 0x0, symName: '__ZNSt3__116__variant_detail12__visitation6__base12__dispatcherIJLm15EEE10__dispatchB8fe200100IONS1_9__variant15__value_visitorIZN12_GLOBAL__N_19alEffectiEN3gsl8not_nullIPN2al7ContextEEEjiiE3$_1EEJRNS0_6__baseILNS0_6_TraitE0EJ17NullEffectHandler19ReverbEffectHandler22StdReverbEffectHandler20AutowahEffectHandler19ChorusEffectHandler23CompressorEffectHandler23DistortionEffectHandler17EchoEffectHandler22EqualizerEffectHandler20FlangerEffectHandler21FshifterEffectHandler22ModulatorEffectHandler21PshifterEffectHandler21VmorpherEffectHandler28DedicatedDialogEffectHandler25DedicatedLfeEffectHandler24ConvolutionEffectHandlerEEEEEEDcT_DpT0_', symObjAddr: 0x2B90, symBinAddr: 0x15760, symSize: 0x30 }
  - { offset: 0x1393B0, size: 0x8, addend: 0x0, symName: '__ZNSt3__116__variant_detail12__visitation6__base12__dispatcherIJLm16EEE10__dispatchB8fe200100IONS1_9__variant15__value_visitorIZN12_GLOBAL__N_19alEffectiEN3gsl8not_nullIPN2al7ContextEEEjiiE3$_1EEJRNS0_6__baseILNS0_6_TraitE0EJ17NullEffectHandler19ReverbEffectHandler22StdReverbEffectHandler20AutowahEffectHandler19ChorusEffectHandler23CompressorEffectHandler23DistortionEffectHandler17EchoEffectHandler22EqualizerEffectHandler20FlangerEffectHandler21FshifterEffectHandler22ModulatorEffectHandler21PshifterEffectHandler21VmorpherEffectHandler28DedicatedDialogEffectHandler25DedicatedLfeEffectHandler24ConvolutionEffectHandlerEEEEEEDcT_DpT0_', symObjAddr: 0x2BC0, symBinAddr: 0x15790, symSize: 0x30 }
  - { offset: 0x1393E4, size: 0x8, addend: 0x0, symName: '__ZNSt3__116__variant_detail12__visitation6__base12__dispatcherIJLm16EEE10__dispatchB8fe200100IONS1_9__variant15__value_visitorIZN12_GLOBAL__N_19alEffectiEN3gsl8not_nullIPN2al7ContextEEEjiiE3$_1EEJRNS0_6__baseILNS0_6_TraitE0EJ17NullEffectHandler19ReverbEffectHandler22StdReverbEffectHandler20AutowahEffectHandler19ChorusEffectHandler23CompressorEffectHandler23DistortionEffectHandler17EchoEffectHandler22EqualizerEffectHandler20FlangerEffectHandler21FshifterEffectHandler22ModulatorEffectHandler21PshifterEffectHandler21VmorpherEffectHandler28DedicatedDialogEffectHandler25DedicatedLfeEffectHandler24ConvolutionEffectHandlerEEEEEEDcT_DpT0_', symObjAddr: 0x2BC0, symBinAddr: 0x15790, symSize: 0x30 }
  - { offset: 0x139402, size: 0x8, addend: 0x0, symName: '__ZNSt3__116__variant_detail12__visitation6__base12__dispatcherIJLm16EEE10__dispatchB8fe200100IONS1_9__variant15__value_visitorIZN12_GLOBAL__N_19alEffectiEN3gsl8not_nullIPN2al7ContextEEEjiiE3$_1EEJRNS0_6__baseILNS0_6_TraitE0EJ17NullEffectHandler19ReverbEffectHandler22StdReverbEffectHandler20AutowahEffectHandler19ChorusEffectHandler23CompressorEffectHandler23DistortionEffectHandler17EchoEffectHandler22EqualizerEffectHandler20FlangerEffectHandler21FshifterEffectHandler22ModulatorEffectHandler21PshifterEffectHandler21VmorpherEffectHandler28DedicatedDialogEffectHandler25DedicatedLfeEffectHandler24ConvolutionEffectHandlerEEEEEEDcT_DpT0_', symObjAddr: 0x2BC0, symBinAddr: 0x15790, symSize: 0x30 }
  - { offset: 0x1395D6, size: 0x8, addend: 0x0, symName: '__ZNSt3__116__variant_detail12__visitation6__base12__dispatcherIJLm0EEE10__dispatchB8fe200100IONS1_9__variant15__value_visitorIZN12_GLOBAL__N_110alEffectivEN3gsl8not_nullIPN2al7ContextEEEjiPKiE3$_0EEJRNS0_6__baseILNS0_6_TraitE0EJ17NullEffectHandler19ReverbEffectHandler22StdReverbEffectHandler20AutowahEffectHandler19ChorusEffectHandler23CompressorEffectHandler23DistortionEffectHandler17EchoEffectHandler22EqualizerEffectHandler20FlangerEffectHandler21FshifterEffectHandler22ModulatorEffectHandler21PshifterEffectHandler21VmorpherEffectHandler28DedicatedDialogEffectHandler25DedicatedLfeEffectHandler24ConvolutionEffectHandlerEEEEEEDcT_DpT0_', symObjAddr: 0x2BF0, symBinAddr: 0x157C0, symSize: 0x30 }
  - { offset: 0x13960A, size: 0x8, addend: 0x0, symName: '__ZNSt3__116__variant_detail12__visitation6__base12__dispatcherIJLm0EEE10__dispatchB8fe200100IONS1_9__variant15__value_visitorIZN12_GLOBAL__N_110alEffectivEN3gsl8not_nullIPN2al7ContextEEEjiPKiE3$_0EEJRNS0_6__baseILNS0_6_TraitE0EJ17NullEffectHandler19ReverbEffectHandler22StdReverbEffectHandler20AutowahEffectHandler19ChorusEffectHandler23CompressorEffectHandler23DistortionEffectHandler17EchoEffectHandler22EqualizerEffectHandler20FlangerEffectHandler21FshifterEffectHandler22ModulatorEffectHandler21PshifterEffectHandler21VmorpherEffectHandler28DedicatedDialogEffectHandler25DedicatedLfeEffectHandler24ConvolutionEffectHandlerEEEEEEDcT_DpT0_', symObjAddr: 0x2BF0, symBinAddr: 0x157C0, symSize: 0x30 }
  - { offset: 0x139628, size: 0x8, addend: 0x0, symName: '__ZNSt3__116__variant_detail12__visitation6__base12__dispatcherIJLm0EEE10__dispatchB8fe200100IONS1_9__variant15__value_visitorIZN12_GLOBAL__N_110alEffectivEN3gsl8not_nullIPN2al7ContextEEEjiPKiE3$_0EEJRNS0_6__baseILNS0_6_TraitE0EJ17NullEffectHandler19ReverbEffectHandler22StdReverbEffectHandler20AutowahEffectHandler19ChorusEffectHandler23CompressorEffectHandler23DistortionEffectHandler17EchoEffectHandler22EqualizerEffectHandler20FlangerEffectHandler21FshifterEffectHandler22ModulatorEffectHandler21PshifterEffectHandler21VmorpherEffectHandler28DedicatedDialogEffectHandler25DedicatedLfeEffectHandler24ConvolutionEffectHandlerEEEEEEDcT_DpT0_', symObjAddr: 0x2BF0, symBinAddr: 0x157C0, symSize: 0x30 }
  - { offset: 0x1397D8, size: 0x8, addend: 0x0, symName: '__ZNSt3__116__variant_detail12__visitation6__base12__dispatcherIJLm1EEE10__dispatchB8fe200100IONS1_9__variant15__value_visitorIZN12_GLOBAL__N_110alEffectivEN3gsl8not_nullIPN2al7ContextEEEjiPKiE3$_0EEJRNS0_6__baseILNS0_6_TraitE0EJ17NullEffectHandler19ReverbEffectHandler22StdReverbEffectHandler20AutowahEffectHandler19ChorusEffectHandler23CompressorEffectHandler23DistortionEffectHandler17EchoEffectHandler22EqualizerEffectHandler20FlangerEffectHandler21FshifterEffectHandler22ModulatorEffectHandler21PshifterEffectHandler21VmorpherEffectHandler28DedicatedDialogEffectHandler25DedicatedLfeEffectHandler24ConvolutionEffectHandlerEEEEEEDcT_DpT0_', symObjAddr: 0x2C20, symBinAddr: 0x157F0, symSize: 0x30 }
  - { offset: 0x13980C, size: 0x8, addend: 0x0, symName: '__ZNSt3__116__variant_detail12__visitation6__base12__dispatcherIJLm1EEE10__dispatchB8fe200100IONS1_9__variant15__value_visitorIZN12_GLOBAL__N_110alEffectivEN3gsl8not_nullIPN2al7ContextEEEjiPKiE3$_0EEJRNS0_6__baseILNS0_6_TraitE0EJ17NullEffectHandler19ReverbEffectHandler22StdReverbEffectHandler20AutowahEffectHandler19ChorusEffectHandler23CompressorEffectHandler23DistortionEffectHandler17EchoEffectHandler22EqualizerEffectHandler20FlangerEffectHandler21FshifterEffectHandler22ModulatorEffectHandler21PshifterEffectHandler21VmorpherEffectHandler28DedicatedDialogEffectHandler25DedicatedLfeEffectHandler24ConvolutionEffectHandlerEEEEEEDcT_DpT0_', symObjAddr: 0x2C20, symBinAddr: 0x157F0, symSize: 0x30 }
  - { offset: 0x13982A, size: 0x8, addend: 0x0, symName: '__ZNSt3__116__variant_detail12__visitation6__base12__dispatcherIJLm1EEE10__dispatchB8fe200100IONS1_9__variant15__value_visitorIZN12_GLOBAL__N_110alEffectivEN3gsl8not_nullIPN2al7ContextEEEjiPKiE3$_0EEJRNS0_6__baseILNS0_6_TraitE0EJ17NullEffectHandler19ReverbEffectHandler22StdReverbEffectHandler20AutowahEffectHandler19ChorusEffectHandler23CompressorEffectHandler23DistortionEffectHandler17EchoEffectHandler22EqualizerEffectHandler20FlangerEffectHandler21FshifterEffectHandler22ModulatorEffectHandler21PshifterEffectHandler21VmorpherEffectHandler28DedicatedDialogEffectHandler25DedicatedLfeEffectHandler24ConvolutionEffectHandlerEEEEEEDcT_DpT0_', symObjAddr: 0x2C20, symBinAddr: 0x157F0, symSize: 0x30 }
  - { offset: 0x1399DA, size: 0x8, addend: 0x0, symName: '__ZNSt3__116__variant_detail12__visitation6__base12__dispatcherIJLm2EEE10__dispatchB8fe200100IONS1_9__variant15__value_visitorIZN12_GLOBAL__N_110alEffectivEN3gsl8not_nullIPN2al7ContextEEEjiPKiE3$_0EEJRNS0_6__baseILNS0_6_TraitE0EJ17NullEffectHandler19ReverbEffectHandler22StdReverbEffectHandler20AutowahEffectHandler19ChorusEffectHandler23CompressorEffectHandler23DistortionEffectHandler17EchoEffectHandler22EqualizerEffectHandler20FlangerEffectHandler21FshifterEffectHandler22ModulatorEffectHandler21PshifterEffectHandler21VmorpherEffectHandler28DedicatedDialogEffectHandler25DedicatedLfeEffectHandler24ConvolutionEffectHandlerEEEEEEDcT_DpT0_', symObjAddr: 0x2C50, symBinAddr: 0x15820, symSize: 0x30 }
  - { offset: 0x139A0E, size: 0x8, addend: 0x0, symName: '__ZNSt3__116__variant_detail12__visitation6__base12__dispatcherIJLm2EEE10__dispatchB8fe200100IONS1_9__variant15__value_visitorIZN12_GLOBAL__N_110alEffectivEN3gsl8not_nullIPN2al7ContextEEEjiPKiE3$_0EEJRNS0_6__baseILNS0_6_TraitE0EJ17NullEffectHandler19ReverbEffectHandler22StdReverbEffectHandler20AutowahEffectHandler19ChorusEffectHandler23CompressorEffectHandler23DistortionEffectHandler17EchoEffectHandler22EqualizerEffectHandler20FlangerEffectHandler21FshifterEffectHandler22ModulatorEffectHandler21PshifterEffectHandler21VmorpherEffectHandler28DedicatedDialogEffectHandler25DedicatedLfeEffectHandler24ConvolutionEffectHandlerEEEEEEDcT_DpT0_', symObjAddr: 0x2C50, symBinAddr: 0x15820, symSize: 0x30 }
  - { offset: 0x139A2C, size: 0x8, addend: 0x0, symName: '__ZNSt3__116__variant_detail12__visitation6__base12__dispatcherIJLm2EEE10__dispatchB8fe200100IONS1_9__variant15__value_visitorIZN12_GLOBAL__N_110alEffectivEN3gsl8not_nullIPN2al7ContextEEEjiPKiE3$_0EEJRNS0_6__baseILNS0_6_TraitE0EJ17NullEffectHandler19ReverbEffectHandler22StdReverbEffectHandler20AutowahEffectHandler19ChorusEffectHandler23CompressorEffectHandler23DistortionEffectHandler17EchoEffectHandler22EqualizerEffectHandler20FlangerEffectHandler21FshifterEffectHandler22ModulatorEffectHandler21PshifterEffectHandler21VmorpherEffectHandler28DedicatedDialogEffectHandler25DedicatedLfeEffectHandler24ConvolutionEffectHandlerEEEEEEDcT_DpT0_', symObjAddr: 0x2C50, symBinAddr: 0x15820, symSize: 0x30 }
  - { offset: 0x139BDC, size: 0x8, addend: 0x0, symName: '__ZNSt3__116__variant_detail12__visitation6__base12__dispatcherIJLm3EEE10__dispatchB8fe200100IONS1_9__variant15__value_visitorIZN12_GLOBAL__N_110alEffectivEN3gsl8not_nullIPN2al7ContextEEEjiPKiE3$_0EEJRNS0_6__baseILNS0_6_TraitE0EJ17NullEffectHandler19ReverbEffectHandler22StdReverbEffectHandler20AutowahEffectHandler19ChorusEffectHandler23CompressorEffectHandler23DistortionEffectHandler17EchoEffectHandler22EqualizerEffectHandler20FlangerEffectHandler21FshifterEffectHandler22ModulatorEffectHandler21PshifterEffectHandler21VmorpherEffectHandler28DedicatedDialogEffectHandler25DedicatedLfeEffectHandler24ConvolutionEffectHandlerEEEEEEDcT_DpT0_', symObjAddr: 0x2C80, symBinAddr: 0x15850, symSize: 0x30 }
  - { offset: 0x139C10, size: 0x8, addend: 0x0, symName: '__ZNSt3__116__variant_detail12__visitation6__base12__dispatcherIJLm3EEE10__dispatchB8fe200100IONS1_9__variant15__value_visitorIZN12_GLOBAL__N_110alEffectivEN3gsl8not_nullIPN2al7ContextEEEjiPKiE3$_0EEJRNS0_6__baseILNS0_6_TraitE0EJ17NullEffectHandler19ReverbEffectHandler22StdReverbEffectHandler20AutowahEffectHandler19ChorusEffectHandler23CompressorEffectHandler23DistortionEffectHandler17EchoEffectHandler22EqualizerEffectHandler20FlangerEffectHandler21FshifterEffectHandler22ModulatorEffectHandler21PshifterEffectHandler21VmorpherEffectHandler28DedicatedDialogEffectHandler25DedicatedLfeEffectHandler24ConvolutionEffectHandlerEEEEEEDcT_DpT0_', symObjAddr: 0x2C80, symBinAddr: 0x15850, symSize: 0x30 }
  - { offset: 0x139C2E, size: 0x8, addend: 0x0, symName: '__ZNSt3__116__variant_detail12__visitation6__base12__dispatcherIJLm3EEE10__dispatchB8fe200100IONS1_9__variant15__value_visitorIZN12_GLOBAL__N_110alEffectivEN3gsl8not_nullIPN2al7ContextEEEjiPKiE3$_0EEJRNS0_6__baseILNS0_6_TraitE0EJ17NullEffectHandler19ReverbEffectHandler22StdReverbEffectHandler20AutowahEffectHandler19ChorusEffectHandler23CompressorEffectHandler23DistortionEffectHandler17EchoEffectHandler22EqualizerEffectHandler20FlangerEffectHandler21FshifterEffectHandler22ModulatorEffectHandler21PshifterEffectHandler21VmorpherEffectHandler28DedicatedDialogEffectHandler25DedicatedLfeEffectHandler24ConvolutionEffectHandlerEEEEEEDcT_DpT0_', symObjAddr: 0x2C80, symBinAddr: 0x15850, symSize: 0x30 }
  - { offset: 0x139DDE, size: 0x8, addend: 0x0, symName: '__ZNSt3__116__variant_detail12__visitation6__base12__dispatcherIJLm4EEE10__dispatchB8fe200100IONS1_9__variant15__value_visitorIZN12_GLOBAL__N_110alEffectivEN3gsl8not_nullIPN2al7ContextEEEjiPKiE3$_0EEJRNS0_6__baseILNS0_6_TraitE0EJ17NullEffectHandler19ReverbEffectHandler22StdReverbEffectHandler20AutowahEffectHandler19ChorusEffectHandler23CompressorEffectHandler23DistortionEffectHandler17EchoEffectHandler22EqualizerEffectHandler20FlangerEffectHandler21FshifterEffectHandler22ModulatorEffectHandler21PshifterEffectHandler21VmorpherEffectHandler28DedicatedDialogEffectHandler25DedicatedLfeEffectHandler24ConvolutionEffectHandlerEEEEEEDcT_DpT0_', symObjAddr: 0x2CB0, symBinAddr: 0x15880, symSize: 0x30 }
  - { offset: 0x139E12, size: 0x8, addend: 0x0, symName: '__ZNSt3__116__variant_detail12__visitation6__base12__dispatcherIJLm4EEE10__dispatchB8fe200100IONS1_9__variant15__value_visitorIZN12_GLOBAL__N_110alEffectivEN3gsl8not_nullIPN2al7ContextEEEjiPKiE3$_0EEJRNS0_6__baseILNS0_6_TraitE0EJ17NullEffectHandler19ReverbEffectHandler22StdReverbEffectHandler20AutowahEffectHandler19ChorusEffectHandler23CompressorEffectHandler23DistortionEffectHandler17EchoEffectHandler22EqualizerEffectHandler20FlangerEffectHandler21FshifterEffectHandler22ModulatorEffectHandler21PshifterEffectHandler21VmorpherEffectHandler28DedicatedDialogEffectHandler25DedicatedLfeEffectHandler24ConvolutionEffectHandlerEEEEEEDcT_DpT0_', symObjAddr: 0x2CB0, symBinAddr: 0x15880, symSize: 0x30 }
  - { offset: 0x139E30, size: 0x8, addend: 0x0, symName: '__ZNSt3__116__variant_detail12__visitation6__base12__dispatcherIJLm4EEE10__dispatchB8fe200100IONS1_9__variant15__value_visitorIZN12_GLOBAL__N_110alEffectivEN3gsl8not_nullIPN2al7ContextEEEjiPKiE3$_0EEJRNS0_6__baseILNS0_6_TraitE0EJ17NullEffectHandler19ReverbEffectHandler22StdReverbEffectHandler20AutowahEffectHandler19ChorusEffectHandler23CompressorEffectHandler23DistortionEffectHandler17EchoEffectHandler22EqualizerEffectHandler20FlangerEffectHandler21FshifterEffectHandler22ModulatorEffectHandler21PshifterEffectHandler21VmorpherEffectHandler28DedicatedDialogEffectHandler25DedicatedLfeEffectHandler24ConvolutionEffectHandlerEEEEEEDcT_DpT0_', symObjAddr: 0x2CB0, symBinAddr: 0x15880, symSize: 0x30 }
  - { offset: 0x139FE0, size: 0x8, addend: 0x0, symName: '__ZNSt3__116__variant_detail12__visitation6__base12__dispatcherIJLm5EEE10__dispatchB8fe200100IONS1_9__variant15__value_visitorIZN12_GLOBAL__N_110alEffectivEN3gsl8not_nullIPN2al7ContextEEEjiPKiE3$_0EEJRNS0_6__baseILNS0_6_TraitE0EJ17NullEffectHandler19ReverbEffectHandler22StdReverbEffectHandler20AutowahEffectHandler19ChorusEffectHandler23CompressorEffectHandler23DistortionEffectHandler17EchoEffectHandler22EqualizerEffectHandler20FlangerEffectHandler21FshifterEffectHandler22ModulatorEffectHandler21PshifterEffectHandler21VmorpherEffectHandler28DedicatedDialogEffectHandler25DedicatedLfeEffectHandler24ConvolutionEffectHandlerEEEEEEDcT_DpT0_', symObjAddr: 0x2CE0, symBinAddr: 0x158B0, symSize: 0x30 }
  - { offset: 0x13A014, size: 0x8, addend: 0x0, symName: '__ZNSt3__116__variant_detail12__visitation6__base12__dispatcherIJLm5EEE10__dispatchB8fe200100IONS1_9__variant15__value_visitorIZN12_GLOBAL__N_110alEffectivEN3gsl8not_nullIPN2al7ContextEEEjiPKiE3$_0EEJRNS0_6__baseILNS0_6_TraitE0EJ17NullEffectHandler19ReverbEffectHandler22StdReverbEffectHandler20AutowahEffectHandler19ChorusEffectHandler23CompressorEffectHandler23DistortionEffectHandler17EchoEffectHandler22EqualizerEffectHandler20FlangerEffectHandler21FshifterEffectHandler22ModulatorEffectHandler21PshifterEffectHandler21VmorpherEffectHandler28DedicatedDialogEffectHandler25DedicatedLfeEffectHandler24ConvolutionEffectHandlerEEEEEEDcT_DpT0_', symObjAddr: 0x2CE0, symBinAddr: 0x158B0, symSize: 0x30 }
  - { offset: 0x13A032, size: 0x8, addend: 0x0, symName: '__ZNSt3__116__variant_detail12__visitation6__base12__dispatcherIJLm5EEE10__dispatchB8fe200100IONS1_9__variant15__value_visitorIZN12_GLOBAL__N_110alEffectivEN3gsl8not_nullIPN2al7ContextEEEjiPKiE3$_0EEJRNS0_6__baseILNS0_6_TraitE0EJ17NullEffectHandler19ReverbEffectHandler22StdReverbEffectHandler20AutowahEffectHandler19ChorusEffectHandler23CompressorEffectHandler23DistortionEffectHandler17EchoEffectHandler22EqualizerEffectHandler20FlangerEffectHandler21FshifterEffectHandler22ModulatorEffectHandler21PshifterEffectHandler21VmorpherEffectHandler28DedicatedDialogEffectHandler25DedicatedLfeEffectHandler24ConvolutionEffectHandlerEEEEEEDcT_DpT0_', symObjAddr: 0x2CE0, symBinAddr: 0x158B0, symSize: 0x30 }
  - { offset: 0x13A1E2, size: 0x8, addend: 0x0, symName: '__ZNSt3__116__variant_detail12__visitation6__base12__dispatcherIJLm6EEE10__dispatchB8fe200100IONS1_9__variant15__value_visitorIZN12_GLOBAL__N_110alEffectivEN3gsl8not_nullIPN2al7ContextEEEjiPKiE3$_0EEJRNS0_6__baseILNS0_6_TraitE0EJ17NullEffectHandler19ReverbEffectHandler22StdReverbEffectHandler20AutowahEffectHandler19ChorusEffectHandler23CompressorEffectHandler23DistortionEffectHandler17EchoEffectHandler22EqualizerEffectHandler20FlangerEffectHandler21FshifterEffectHandler22ModulatorEffectHandler21PshifterEffectHandler21VmorpherEffectHandler28DedicatedDialogEffectHandler25DedicatedLfeEffectHandler24ConvolutionEffectHandlerEEEEEEDcT_DpT0_', symObjAddr: 0x2D10, symBinAddr: 0x158E0, symSize: 0x30 }
  - { offset: 0x13A216, size: 0x8, addend: 0x0, symName: '__ZNSt3__116__variant_detail12__visitation6__base12__dispatcherIJLm6EEE10__dispatchB8fe200100IONS1_9__variant15__value_visitorIZN12_GLOBAL__N_110alEffectivEN3gsl8not_nullIPN2al7ContextEEEjiPKiE3$_0EEJRNS0_6__baseILNS0_6_TraitE0EJ17NullEffectHandler19ReverbEffectHandler22StdReverbEffectHandler20AutowahEffectHandler19ChorusEffectHandler23CompressorEffectHandler23DistortionEffectHandler17EchoEffectHandler22EqualizerEffectHandler20FlangerEffectHandler21FshifterEffectHandler22ModulatorEffectHandler21PshifterEffectHandler21VmorpherEffectHandler28DedicatedDialogEffectHandler25DedicatedLfeEffectHandler24ConvolutionEffectHandlerEEEEEEDcT_DpT0_', symObjAddr: 0x2D10, symBinAddr: 0x158E0, symSize: 0x30 }
  - { offset: 0x13A234, size: 0x8, addend: 0x0, symName: '__ZNSt3__116__variant_detail12__visitation6__base12__dispatcherIJLm6EEE10__dispatchB8fe200100IONS1_9__variant15__value_visitorIZN12_GLOBAL__N_110alEffectivEN3gsl8not_nullIPN2al7ContextEEEjiPKiE3$_0EEJRNS0_6__baseILNS0_6_TraitE0EJ17NullEffectHandler19ReverbEffectHandler22StdReverbEffectHandler20AutowahEffectHandler19ChorusEffectHandler23CompressorEffectHandler23DistortionEffectHandler17EchoEffectHandler22EqualizerEffectHandler20FlangerEffectHandler21FshifterEffectHandler22ModulatorEffectHandler21PshifterEffectHandler21VmorpherEffectHandler28DedicatedDialogEffectHandler25DedicatedLfeEffectHandler24ConvolutionEffectHandlerEEEEEEDcT_DpT0_', symObjAddr: 0x2D10, symBinAddr: 0x158E0, symSize: 0x30 }
  - { offset: 0x13A3E4, size: 0x8, addend: 0x0, symName: '__ZNSt3__116__variant_detail12__visitation6__base12__dispatcherIJLm7EEE10__dispatchB8fe200100IONS1_9__variant15__value_visitorIZN12_GLOBAL__N_110alEffectivEN3gsl8not_nullIPN2al7ContextEEEjiPKiE3$_0EEJRNS0_6__baseILNS0_6_TraitE0EJ17NullEffectHandler19ReverbEffectHandler22StdReverbEffectHandler20AutowahEffectHandler19ChorusEffectHandler23CompressorEffectHandler23DistortionEffectHandler17EchoEffectHandler22EqualizerEffectHandler20FlangerEffectHandler21FshifterEffectHandler22ModulatorEffectHandler21PshifterEffectHandler21VmorpherEffectHandler28DedicatedDialogEffectHandler25DedicatedLfeEffectHandler24ConvolutionEffectHandlerEEEEEEDcT_DpT0_', symObjAddr: 0x2D40, symBinAddr: 0x15910, symSize: 0x30 }
  - { offset: 0x13A418, size: 0x8, addend: 0x0, symName: '__ZNSt3__116__variant_detail12__visitation6__base12__dispatcherIJLm7EEE10__dispatchB8fe200100IONS1_9__variant15__value_visitorIZN12_GLOBAL__N_110alEffectivEN3gsl8not_nullIPN2al7ContextEEEjiPKiE3$_0EEJRNS0_6__baseILNS0_6_TraitE0EJ17NullEffectHandler19ReverbEffectHandler22StdReverbEffectHandler20AutowahEffectHandler19ChorusEffectHandler23CompressorEffectHandler23DistortionEffectHandler17EchoEffectHandler22EqualizerEffectHandler20FlangerEffectHandler21FshifterEffectHandler22ModulatorEffectHandler21PshifterEffectHandler21VmorpherEffectHandler28DedicatedDialogEffectHandler25DedicatedLfeEffectHandler24ConvolutionEffectHandlerEEEEEEDcT_DpT0_', symObjAddr: 0x2D40, symBinAddr: 0x15910, symSize: 0x30 }
  - { offset: 0x13A436, size: 0x8, addend: 0x0, symName: '__ZNSt3__116__variant_detail12__visitation6__base12__dispatcherIJLm7EEE10__dispatchB8fe200100IONS1_9__variant15__value_visitorIZN12_GLOBAL__N_110alEffectivEN3gsl8not_nullIPN2al7ContextEEEjiPKiE3$_0EEJRNS0_6__baseILNS0_6_TraitE0EJ17NullEffectHandler19ReverbEffectHandler22StdReverbEffectHandler20AutowahEffectHandler19ChorusEffectHandler23CompressorEffectHandler23DistortionEffectHandler17EchoEffectHandler22EqualizerEffectHandler20FlangerEffectHandler21FshifterEffectHandler22ModulatorEffectHandler21PshifterEffectHandler21VmorpherEffectHandler28DedicatedDialogEffectHandler25DedicatedLfeEffectHandler24ConvolutionEffectHandlerEEEEEEDcT_DpT0_', symObjAddr: 0x2D40, symBinAddr: 0x15910, symSize: 0x30 }
  - { offset: 0x13A5E6, size: 0x8, addend: 0x0, symName: '__ZNSt3__116__variant_detail12__visitation6__base12__dispatcherIJLm8EEE10__dispatchB8fe200100IONS1_9__variant15__value_visitorIZN12_GLOBAL__N_110alEffectivEN3gsl8not_nullIPN2al7ContextEEEjiPKiE3$_0EEJRNS0_6__baseILNS0_6_TraitE0EJ17NullEffectHandler19ReverbEffectHandler22StdReverbEffectHandler20AutowahEffectHandler19ChorusEffectHandler23CompressorEffectHandler23DistortionEffectHandler17EchoEffectHandler22EqualizerEffectHandler20FlangerEffectHandler21FshifterEffectHandler22ModulatorEffectHandler21PshifterEffectHandler21VmorpherEffectHandler28DedicatedDialogEffectHandler25DedicatedLfeEffectHandler24ConvolutionEffectHandlerEEEEEEDcT_DpT0_', symObjAddr: 0x2D70, symBinAddr: 0x15940, symSize: 0x30 }
  - { offset: 0x13A61A, size: 0x8, addend: 0x0, symName: '__ZNSt3__116__variant_detail12__visitation6__base12__dispatcherIJLm8EEE10__dispatchB8fe200100IONS1_9__variant15__value_visitorIZN12_GLOBAL__N_110alEffectivEN3gsl8not_nullIPN2al7ContextEEEjiPKiE3$_0EEJRNS0_6__baseILNS0_6_TraitE0EJ17NullEffectHandler19ReverbEffectHandler22StdReverbEffectHandler20AutowahEffectHandler19ChorusEffectHandler23CompressorEffectHandler23DistortionEffectHandler17EchoEffectHandler22EqualizerEffectHandler20FlangerEffectHandler21FshifterEffectHandler22ModulatorEffectHandler21PshifterEffectHandler21VmorpherEffectHandler28DedicatedDialogEffectHandler25DedicatedLfeEffectHandler24ConvolutionEffectHandlerEEEEEEDcT_DpT0_', symObjAddr: 0x2D70, symBinAddr: 0x15940, symSize: 0x30 }
  - { offset: 0x13A638, size: 0x8, addend: 0x0, symName: '__ZNSt3__116__variant_detail12__visitation6__base12__dispatcherIJLm8EEE10__dispatchB8fe200100IONS1_9__variant15__value_visitorIZN12_GLOBAL__N_110alEffectivEN3gsl8not_nullIPN2al7ContextEEEjiPKiE3$_0EEJRNS0_6__baseILNS0_6_TraitE0EJ17NullEffectHandler19ReverbEffectHandler22StdReverbEffectHandler20AutowahEffectHandler19ChorusEffectHandler23CompressorEffectHandler23DistortionEffectHandler17EchoEffectHandler22EqualizerEffectHandler20FlangerEffectHandler21FshifterEffectHandler22ModulatorEffectHandler21PshifterEffectHandler21VmorpherEffectHandler28DedicatedDialogEffectHandler25DedicatedLfeEffectHandler24ConvolutionEffectHandlerEEEEEEDcT_DpT0_', symObjAddr: 0x2D70, symBinAddr: 0x15940, symSize: 0x30 }
  - { offset: 0x13A7E8, size: 0x8, addend: 0x0, symName: '__ZNSt3__116__variant_detail12__visitation6__base12__dispatcherIJLm9EEE10__dispatchB8fe200100IONS1_9__variant15__value_visitorIZN12_GLOBAL__N_110alEffectivEN3gsl8not_nullIPN2al7ContextEEEjiPKiE3$_0EEJRNS0_6__baseILNS0_6_TraitE0EJ17NullEffectHandler19ReverbEffectHandler22StdReverbEffectHandler20AutowahEffectHandler19ChorusEffectHandler23CompressorEffectHandler23DistortionEffectHandler17EchoEffectHandler22EqualizerEffectHandler20FlangerEffectHandler21FshifterEffectHandler22ModulatorEffectHandler21PshifterEffectHandler21VmorpherEffectHandler28DedicatedDialogEffectHandler25DedicatedLfeEffectHandler24ConvolutionEffectHandlerEEEEEEDcT_DpT0_', symObjAddr: 0x2DA0, symBinAddr: 0x15970, symSize: 0x30 }
  - { offset: 0x13A81C, size: 0x8, addend: 0x0, symName: '__ZNSt3__116__variant_detail12__visitation6__base12__dispatcherIJLm9EEE10__dispatchB8fe200100IONS1_9__variant15__value_visitorIZN12_GLOBAL__N_110alEffectivEN3gsl8not_nullIPN2al7ContextEEEjiPKiE3$_0EEJRNS0_6__baseILNS0_6_TraitE0EJ17NullEffectHandler19ReverbEffectHandler22StdReverbEffectHandler20AutowahEffectHandler19ChorusEffectHandler23CompressorEffectHandler23DistortionEffectHandler17EchoEffectHandler22EqualizerEffectHandler20FlangerEffectHandler21FshifterEffectHandler22ModulatorEffectHandler21PshifterEffectHandler21VmorpherEffectHandler28DedicatedDialogEffectHandler25DedicatedLfeEffectHandler24ConvolutionEffectHandlerEEEEEEDcT_DpT0_', symObjAddr: 0x2DA0, symBinAddr: 0x15970, symSize: 0x30 }
  - { offset: 0x13A83A, size: 0x8, addend: 0x0, symName: '__ZNSt3__116__variant_detail12__visitation6__base12__dispatcherIJLm9EEE10__dispatchB8fe200100IONS1_9__variant15__value_visitorIZN12_GLOBAL__N_110alEffectivEN3gsl8not_nullIPN2al7ContextEEEjiPKiE3$_0EEJRNS0_6__baseILNS0_6_TraitE0EJ17NullEffectHandler19ReverbEffectHandler22StdReverbEffectHandler20AutowahEffectHandler19ChorusEffectHandler23CompressorEffectHandler23DistortionEffectHandler17EchoEffectHandler22EqualizerEffectHandler20FlangerEffectHandler21FshifterEffectHandler22ModulatorEffectHandler21PshifterEffectHandler21VmorpherEffectHandler28DedicatedDialogEffectHandler25DedicatedLfeEffectHandler24ConvolutionEffectHandlerEEEEEEDcT_DpT0_', symObjAddr: 0x2DA0, symBinAddr: 0x15970, symSize: 0x30 }
  - { offset: 0x13A9EA, size: 0x8, addend: 0x0, symName: '__ZNSt3__116__variant_detail12__visitation6__base12__dispatcherIJLm10EEE10__dispatchB8fe200100IONS1_9__variant15__value_visitorIZN12_GLOBAL__N_110alEffectivEN3gsl8not_nullIPN2al7ContextEEEjiPKiE3$_0EEJRNS0_6__baseILNS0_6_TraitE0EJ17NullEffectHandler19ReverbEffectHandler22StdReverbEffectHandler20AutowahEffectHandler19ChorusEffectHandler23CompressorEffectHandler23DistortionEffectHandler17EchoEffectHandler22EqualizerEffectHandler20FlangerEffectHandler21FshifterEffectHandler22ModulatorEffectHandler21PshifterEffectHandler21VmorpherEffectHandler28DedicatedDialogEffectHandler25DedicatedLfeEffectHandler24ConvolutionEffectHandlerEEEEEEDcT_DpT0_', symObjAddr: 0x2DD0, symBinAddr: 0x159A0, symSize: 0x30 }
  - { offset: 0x13AA1E, size: 0x8, addend: 0x0, symName: '__ZNSt3__116__variant_detail12__visitation6__base12__dispatcherIJLm10EEE10__dispatchB8fe200100IONS1_9__variant15__value_visitorIZN12_GLOBAL__N_110alEffectivEN3gsl8not_nullIPN2al7ContextEEEjiPKiE3$_0EEJRNS0_6__baseILNS0_6_TraitE0EJ17NullEffectHandler19ReverbEffectHandler22StdReverbEffectHandler20AutowahEffectHandler19ChorusEffectHandler23CompressorEffectHandler23DistortionEffectHandler17EchoEffectHandler22EqualizerEffectHandler20FlangerEffectHandler21FshifterEffectHandler22ModulatorEffectHandler21PshifterEffectHandler21VmorpherEffectHandler28DedicatedDialogEffectHandler25DedicatedLfeEffectHandler24ConvolutionEffectHandlerEEEEEEDcT_DpT0_', symObjAddr: 0x2DD0, symBinAddr: 0x159A0, symSize: 0x30 }
  - { offset: 0x13AA3C, size: 0x8, addend: 0x0, symName: '__ZNSt3__116__variant_detail12__visitation6__base12__dispatcherIJLm10EEE10__dispatchB8fe200100IONS1_9__variant15__value_visitorIZN12_GLOBAL__N_110alEffectivEN3gsl8not_nullIPN2al7ContextEEEjiPKiE3$_0EEJRNS0_6__baseILNS0_6_TraitE0EJ17NullEffectHandler19ReverbEffectHandler22StdReverbEffectHandler20AutowahEffectHandler19ChorusEffectHandler23CompressorEffectHandler23DistortionEffectHandler17EchoEffectHandler22EqualizerEffectHandler20FlangerEffectHandler21FshifterEffectHandler22ModulatorEffectHandler21PshifterEffectHandler21VmorpherEffectHandler28DedicatedDialogEffectHandler25DedicatedLfeEffectHandler24ConvolutionEffectHandlerEEEEEEDcT_DpT0_', symObjAddr: 0x2DD0, symBinAddr: 0x159A0, symSize: 0x30 }
  - { offset: 0x13ABEC, size: 0x8, addend: 0x0, symName: '__ZNSt3__116__variant_detail12__visitation6__base12__dispatcherIJLm11EEE10__dispatchB8fe200100IONS1_9__variant15__value_visitorIZN12_GLOBAL__N_110alEffectivEN3gsl8not_nullIPN2al7ContextEEEjiPKiE3$_0EEJRNS0_6__baseILNS0_6_TraitE0EJ17NullEffectHandler19ReverbEffectHandler22StdReverbEffectHandler20AutowahEffectHandler19ChorusEffectHandler23CompressorEffectHandler23DistortionEffectHandler17EchoEffectHandler22EqualizerEffectHandler20FlangerEffectHandler21FshifterEffectHandler22ModulatorEffectHandler21PshifterEffectHandler21VmorpherEffectHandler28DedicatedDialogEffectHandler25DedicatedLfeEffectHandler24ConvolutionEffectHandlerEEEEEEDcT_DpT0_', symObjAddr: 0x2E00, symBinAddr: 0x159D0, symSize: 0x30 }
  - { offset: 0x13AC20, size: 0x8, addend: 0x0, symName: '__ZNSt3__116__variant_detail12__visitation6__base12__dispatcherIJLm11EEE10__dispatchB8fe200100IONS1_9__variant15__value_visitorIZN12_GLOBAL__N_110alEffectivEN3gsl8not_nullIPN2al7ContextEEEjiPKiE3$_0EEJRNS0_6__baseILNS0_6_TraitE0EJ17NullEffectHandler19ReverbEffectHandler22StdReverbEffectHandler20AutowahEffectHandler19ChorusEffectHandler23CompressorEffectHandler23DistortionEffectHandler17EchoEffectHandler22EqualizerEffectHandler20FlangerEffectHandler21FshifterEffectHandler22ModulatorEffectHandler21PshifterEffectHandler21VmorpherEffectHandler28DedicatedDialogEffectHandler25DedicatedLfeEffectHandler24ConvolutionEffectHandlerEEEEEEDcT_DpT0_', symObjAddr: 0x2E00, symBinAddr: 0x159D0, symSize: 0x30 }
  - { offset: 0x13AC3E, size: 0x8, addend: 0x0, symName: '__ZNSt3__116__variant_detail12__visitation6__base12__dispatcherIJLm11EEE10__dispatchB8fe200100IONS1_9__variant15__value_visitorIZN12_GLOBAL__N_110alEffectivEN3gsl8not_nullIPN2al7ContextEEEjiPKiE3$_0EEJRNS0_6__baseILNS0_6_TraitE0EJ17NullEffectHandler19ReverbEffectHandler22StdReverbEffectHandler20AutowahEffectHandler19ChorusEffectHandler23CompressorEffectHandler23DistortionEffectHandler17EchoEffectHandler22EqualizerEffectHandler20FlangerEffectHandler21FshifterEffectHandler22ModulatorEffectHandler21PshifterEffectHandler21VmorpherEffectHandler28DedicatedDialogEffectHandler25DedicatedLfeEffectHandler24ConvolutionEffectHandlerEEEEEEDcT_DpT0_', symObjAddr: 0x2E00, symBinAddr: 0x159D0, symSize: 0x30 }
  - { offset: 0x13ADEE, size: 0x8, addend: 0x0, symName: '__ZNSt3__116__variant_detail12__visitation6__base12__dispatcherIJLm12EEE10__dispatchB8fe200100IONS1_9__variant15__value_visitorIZN12_GLOBAL__N_110alEffectivEN3gsl8not_nullIPN2al7ContextEEEjiPKiE3$_0EEJRNS0_6__baseILNS0_6_TraitE0EJ17NullEffectHandler19ReverbEffectHandler22StdReverbEffectHandler20AutowahEffectHandler19ChorusEffectHandler23CompressorEffectHandler23DistortionEffectHandler17EchoEffectHandler22EqualizerEffectHandler20FlangerEffectHandler21FshifterEffectHandler22ModulatorEffectHandler21PshifterEffectHandler21VmorpherEffectHandler28DedicatedDialogEffectHandler25DedicatedLfeEffectHandler24ConvolutionEffectHandlerEEEEEEDcT_DpT0_', symObjAddr: 0x2E30, symBinAddr: 0x15A00, symSize: 0x30 }
  - { offset: 0x13AE22, size: 0x8, addend: 0x0, symName: '__ZNSt3__116__variant_detail12__visitation6__base12__dispatcherIJLm12EEE10__dispatchB8fe200100IONS1_9__variant15__value_visitorIZN12_GLOBAL__N_110alEffectivEN3gsl8not_nullIPN2al7ContextEEEjiPKiE3$_0EEJRNS0_6__baseILNS0_6_TraitE0EJ17NullEffectHandler19ReverbEffectHandler22StdReverbEffectHandler20AutowahEffectHandler19ChorusEffectHandler23CompressorEffectHandler23DistortionEffectHandler17EchoEffectHandler22EqualizerEffectHandler20FlangerEffectHandler21FshifterEffectHandler22ModulatorEffectHandler21PshifterEffectHandler21VmorpherEffectHandler28DedicatedDialogEffectHandler25DedicatedLfeEffectHandler24ConvolutionEffectHandlerEEEEEEDcT_DpT0_', symObjAddr: 0x2E30, symBinAddr: 0x15A00, symSize: 0x30 }
  - { offset: 0x13AE40, size: 0x8, addend: 0x0, symName: '__ZNSt3__116__variant_detail12__visitation6__base12__dispatcherIJLm12EEE10__dispatchB8fe200100IONS1_9__variant15__value_visitorIZN12_GLOBAL__N_110alEffectivEN3gsl8not_nullIPN2al7ContextEEEjiPKiE3$_0EEJRNS0_6__baseILNS0_6_TraitE0EJ17NullEffectHandler19ReverbEffectHandler22StdReverbEffectHandler20AutowahEffectHandler19ChorusEffectHandler23CompressorEffectHandler23DistortionEffectHandler17EchoEffectHandler22EqualizerEffectHandler20FlangerEffectHandler21FshifterEffectHandler22ModulatorEffectHandler21PshifterEffectHandler21VmorpherEffectHandler28DedicatedDialogEffectHandler25DedicatedLfeEffectHandler24ConvolutionEffectHandlerEEEEEEDcT_DpT0_', symObjAddr: 0x2E30, symBinAddr: 0x15A00, symSize: 0x30 }
  - { offset: 0x13AFF0, size: 0x8, addend: 0x0, symName: '__ZNSt3__116__variant_detail12__visitation6__base12__dispatcherIJLm13EEE10__dispatchB8fe200100IONS1_9__variant15__value_visitorIZN12_GLOBAL__N_110alEffectivEN3gsl8not_nullIPN2al7ContextEEEjiPKiE3$_0EEJRNS0_6__baseILNS0_6_TraitE0EJ17NullEffectHandler19ReverbEffectHandler22StdReverbEffectHandler20AutowahEffectHandler19ChorusEffectHandler23CompressorEffectHandler23DistortionEffectHandler17EchoEffectHandler22EqualizerEffectHandler20FlangerEffectHandler21FshifterEffectHandler22ModulatorEffectHandler21PshifterEffectHandler21VmorpherEffectHandler28DedicatedDialogEffectHandler25DedicatedLfeEffectHandler24ConvolutionEffectHandlerEEEEEEDcT_DpT0_', symObjAddr: 0x2E60, symBinAddr: 0x15A30, symSize: 0x30 }
  - { offset: 0x13B024, size: 0x8, addend: 0x0, symName: '__ZNSt3__116__variant_detail12__visitation6__base12__dispatcherIJLm13EEE10__dispatchB8fe200100IONS1_9__variant15__value_visitorIZN12_GLOBAL__N_110alEffectivEN3gsl8not_nullIPN2al7ContextEEEjiPKiE3$_0EEJRNS0_6__baseILNS0_6_TraitE0EJ17NullEffectHandler19ReverbEffectHandler22StdReverbEffectHandler20AutowahEffectHandler19ChorusEffectHandler23CompressorEffectHandler23DistortionEffectHandler17EchoEffectHandler22EqualizerEffectHandler20FlangerEffectHandler21FshifterEffectHandler22ModulatorEffectHandler21PshifterEffectHandler21VmorpherEffectHandler28DedicatedDialogEffectHandler25DedicatedLfeEffectHandler24ConvolutionEffectHandlerEEEEEEDcT_DpT0_', symObjAddr: 0x2E60, symBinAddr: 0x15A30, symSize: 0x30 }
  - { offset: 0x13B042, size: 0x8, addend: 0x0, symName: '__ZNSt3__116__variant_detail12__visitation6__base12__dispatcherIJLm13EEE10__dispatchB8fe200100IONS1_9__variant15__value_visitorIZN12_GLOBAL__N_110alEffectivEN3gsl8not_nullIPN2al7ContextEEEjiPKiE3$_0EEJRNS0_6__baseILNS0_6_TraitE0EJ17NullEffectHandler19ReverbEffectHandler22StdReverbEffectHandler20AutowahEffectHandler19ChorusEffectHandler23CompressorEffectHandler23DistortionEffectHandler17EchoEffectHandler22EqualizerEffectHandler20FlangerEffectHandler21FshifterEffectHandler22ModulatorEffectHandler21PshifterEffectHandler21VmorpherEffectHandler28DedicatedDialogEffectHandler25DedicatedLfeEffectHandler24ConvolutionEffectHandlerEEEEEEDcT_DpT0_', symObjAddr: 0x2E60, symBinAddr: 0x15A30, symSize: 0x30 }
  - { offset: 0x13B1F2, size: 0x8, addend: 0x0, symName: '__ZNSt3__116__variant_detail12__visitation6__base12__dispatcherIJLm14EEE10__dispatchB8fe200100IONS1_9__variant15__value_visitorIZN12_GLOBAL__N_110alEffectivEN3gsl8not_nullIPN2al7ContextEEEjiPKiE3$_0EEJRNS0_6__baseILNS0_6_TraitE0EJ17NullEffectHandler19ReverbEffectHandler22StdReverbEffectHandler20AutowahEffectHandler19ChorusEffectHandler23CompressorEffectHandler23DistortionEffectHandler17EchoEffectHandler22EqualizerEffectHandler20FlangerEffectHandler21FshifterEffectHandler22ModulatorEffectHandler21PshifterEffectHandler21VmorpherEffectHandler28DedicatedDialogEffectHandler25DedicatedLfeEffectHandler24ConvolutionEffectHandlerEEEEEEDcT_DpT0_', symObjAddr: 0x2E90, symBinAddr: 0x15A60, symSize: 0x30 }
  - { offset: 0x13B226, size: 0x8, addend: 0x0, symName: '__ZNSt3__116__variant_detail12__visitation6__base12__dispatcherIJLm14EEE10__dispatchB8fe200100IONS1_9__variant15__value_visitorIZN12_GLOBAL__N_110alEffectivEN3gsl8not_nullIPN2al7ContextEEEjiPKiE3$_0EEJRNS0_6__baseILNS0_6_TraitE0EJ17NullEffectHandler19ReverbEffectHandler22StdReverbEffectHandler20AutowahEffectHandler19ChorusEffectHandler23CompressorEffectHandler23DistortionEffectHandler17EchoEffectHandler22EqualizerEffectHandler20FlangerEffectHandler21FshifterEffectHandler22ModulatorEffectHandler21PshifterEffectHandler21VmorpherEffectHandler28DedicatedDialogEffectHandler25DedicatedLfeEffectHandler24ConvolutionEffectHandlerEEEEEEDcT_DpT0_', symObjAddr: 0x2E90, symBinAddr: 0x15A60, symSize: 0x30 }
  - { offset: 0x13B244, size: 0x8, addend: 0x0, symName: '__ZNSt3__116__variant_detail12__visitation6__base12__dispatcherIJLm14EEE10__dispatchB8fe200100IONS1_9__variant15__value_visitorIZN12_GLOBAL__N_110alEffectivEN3gsl8not_nullIPN2al7ContextEEEjiPKiE3$_0EEJRNS0_6__baseILNS0_6_TraitE0EJ17NullEffectHandler19ReverbEffectHandler22StdReverbEffectHandler20AutowahEffectHandler19ChorusEffectHandler23CompressorEffectHandler23DistortionEffectHandler17EchoEffectHandler22EqualizerEffectHandler20FlangerEffectHandler21FshifterEffectHandler22ModulatorEffectHandler21PshifterEffectHandler21VmorpherEffectHandler28DedicatedDialogEffectHandler25DedicatedLfeEffectHandler24ConvolutionEffectHandlerEEEEEEDcT_DpT0_', symObjAddr: 0x2E90, symBinAddr: 0x15A60, symSize: 0x30 }
  - { offset: 0x13B3F4, size: 0x8, addend: 0x0, symName: '__ZNSt3__116__variant_detail12__visitation6__base12__dispatcherIJLm15EEE10__dispatchB8fe200100IONS1_9__variant15__value_visitorIZN12_GLOBAL__N_110alEffectivEN3gsl8not_nullIPN2al7ContextEEEjiPKiE3$_0EEJRNS0_6__baseILNS0_6_TraitE0EJ17NullEffectHandler19ReverbEffectHandler22StdReverbEffectHandler20AutowahEffectHandler19ChorusEffectHandler23CompressorEffectHandler23DistortionEffectHandler17EchoEffectHandler22EqualizerEffectHandler20FlangerEffectHandler21FshifterEffectHandler22ModulatorEffectHandler21PshifterEffectHandler21VmorpherEffectHandler28DedicatedDialogEffectHandler25DedicatedLfeEffectHandler24ConvolutionEffectHandlerEEEEEEDcT_DpT0_', symObjAddr: 0x2EC0, symBinAddr: 0x15A90, symSize: 0x30 }
  - { offset: 0x13B428, size: 0x8, addend: 0x0, symName: '__ZNSt3__116__variant_detail12__visitation6__base12__dispatcherIJLm15EEE10__dispatchB8fe200100IONS1_9__variant15__value_visitorIZN12_GLOBAL__N_110alEffectivEN3gsl8not_nullIPN2al7ContextEEEjiPKiE3$_0EEJRNS0_6__baseILNS0_6_TraitE0EJ17NullEffectHandler19ReverbEffectHandler22StdReverbEffectHandler20AutowahEffectHandler19ChorusEffectHandler23CompressorEffectHandler23DistortionEffectHandler17EchoEffectHandler22EqualizerEffectHandler20FlangerEffectHandler21FshifterEffectHandler22ModulatorEffectHandler21PshifterEffectHandler21VmorpherEffectHandler28DedicatedDialogEffectHandler25DedicatedLfeEffectHandler24ConvolutionEffectHandlerEEEEEEDcT_DpT0_', symObjAddr: 0x2EC0, symBinAddr: 0x15A90, symSize: 0x30 }
  - { offset: 0x13B446, size: 0x8, addend: 0x0, symName: '__ZNSt3__116__variant_detail12__visitation6__base12__dispatcherIJLm15EEE10__dispatchB8fe200100IONS1_9__variant15__value_visitorIZN12_GLOBAL__N_110alEffectivEN3gsl8not_nullIPN2al7ContextEEEjiPKiE3$_0EEJRNS0_6__baseILNS0_6_TraitE0EJ17NullEffectHandler19ReverbEffectHandler22StdReverbEffectHandler20AutowahEffectHandler19ChorusEffectHandler23CompressorEffectHandler23DistortionEffectHandler17EchoEffectHandler22EqualizerEffectHandler20FlangerEffectHandler21FshifterEffectHandler22ModulatorEffectHandler21PshifterEffectHandler21VmorpherEffectHandler28DedicatedDialogEffectHandler25DedicatedLfeEffectHandler24ConvolutionEffectHandlerEEEEEEDcT_DpT0_', symObjAddr: 0x2EC0, symBinAddr: 0x15A90, symSize: 0x30 }
  - { offset: 0x13B5F6, size: 0x8, addend: 0x0, symName: '__ZNSt3__116__variant_detail12__visitation6__base12__dispatcherIJLm16EEE10__dispatchB8fe200100IONS1_9__variant15__value_visitorIZN12_GLOBAL__N_110alEffectivEN3gsl8not_nullIPN2al7ContextEEEjiPKiE3$_0EEJRNS0_6__baseILNS0_6_TraitE0EJ17NullEffectHandler19ReverbEffectHandler22StdReverbEffectHandler20AutowahEffectHandler19ChorusEffectHandler23CompressorEffectHandler23DistortionEffectHandler17EchoEffectHandler22EqualizerEffectHandler20FlangerEffectHandler21FshifterEffectHandler22ModulatorEffectHandler21PshifterEffectHandler21VmorpherEffectHandler28DedicatedDialogEffectHandler25DedicatedLfeEffectHandler24ConvolutionEffectHandlerEEEEEEDcT_DpT0_', symObjAddr: 0x2EF0, symBinAddr: 0x15AC0, symSize: 0x30 }
  - { offset: 0x13B62A, size: 0x8, addend: 0x0, symName: '__ZNSt3__116__variant_detail12__visitation6__base12__dispatcherIJLm16EEE10__dispatchB8fe200100IONS1_9__variant15__value_visitorIZN12_GLOBAL__N_110alEffectivEN3gsl8not_nullIPN2al7ContextEEEjiPKiE3$_0EEJRNS0_6__baseILNS0_6_TraitE0EJ17NullEffectHandler19ReverbEffectHandler22StdReverbEffectHandler20AutowahEffectHandler19ChorusEffectHandler23CompressorEffectHandler23DistortionEffectHandler17EchoEffectHandler22EqualizerEffectHandler20FlangerEffectHandler21FshifterEffectHandler22ModulatorEffectHandler21PshifterEffectHandler21VmorpherEffectHandler28DedicatedDialogEffectHandler25DedicatedLfeEffectHandler24ConvolutionEffectHandlerEEEEEEDcT_DpT0_', symObjAddr: 0x2EF0, symBinAddr: 0x15AC0, symSize: 0x30 }
  - { offset: 0x13B648, size: 0x8, addend: 0x0, symName: '__ZNSt3__116__variant_detail12__visitation6__base12__dispatcherIJLm16EEE10__dispatchB8fe200100IONS1_9__variant15__value_visitorIZN12_GLOBAL__N_110alEffectivEN3gsl8not_nullIPN2al7ContextEEEjiPKiE3$_0EEJRNS0_6__baseILNS0_6_TraitE0EJ17NullEffectHandler19ReverbEffectHandler22StdReverbEffectHandler20AutowahEffectHandler19ChorusEffectHandler23CompressorEffectHandler23DistortionEffectHandler17EchoEffectHandler22EqualizerEffectHandler20FlangerEffectHandler21FshifterEffectHandler22ModulatorEffectHandler21PshifterEffectHandler21VmorpherEffectHandler28DedicatedDialogEffectHandler25DedicatedLfeEffectHandler24ConvolutionEffectHandlerEEEEEEDcT_DpT0_', symObjAddr: 0x2EF0, symBinAddr: 0x15AC0, symSize: 0x30 }
  - { offset: 0x13B81C, size: 0x8, addend: 0x0, symName: '__ZNSt3__116__variant_detail12__visitation6__base12__dispatcherIJLm0EEE10__dispatchB8fe200100IONS1_9__variant15__value_visitorIZN12_GLOBAL__N_19alEffectfEN3gsl8not_nullIPN2al7ContextEEEjifE3$_0EEJRNS0_6__baseILNS0_6_TraitE0EJ17NullEffectHandler19ReverbEffectHandler22StdReverbEffectHandler20AutowahEffectHandler19ChorusEffectHandler23CompressorEffectHandler23DistortionEffectHandler17EchoEffectHandler22EqualizerEffectHandler20FlangerEffectHandler21FshifterEffectHandler22ModulatorEffectHandler21PshifterEffectHandler21VmorpherEffectHandler28DedicatedDialogEffectHandler25DedicatedLfeEffectHandler24ConvolutionEffectHandlerEEEEEEDcT_DpT0_', symObjAddr: 0x2F20, symBinAddr: 0x15AF0, symSize: 0x30 }
  - { offset: 0x13B850, size: 0x8, addend: 0x0, symName: '__ZNSt3__116__variant_detail12__visitation6__base12__dispatcherIJLm0EEE10__dispatchB8fe200100IONS1_9__variant15__value_visitorIZN12_GLOBAL__N_19alEffectfEN3gsl8not_nullIPN2al7ContextEEEjifE3$_0EEJRNS0_6__baseILNS0_6_TraitE0EJ17NullEffectHandler19ReverbEffectHandler22StdReverbEffectHandler20AutowahEffectHandler19ChorusEffectHandler23CompressorEffectHandler23DistortionEffectHandler17EchoEffectHandler22EqualizerEffectHandler20FlangerEffectHandler21FshifterEffectHandler22ModulatorEffectHandler21PshifterEffectHandler21VmorpherEffectHandler28DedicatedDialogEffectHandler25DedicatedLfeEffectHandler24ConvolutionEffectHandlerEEEEEEDcT_DpT0_', symObjAddr: 0x2F20, symBinAddr: 0x15AF0, symSize: 0x30 }
  - { offset: 0x13B86E, size: 0x8, addend: 0x0, symName: '__ZNSt3__116__variant_detail12__visitation6__base12__dispatcherIJLm0EEE10__dispatchB8fe200100IONS1_9__variant15__value_visitorIZN12_GLOBAL__N_19alEffectfEN3gsl8not_nullIPN2al7ContextEEEjifE3$_0EEJRNS0_6__baseILNS0_6_TraitE0EJ17NullEffectHandler19ReverbEffectHandler22StdReverbEffectHandler20AutowahEffectHandler19ChorusEffectHandler23CompressorEffectHandler23DistortionEffectHandler17EchoEffectHandler22EqualizerEffectHandler20FlangerEffectHandler21FshifterEffectHandler22ModulatorEffectHandler21PshifterEffectHandler21VmorpherEffectHandler28DedicatedDialogEffectHandler25DedicatedLfeEffectHandler24ConvolutionEffectHandlerEEEEEEDcT_DpT0_', symObjAddr: 0x2F20, symBinAddr: 0x15AF0, symSize: 0x30 }
  - { offset: 0x13BA1E, size: 0x8, addend: 0x0, symName: '__ZNSt3__116__variant_detail12__visitation6__base12__dispatcherIJLm1EEE10__dispatchB8fe200100IONS1_9__variant15__value_visitorIZN12_GLOBAL__N_19alEffectfEN3gsl8not_nullIPN2al7ContextEEEjifE3$_0EEJRNS0_6__baseILNS0_6_TraitE0EJ17NullEffectHandler19ReverbEffectHandler22StdReverbEffectHandler20AutowahEffectHandler19ChorusEffectHandler23CompressorEffectHandler23DistortionEffectHandler17EchoEffectHandler22EqualizerEffectHandler20FlangerEffectHandler21FshifterEffectHandler22ModulatorEffectHandler21PshifterEffectHandler21VmorpherEffectHandler28DedicatedDialogEffectHandler25DedicatedLfeEffectHandler24ConvolutionEffectHandlerEEEEEEDcT_DpT0_', symObjAddr: 0x2F50, symBinAddr: 0x15B20, symSize: 0x30 }
  - { offset: 0x13BA52, size: 0x8, addend: 0x0, symName: '__ZNSt3__116__variant_detail12__visitation6__base12__dispatcherIJLm1EEE10__dispatchB8fe200100IONS1_9__variant15__value_visitorIZN12_GLOBAL__N_19alEffectfEN3gsl8not_nullIPN2al7ContextEEEjifE3$_0EEJRNS0_6__baseILNS0_6_TraitE0EJ17NullEffectHandler19ReverbEffectHandler22StdReverbEffectHandler20AutowahEffectHandler19ChorusEffectHandler23CompressorEffectHandler23DistortionEffectHandler17EchoEffectHandler22EqualizerEffectHandler20FlangerEffectHandler21FshifterEffectHandler22ModulatorEffectHandler21PshifterEffectHandler21VmorpherEffectHandler28DedicatedDialogEffectHandler25DedicatedLfeEffectHandler24ConvolutionEffectHandlerEEEEEEDcT_DpT0_', symObjAddr: 0x2F50, symBinAddr: 0x15B20, symSize: 0x30 }
  - { offset: 0x13BA70, size: 0x8, addend: 0x0, symName: '__ZNSt3__116__variant_detail12__visitation6__base12__dispatcherIJLm1EEE10__dispatchB8fe200100IONS1_9__variant15__value_visitorIZN12_GLOBAL__N_19alEffectfEN3gsl8not_nullIPN2al7ContextEEEjifE3$_0EEJRNS0_6__baseILNS0_6_TraitE0EJ17NullEffectHandler19ReverbEffectHandler22StdReverbEffectHandler20AutowahEffectHandler19ChorusEffectHandler23CompressorEffectHandler23DistortionEffectHandler17EchoEffectHandler22EqualizerEffectHandler20FlangerEffectHandler21FshifterEffectHandler22ModulatorEffectHandler21PshifterEffectHandler21VmorpherEffectHandler28DedicatedDialogEffectHandler25DedicatedLfeEffectHandler24ConvolutionEffectHandlerEEEEEEDcT_DpT0_', symObjAddr: 0x2F50, symBinAddr: 0x15B20, symSize: 0x30 }
  - { offset: 0x13BC20, size: 0x8, addend: 0x0, symName: '__ZNSt3__116__variant_detail12__visitation6__base12__dispatcherIJLm2EEE10__dispatchB8fe200100IONS1_9__variant15__value_visitorIZN12_GLOBAL__N_19alEffectfEN3gsl8not_nullIPN2al7ContextEEEjifE3$_0EEJRNS0_6__baseILNS0_6_TraitE0EJ17NullEffectHandler19ReverbEffectHandler22StdReverbEffectHandler20AutowahEffectHandler19ChorusEffectHandler23CompressorEffectHandler23DistortionEffectHandler17EchoEffectHandler22EqualizerEffectHandler20FlangerEffectHandler21FshifterEffectHandler22ModulatorEffectHandler21PshifterEffectHandler21VmorpherEffectHandler28DedicatedDialogEffectHandler25DedicatedLfeEffectHandler24ConvolutionEffectHandlerEEEEEEDcT_DpT0_', symObjAddr: 0x2F80, symBinAddr: 0x15B50, symSize: 0x30 }
  - { offset: 0x13BC54, size: 0x8, addend: 0x0, symName: '__ZNSt3__116__variant_detail12__visitation6__base12__dispatcherIJLm2EEE10__dispatchB8fe200100IONS1_9__variant15__value_visitorIZN12_GLOBAL__N_19alEffectfEN3gsl8not_nullIPN2al7ContextEEEjifE3$_0EEJRNS0_6__baseILNS0_6_TraitE0EJ17NullEffectHandler19ReverbEffectHandler22StdReverbEffectHandler20AutowahEffectHandler19ChorusEffectHandler23CompressorEffectHandler23DistortionEffectHandler17EchoEffectHandler22EqualizerEffectHandler20FlangerEffectHandler21FshifterEffectHandler22ModulatorEffectHandler21PshifterEffectHandler21VmorpherEffectHandler28DedicatedDialogEffectHandler25DedicatedLfeEffectHandler24ConvolutionEffectHandlerEEEEEEDcT_DpT0_', symObjAddr: 0x2F80, symBinAddr: 0x15B50, symSize: 0x30 }
  - { offset: 0x13BC72, size: 0x8, addend: 0x0, symName: '__ZNSt3__116__variant_detail12__visitation6__base12__dispatcherIJLm2EEE10__dispatchB8fe200100IONS1_9__variant15__value_visitorIZN12_GLOBAL__N_19alEffectfEN3gsl8not_nullIPN2al7ContextEEEjifE3$_0EEJRNS0_6__baseILNS0_6_TraitE0EJ17NullEffectHandler19ReverbEffectHandler22StdReverbEffectHandler20AutowahEffectHandler19ChorusEffectHandler23CompressorEffectHandler23DistortionEffectHandler17EchoEffectHandler22EqualizerEffectHandler20FlangerEffectHandler21FshifterEffectHandler22ModulatorEffectHandler21PshifterEffectHandler21VmorpherEffectHandler28DedicatedDialogEffectHandler25DedicatedLfeEffectHandler24ConvolutionEffectHandlerEEEEEEDcT_DpT0_', symObjAddr: 0x2F80, symBinAddr: 0x15B50, symSize: 0x30 }
  - { offset: 0x13BE22, size: 0x8, addend: 0x0, symName: '__ZNSt3__116__variant_detail12__visitation6__base12__dispatcherIJLm3EEE10__dispatchB8fe200100IONS1_9__variant15__value_visitorIZN12_GLOBAL__N_19alEffectfEN3gsl8not_nullIPN2al7ContextEEEjifE3$_0EEJRNS0_6__baseILNS0_6_TraitE0EJ17NullEffectHandler19ReverbEffectHandler22StdReverbEffectHandler20AutowahEffectHandler19ChorusEffectHandler23CompressorEffectHandler23DistortionEffectHandler17EchoEffectHandler22EqualizerEffectHandler20FlangerEffectHandler21FshifterEffectHandler22ModulatorEffectHandler21PshifterEffectHandler21VmorpherEffectHandler28DedicatedDialogEffectHandler25DedicatedLfeEffectHandler24ConvolutionEffectHandlerEEEEEEDcT_DpT0_', symObjAddr: 0x2FB0, symBinAddr: 0x15B80, symSize: 0x30 }
  - { offset: 0x13BE56, size: 0x8, addend: 0x0, symName: '__ZNSt3__116__variant_detail12__visitation6__base12__dispatcherIJLm3EEE10__dispatchB8fe200100IONS1_9__variant15__value_visitorIZN12_GLOBAL__N_19alEffectfEN3gsl8not_nullIPN2al7ContextEEEjifE3$_0EEJRNS0_6__baseILNS0_6_TraitE0EJ17NullEffectHandler19ReverbEffectHandler22StdReverbEffectHandler20AutowahEffectHandler19ChorusEffectHandler23CompressorEffectHandler23DistortionEffectHandler17EchoEffectHandler22EqualizerEffectHandler20FlangerEffectHandler21FshifterEffectHandler22ModulatorEffectHandler21PshifterEffectHandler21VmorpherEffectHandler28DedicatedDialogEffectHandler25DedicatedLfeEffectHandler24ConvolutionEffectHandlerEEEEEEDcT_DpT0_', symObjAddr: 0x2FB0, symBinAddr: 0x15B80, symSize: 0x30 }
  - { offset: 0x13BE74, size: 0x8, addend: 0x0, symName: '__ZNSt3__116__variant_detail12__visitation6__base12__dispatcherIJLm3EEE10__dispatchB8fe200100IONS1_9__variant15__value_visitorIZN12_GLOBAL__N_19alEffectfEN3gsl8not_nullIPN2al7ContextEEEjifE3$_0EEJRNS0_6__baseILNS0_6_TraitE0EJ17NullEffectHandler19ReverbEffectHandler22StdReverbEffectHandler20AutowahEffectHandler19ChorusEffectHandler23CompressorEffectHandler23DistortionEffectHandler17EchoEffectHandler22EqualizerEffectHandler20FlangerEffectHandler21FshifterEffectHandler22ModulatorEffectHandler21PshifterEffectHandler21VmorpherEffectHandler28DedicatedDialogEffectHandler25DedicatedLfeEffectHandler24ConvolutionEffectHandlerEEEEEEDcT_DpT0_', symObjAddr: 0x2FB0, symBinAddr: 0x15B80, symSize: 0x30 }
  - { offset: 0x13C024, size: 0x8, addend: 0x0, symName: '__ZNSt3__116__variant_detail12__visitation6__base12__dispatcherIJLm4EEE10__dispatchB8fe200100IONS1_9__variant15__value_visitorIZN12_GLOBAL__N_19alEffectfEN3gsl8not_nullIPN2al7ContextEEEjifE3$_0EEJRNS0_6__baseILNS0_6_TraitE0EJ17NullEffectHandler19ReverbEffectHandler22StdReverbEffectHandler20AutowahEffectHandler19ChorusEffectHandler23CompressorEffectHandler23DistortionEffectHandler17EchoEffectHandler22EqualizerEffectHandler20FlangerEffectHandler21FshifterEffectHandler22ModulatorEffectHandler21PshifterEffectHandler21VmorpherEffectHandler28DedicatedDialogEffectHandler25DedicatedLfeEffectHandler24ConvolutionEffectHandlerEEEEEEDcT_DpT0_', symObjAddr: 0x2FE0, symBinAddr: 0x15BB0, symSize: 0x30 }
  - { offset: 0x13C058, size: 0x8, addend: 0x0, symName: '__ZNSt3__116__variant_detail12__visitation6__base12__dispatcherIJLm4EEE10__dispatchB8fe200100IONS1_9__variant15__value_visitorIZN12_GLOBAL__N_19alEffectfEN3gsl8not_nullIPN2al7ContextEEEjifE3$_0EEJRNS0_6__baseILNS0_6_TraitE0EJ17NullEffectHandler19ReverbEffectHandler22StdReverbEffectHandler20AutowahEffectHandler19ChorusEffectHandler23CompressorEffectHandler23DistortionEffectHandler17EchoEffectHandler22EqualizerEffectHandler20FlangerEffectHandler21FshifterEffectHandler22ModulatorEffectHandler21PshifterEffectHandler21VmorpherEffectHandler28DedicatedDialogEffectHandler25DedicatedLfeEffectHandler24ConvolutionEffectHandlerEEEEEEDcT_DpT0_', symObjAddr: 0x2FE0, symBinAddr: 0x15BB0, symSize: 0x30 }
  - { offset: 0x13C076, size: 0x8, addend: 0x0, symName: '__ZNSt3__116__variant_detail12__visitation6__base12__dispatcherIJLm4EEE10__dispatchB8fe200100IONS1_9__variant15__value_visitorIZN12_GLOBAL__N_19alEffectfEN3gsl8not_nullIPN2al7ContextEEEjifE3$_0EEJRNS0_6__baseILNS0_6_TraitE0EJ17NullEffectHandler19ReverbEffectHandler22StdReverbEffectHandler20AutowahEffectHandler19ChorusEffectHandler23CompressorEffectHandler23DistortionEffectHandler17EchoEffectHandler22EqualizerEffectHandler20FlangerEffectHandler21FshifterEffectHandler22ModulatorEffectHandler21PshifterEffectHandler21VmorpherEffectHandler28DedicatedDialogEffectHandler25DedicatedLfeEffectHandler24ConvolutionEffectHandlerEEEEEEDcT_DpT0_', symObjAddr: 0x2FE0, symBinAddr: 0x15BB0, symSize: 0x30 }
  - { offset: 0x13C226, size: 0x8, addend: 0x0, symName: '__ZNSt3__116__variant_detail12__visitation6__base12__dispatcherIJLm5EEE10__dispatchB8fe200100IONS1_9__variant15__value_visitorIZN12_GLOBAL__N_19alEffectfEN3gsl8not_nullIPN2al7ContextEEEjifE3$_0EEJRNS0_6__baseILNS0_6_TraitE0EJ17NullEffectHandler19ReverbEffectHandler22StdReverbEffectHandler20AutowahEffectHandler19ChorusEffectHandler23CompressorEffectHandler23DistortionEffectHandler17EchoEffectHandler22EqualizerEffectHandler20FlangerEffectHandler21FshifterEffectHandler22ModulatorEffectHandler21PshifterEffectHandler21VmorpherEffectHandler28DedicatedDialogEffectHandler25DedicatedLfeEffectHandler24ConvolutionEffectHandlerEEEEEEDcT_DpT0_', symObjAddr: 0x3010, symBinAddr: 0x15BE0, symSize: 0x30 }
  - { offset: 0x13C25A, size: 0x8, addend: 0x0, symName: '__ZNSt3__116__variant_detail12__visitation6__base12__dispatcherIJLm5EEE10__dispatchB8fe200100IONS1_9__variant15__value_visitorIZN12_GLOBAL__N_19alEffectfEN3gsl8not_nullIPN2al7ContextEEEjifE3$_0EEJRNS0_6__baseILNS0_6_TraitE0EJ17NullEffectHandler19ReverbEffectHandler22StdReverbEffectHandler20AutowahEffectHandler19ChorusEffectHandler23CompressorEffectHandler23DistortionEffectHandler17EchoEffectHandler22EqualizerEffectHandler20FlangerEffectHandler21FshifterEffectHandler22ModulatorEffectHandler21PshifterEffectHandler21VmorpherEffectHandler28DedicatedDialogEffectHandler25DedicatedLfeEffectHandler24ConvolutionEffectHandlerEEEEEEDcT_DpT0_', symObjAddr: 0x3010, symBinAddr: 0x15BE0, symSize: 0x30 }
  - { offset: 0x13C278, size: 0x8, addend: 0x0, symName: '__ZNSt3__116__variant_detail12__visitation6__base12__dispatcherIJLm5EEE10__dispatchB8fe200100IONS1_9__variant15__value_visitorIZN12_GLOBAL__N_19alEffectfEN3gsl8not_nullIPN2al7ContextEEEjifE3$_0EEJRNS0_6__baseILNS0_6_TraitE0EJ17NullEffectHandler19ReverbEffectHandler22StdReverbEffectHandler20AutowahEffectHandler19ChorusEffectHandler23CompressorEffectHandler23DistortionEffectHandler17EchoEffectHandler22EqualizerEffectHandler20FlangerEffectHandler21FshifterEffectHandler22ModulatorEffectHandler21PshifterEffectHandler21VmorpherEffectHandler28DedicatedDialogEffectHandler25DedicatedLfeEffectHandler24ConvolutionEffectHandlerEEEEEEDcT_DpT0_', symObjAddr: 0x3010, symBinAddr: 0x15BE0, symSize: 0x30 }
  - { offset: 0x13C428, size: 0x8, addend: 0x0, symName: '__ZNSt3__116__variant_detail12__visitation6__base12__dispatcherIJLm6EEE10__dispatchB8fe200100IONS1_9__variant15__value_visitorIZN12_GLOBAL__N_19alEffectfEN3gsl8not_nullIPN2al7ContextEEEjifE3$_0EEJRNS0_6__baseILNS0_6_TraitE0EJ17NullEffectHandler19ReverbEffectHandler22StdReverbEffectHandler20AutowahEffectHandler19ChorusEffectHandler23CompressorEffectHandler23DistortionEffectHandler17EchoEffectHandler22EqualizerEffectHandler20FlangerEffectHandler21FshifterEffectHandler22ModulatorEffectHandler21PshifterEffectHandler21VmorpherEffectHandler28DedicatedDialogEffectHandler25DedicatedLfeEffectHandler24ConvolutionEffectHandlerEEEEEEDcT_DpT0_', symObjAddr: 0x3040, symBinAddr: 0x15C10, symSize: 0x30 }
  - { offset: 0x13C45C, size: 0x8, addend: 0x0, symName: '__ZNSt3__116__variant_detail12__visitation6__base12__dispatcherIJLm6EEE10__dispatchB8fe200100IONS1_9__variant15__value_visitorIZN12_GLOBAL__N_19alEffectfEN3gsl8not_nullIPN2al7ContextEEEjifE3$_0EEJRNS0_6__baseILNS0_6_TraitE0EJ17NullEffectHandler19ReverbEffectHandler22StdReverbEffectHandler20AutowahEffectHandler19ChorusEffectHandler23CompressorEffectHandler23DistortionEffectHandler17EchoEffectHandler22EqualizerEffectHandler20FlangerEffectHandler21FshifterEffectHandler22ModulatorEffectHandler21PshifterEffectHandler21VmorpherEffectHandler28DedicatedDialogEffectHandler25DedicatedLfeEffectHandler24ConvolutionEffectHandlerEEEEEEDcT_DpT0_', symObjAddr: 0x3040, symBinAddr: 0x15C10, symSize: 0x30 }
  - { offset: 0x13C47A, size: 0x8, addend: 0x0, symName: '__ZNSt3__116__variant_detail12__visitation6__base12__dispatcherIJLm6EEE10__dispatchB8fe200100IONS1_9__variant15__value_visitorIZN12_GLOBAL__N_19alEffectfEN3gsl8not_nullIPN2al7ContextEEEjifE3$_0EEJRNS0_6__baseILNS0_6_TraitE0EJ17NullEffectHandler19ReverbEffectHandler22StdReverbEffectHandler20AutowahEffectHandler19ChorusEffectHandler23CompressorEffectHandler23DistortionEffectHandler17EchoEffectHandler22EqualizerEffectHandler20FlangerEffectHandler21FshifterEffectHandler22ModulatorEffectHandler21PshifterEffectHandler21VmorpherEffectHandler28DedicatedDialogEffectHandler25DedicatedLfeEffectHandler24ConvolutionEffectHandlerEEEEEEDcT_DpT0_', symObjAddr: 0x3040, symBinAddr: 0x15C10, symSize: 0x30 }
  - { offset: 0x13C62A, size: 0x8, addend: 0x0, symName: '__ZNSt3__116__variant_detail12__visitation6__base12__dispatcherIJLm7EEE10__dispatchB8fe200100IONS1_9__variant15__value_visitorIZN12_GLOBAL__N_19alEffectfEN3gsl8not_nullIPN2al7ContextEEEjifE3$_0EEJRNS0_6__baseILNS0_6_TraitE0EJ17NullEffectHandler19ReverbEffectHandler22StdReverbEffectHandler20AutowahEffectHandler19ChorusEffectHandler23CompressorEffectHandler23DistortionEffectHandler17EchoEffectHandler22EqualizerEffectHandler20FlangerEffectHandler21FshifterEffectHandler22ModulatorEffectHandler21PshifterEffectHandler21VmorpherEffectHandler28DedicatedDialogEffectHandler25DedicatedLfeEffectHandler24ConvolutionEffectHandlerEEEEEEDcT_DpT0_', symObjAddr: 0x3070, symBinAddr: 0x15C40, symSize: 0x30 }
  - { offset: 0x13C65E, size: 0x8, addend: 0x0, symName: '__ZNSt3__116__variant_detail12__visitation6__base12__dispatcherIJLm7EEE10__dispatchB8fe200100IONS1_9__variant15__value_visitorIZN12_GLOBAL__N_19alEffectfEN3gsl8not_nullIPN2al7ContextEEEjifE3$_0EEJRNS0_6__baseILNS0_6_TraitE0EJ17NullEffectHandler19ReverbEffectHandler22StdReverbEffectHandler20AutowahEffectHandler19ChorusEffectHandler23CompressorEffectHandler23DistortionEffectHandler17EchoEffectHandler22EqualizerEffectHandler20FlangerEffectHandler21FshifterEffectHandler22ModulatorEffectHandler21PshifterEffectHandler21VmorpherEffectHandler28DedicatedDialogEffectHandler25DedicatedLfeEffectHandler24ConvolutionEffectHandlerEEEEEEDcT_DpT0_', symObjAddr: 0x3070, symBinAddr: 0x15C40, symSize: 0x30 }
  - { offset: 0x13C67C, size: 0x8, addend: 0x0, symName: '__ZNSt3__116__variant_detail12__visitation6__base12__dispatcherIJLm7EEE10__dispatchB8fe200100IONS1_9__variant15__value_visitorIZN12_GLOBAL__N_19alEffectfEN3gsl8not_nullIPN2al7ContextEEEjifE3$_0EEJRNS0_6__baseILNS0_6_TraitE0EJ17NullEffectHandler19ReverbEffectHandler22StdReverbEffectHandler20AutowahEffectHandler19ChorusEffectHandler23CompressorEffectHandler23DistortionEffectHandler17EchoEffectHandler22EqualizerEffectHandler20FlangerEffectHandler21FshifterEffectHandler22ModulatorEffectHandler21PshifterEffectHandler21VmorpherEffectHandler28DedicatedDialogEffectHandler25DedicatedLfeEffectHandler24ConvolutionEffectHandlerEEEEEEDcT_DpT0_', symObjAddr: 0x3070, symBinAddr: 0x15C40, symSize: 0x30 }
  - { offset: 0x13C82C, size: 0x8, addend: 0x0, symName: '__ZNSt3__116__variant_detail12__visitation6__base12__dispatcherIJLm8EEE10__dispatchB8fe200100IONS1_9__variant15__value_visitorIZN12_GLOBAL__N_19alEffectfEN3gsl8not_nullIPN2al7ContextEEEjifE3$_0EEJRNS0_6__baseILNS0_6_TraitE0EJ17NullEffectHandler19ReverbEffectHandler22StdReverbEffectHandler20AutowahEffectHandler19ChorusEffectHandler23CompressorEffectHandler23DistortionEffectHandler17EchoEffectHandler22EqualizerEffectHandler20FlangerEffectHandler21FshifterEffectHandler22ModulatorEffectHandler21PshifterEffectHandler21VmorpherEffectHandler28DedicatedDialogEffectHandler25DedicatedLfeEffectHandler24ConvolutionEffectHandlerEEEEEEDcT_DpT0_', symObjAddr: 0x30A0, symBinAddr: 0x15C70, symSize: 0x30 }
  - { offset: 0x13C860, size: 0x8, addend: 0x0, symName: '__ZNSt3__116__variant_detail12__visitation6__base12__dispatcherIJLm8EEE10__dispatchB8fe200100IONS1_9__variant15__value_visitorIZN12_GLOBAL__N_19alEffectfEN3gsl8not_nullIPN2al7ContextEEEjifE3$_0EEJRNS0_6__baseILNS0_6_TraitE0EJ17NullEffectHandler19ReverbEffectHandler22StdReverbEffectHandler20AutowahEffectHandler19ChorusEffectHandler23CompressorEffectHandler23DistortionEffectHandler17EchoEffectHandler22EqualizerEffectHandler20FlangerEffectHandler21FshifterEffectHandler22ModulatorEffectHandler21PshifterEffectHandler21VmorpherEffectHandler28DedicatedDialogEffectHandler25DedicatedLfeEffectHandler24ConvolutionEffectHandlerEEEEEEDcT_DpT0_', symObjAddr: 0x30A0, symBinAddr: 0x15C70, symSize: 0x30 }
  - { offset: 0x13C87E, size: 0x8, addend: 0x0, symName: '__ZNSt3__116__variant_detail12__visitation6__base12__dispatcherIJLm8EEE10__dispatchB8fe200100IONS1_9__variant15__value_visitorIZN12_GLOBAL__N_19alEffectfEN3gsl8not_nullIPN2al7ContextEEEjifE3$_0EEJRNS0_6__baseILNS0_6_TraitE0EJ17NullEffectHandler19ReverbEffectHandler22StdReverbEffectHandler20AutowahEffectHandler19ChorusEffectHandler23CompressorEffectHandler23DistortionEffectHandler17EchoEffectHandler22EqualizerEffectHandler20FlangerEffectHandler21FshifterEffectHandler22ModulatorEffectHandler21PshifterEffectHandler21VmorpherEffectHandler28DedicatedDialogEffectHandler25DedicatedLfeEffectHandler24ConvolutionEffectHandlerEEEEEEDcT_DpT0_', symObjAddr: 0x30A0, symBinAddr: 0x15C70, symSize: 0x30 }
  - { offset: 0x13CA2E, size: 0x8, addend: 0x0, symName: '__ZNSt3__116__variant_detail12__visitation6__base12__dispatcherIJLm9EEE10__dispatchB8fe200100IONS1_9__variant15__value_visitorIZN12_GLOBAL__N_19alEffectfEN3gsl8not_nullIPN2al7ContextEEEjifE3$_0EEJRNS0_6__baseILNS0_6_TraitE0EJ17NullEffectHandler19ReverbEffectHandler22StdReverbEffectHandler20AutowahEffectHandler19ChorusEffectHandler23CompressorEffectHandler23DistortionEffectHandler17EchoEffectHandler22EqualizerEffectHandler20FlangerEffectHandler21FshifterEffectHandler22ModulatorEffectHandler21PshifterEffectHandler21VmorpherEffectHandler28DedicatedDialogEffectHandler25DedicatedLfeEffectHandler24ConvolutionEffectHandlerEEEEEEDcT_DpT0_', symObjAddr: 0x30D0, symBinAddr: 0x15CA0, symSize: 0x30 }
  - { offset: 0x13CA62, size: 0x8, addend: 0x0, symName: '__ZNSt3__116__variant_detail12__visitation6__base12__dispatcherIJLm9EEE10__dispatchB8fe200100IONS1_9__variant15__value_visitorIZN12_GLOBAL__N_19alEffectfEN3gsl8not_nullIPN2al7ContextEEEjifE3$_0EEJRNS0_6__baseILNS0_6_TraitE0EJ17NullEffectHandler19ReverbEffectHandler22StdReverbEffectHandler20AutowahEffectHandler19ChorusEffectHandler23CompressorEffectHandler23DistortionEffectHandler17EchoEffectHandler22EqualizerEffectHandler20FlangerEffectHandler21FshifterEffectHandler22ModulatorEffectHandler21PshifterEffectHandler21VmorpherEffectHandler28DedicatedDialogEffectHandler25DedicatedLfeEffectHandler24ConvolutionEffectHandlerEEEEEEDcT_DpT0_', symObjAddr: 0x30D0, symBinAddr: 0x15CA0, symSize: 0x30 }
  - { offset: 0x13CA80, size: 0x8, addend: 0x0, symName: '__ZNSt3__116__variant_detail12__visitation6__base12__dispatcherIJLm9EEE10__dispatchB8fe200100IONS1_9__variant15__value_visitorIZN12_GLOBAL__N_19alEffectfEN3gsl8not_nullIPN2al7ContextEEEjifE3$_0EEJRNS0_6__baseILNS0_6_TraitE0EJ17NullEffectHandler19ReverbEffectHandler22StdReverbEffectHandler20AutowahEffectHandler19ChorusEffectHandler23CompressorEffectHandler23DistortionEffectHandler17EchoEffectHandler22EqualizerEffectHandler20FlangerEffectHandler21FshifterEffectHandler22ModulatorEffectHandler21PshifterEffectHandler21VmorpherEffectHandler28DedicatedDialogEffectHandler25DedicatedLfeEffectHandler24ConvolutionEffectHandlerEEEEEEDcT_DpT0_', symObjAddr: 0x30D0, symBinAddr: 0x15CA0, symSize: 0x30 }
  - { offset: 0x13CC30, size: 0x8, addend: 0x0, symName: '__ZNSt3__116__variant_detail12__visitation6__base12__dispatcherIJLm10EEE10__dispatchB8fe200100IONS1_9__variant15__value_visitorIZN12_GLOBAL__N_19alEffectfEN3gsl8not_nullIPN2al7ContextEEEjifE3$_0EEJRNS0_6__baseILNS0_6_TraitE0EJ17NullEffectHandler19ReverbEffectHandler22StdReverbEffectHandler20AutowahEffectHandler19ChorusEffectHandler23CompressorEffectHandler23DistortionEffectHandler17EchoEffectHandler22EqualizerEffectHandler20FlangerEffectHandler21FshifterEffectHandler22ModulatorEffectHandler21PshifterEffectHandler21VmorpherEffectHandler28DedicatedDialogEffectHandler25DedicatedLfeEffectHandler24ConvolutionEffectHandlerEEEEEEDcT_DpT0_', symObjAddr: 0x3100, symBinAddr: 0x15CD0, symSize: 0x30 }
  - { offset: 0x13CC64, size: 0x8, addend: 0x0, symName: '__ZNSt3__116__variant_detail12__visitation6__base12__dispatcherIJLm10EEE10__dispatchB8fe200100IONS1_9__variant15__value_visitorIZN12_GLOBAL__N_19alEffectfEN3gsl8not_nullIPN2al7ContextEEEjifE3$_0EEJRNS0_6__baseILNS0_6_TraitE0EJ17NullEffectHandler19ReverbEffectHandler22StdReverbEffectHandler20AutowahEffectHandler19ChorusEffectHandler23CompressorEffectHandler23DistortionEffectHandler17EchoEffectHandler22EqualizerEffectHandler20FlangerEffectHandler21FshifterEffectHandler22ModulatorEffectHandler21PshifterEffectHandler21VmorpherEffectHandler28DedicatedDialogEffectHandler25DedicatedLfeEffectHandler24ConvolutionEffectHandlerEEEEEEDcT_DpT0_', symObjAddr: 0x3100, symBinAddr: 0x15CD0, symSize: 0x30 }
  - { offset: 0x13CC82, size: 0x8, addend: 0x0, symName: '__ZNSt3__116__variant_detail12__visitation6__base12__dispatcherIJLm10EEE10__dispatchB8fe200100IONS1_9__variant15__value_visitorIZN12_GLOBAL__N_19alEffectfEN3gsl8not_nullIPN2al7ContextEEEjifE3$_0EEJRNS0_6__baseILNS0_6_TraitE0EJ17NullEffectHandler19ReverbEffectHandler22StdReverbEffectHandler20AutowahEffectHandler19ChorusEffectHandler23CompressorEffectHandler23DistortionEffectHandler17EchoEffectHandler22EqualizerEffectHandler20FlangerEffectHandler21FshifterEffectHandler22ModulatorEffectHandler21PshifterEffectHandler21VmorpherEffectHandler28DedicatedDialogEffectHandler25DedicatedLfeEffectHandler24ConvolutionEffectHandlerEEEEEEDcT_DpT0_', symObjAddr: 0x3100, symBinAddr: 0x15CD0, symSize: 0x30 }
  - { offset: 0x13CE32, size: 0x8, addend: 0x0, symName: '__ZNSt3__116__variant_detail12__visitation6__base12__dispatcherIJLm11EEE10__dispatchB8fe200100IONS1_9__variant15__value_visitorIZN12_GLOBAL__N_19alEffectfEN3gsl8not_nullIPN2al7ContextEEEjifE3$_0EEJRNS0_6__baseILNS0_6_TraitE0EJ17NullEffectHandler19ReverbEffectHandler22StdReverbEffectHandler20AutowahEffectHandler19ChorusEffectHandler23CompressorEffectHandler23DistortionEffectHandler17EchoEffectHandler22EqualizerEffectHandler20FlangerEffectHandler21FshifterEffectHandler22ModulatorEffectHandler21PshifterEffectHandler21VmorpherEffectHandler28DedicatedDialogEffectHandler25DedicatedLfeEffectHandler24ConvolutionEffectHandlerEEEEEEDcT_DpT0_', symObjAddr: 0x3130, symBinAddr: 0x15D00, symSize: 0x30 }
  - { offset: 0x13CE66, size: 0x8, addend: 0x0, symName: '__ZNSt3__116__variant_detail12__visitation6__base12__dispatcherIJLm11EEE10__dispatchB8fe200100IONS1_9__variant15__value_visitorIZN12_GLOBAL__N_19alEffectfEN3gsl8not_nullIPN2al7ContextEEEjifE3$_0EEJRNS0_6__baseILNS0_6_TraitE0EJ17NullEffectHandler19ReverbEffectHandler22StdReverbEffectHandler20AutowahEffectHandler19ChorusEffectHandler23CompressorEffectHandler23DistortionEffectHandler17EchoEffectHandler22EqualizerEffectHandler20FlangerEffectHandler21FshifterEffectHandler22ModulatorEffectHandler21PshifterEffectHandler21VmorpherEffectHandler28DedicatedDialogEffectHandler25DedicatedLfeEffectHandler24ConvolutionEffectHandlerEEEEEEDcT_DpT0_', symObjAddr: 0x3130, symBinAddr: 0x15D00, symSize: 0x30 }
  - { offset: 0x13CE84, size: 0x8, addend: 0x0, symName: '__ZNSt3__116__variant_detail12__visitation6__base12__dispatcherIJLm11EEE10__dispatchB8fe200100IONS1_9__variant15__value_visitorIZN12_GLOBAL__N_19alEffectfEN3gsl8not_nullIPN2al7ContextEEEjifE3$_0EEJRNS0_6__baseILNS0_6_TraitE0EJ17NullEffectHandler19ReverbEffectHandler22StdReverbEffectHandler20AutowahEffectHandler19ChorusEffectHandler23CompressorEffectHandler23DistortionEffectHandler17EchoEffectHandler22EqualizerEffectHandler20FlangerEffectHandler21FshifterEffectHandler22ModulatorEffectHandler21PshifterEffectHandler21VmorpherEffectHandler28DedicatedDialogEffectHandler25DedicatedLfeEffectHandler24ConvolutionEffectHandlerEEEEEEDcT_DpT0_', symObjAddr: 0x3130, symBinAddr: 0x15D00, symSize: 0x30 }
  - { offset: 0x13D034, size: 0x8, addend: 0x0, symName: '__ZNSt3__116__variant_detail12__visitation6__base12__dispatcherIJLm12EEE10__dispatchB8fe200100IONS1_9__variant15__value_visitorIZN12_GLOBAL__N_19alEffectfEN3gsl8not_nullIPN2al7ContextEEEjifE3$_0EEJRNS0_6__baseILNS0_6_TraitE0EJ17NullEffectHandler19ReverbEffectHandler22StdReverbEffectHandler20AutowahEffectHandler19ChorusEffectHandler23CompressorEffectHandler23DistortionEffectHandler17EchoEffectHandler22EqualizerEffectHandler20FlangerEffectHandler21FshifterEffectHandler22ModulatorEffectHandler21PshifterEffectHandler21VmorpherEffectHandler28DedicatedDialogEffectHandler25DedicatedLfeEffectHandler24ConvolutionEffectHandlerEEEEEEDcT_DpT0_', symObjAddr: 0x3160, symBinAddr: 0x15D30, symSize: 0x30 }
  - { offset: 0x13D068, size: 0x8, addend: 0x0, symName: '__ZNSt3__116__variant_detail12__visitation6__base12__dispatcherIJLm12EEE10__dispatchB8fe200100IONS1_9__variant15__value_visitorIZN12_GLOBAL__N_19alEffectfEN3gsl8not_nullIPN2al7ContextEEEjifE3$_0EEJRNS0_6__baseILNS0_6_TraitE0EJ17NullEffectHandler19ReverbEffectHandler22StdReverbEffectHandler20AutowahEffectHandler19ChorusEffectHandler23CompressorEffectHandler23DistortionEffectHandler17EchoEffectHandler22EqualizerEffectHandler20FlangerEffectHandler21FshifterEffectHandler22ModulatorEffectHandler21PshifterEffectHandler21VmorpherEffectHandler28DedicatedDialogEffectHandler25DedicatedLfeEffectHandler24ConvolutionEffectHandlerEEEEEEDcT_DpT0_', symObjAddr: 0x3160, symBinAddr: 0x15D30, symSize: 0x30 }
  - { offset: 0x13D086, size: 0x8, addend: 0x0, symName: '__ZNSt3__116__variant_detail12__visitation6__base12__dispatcherIJLm12EEE10__dispatchB8fe200100IONS1_9__variant15__value_visitorIZN12_GLOBAL__N_19alEffectfEN3gsl8not_nullIPN2al7ContextEEEjifE3$_0EEJRNS0_6__baseILNS0_6_TraitE0EJ17NullEffectHandler19ReverbEffectHandler22StdReverbEffectHandler20AutowahEffectHandler19ChorusEffectHandler23CompressorEffectHandler23DistortionEffectHandler17EchoEffectHandler22EqualizerEffectHandler20FlangerEffectHandler21FshifterEffectHandler22ModulatorEffectHandler21PshifterEffectHandler21VmorpherEffectHandler28DedicatedDialogEffectHandler25DedicatedLfeEffectHandler24ConvolutionEffectHandlerEEEEEEDcT_DpT0_', symObjAddr: 0x3160, symBinAddr: 0x15D30, symSize: 0x30 }
  - { offset: 0x13D236, size: 0x8, addend: 0x0, symName: '__ZNSt3__116__variant_detail12__visitation6__base12__dispatcherIJLm13EEE10__dispatchB8fe200100IONS1_9__variant15__value_visitorIZN12_GLOBAL__N_19alEffectfEN3gsl8not_nullIPN2al7ContextEEEjifE3$_0EEJRNS0_6__baseILNS0_6_TraitE0EJ17NullEffectHandler19ReverbEffectHandler22StdReverbEffectHandler20AutowahEffectHandler19ChorusEffectHandler23CompressorEffectHandler23DistortionEffectHandler17EchoEffectHandler22EqualizerEffectHandler20FlangerEffectHandler21FshifterEffectHandler22ModulatorEffectHandler21PshifterEffectHandler21VmorpherEffectHandler28DedicatedDialogEffectHandler25DedicatedLfeEffectHandler24ConvolutionEffectHandlerEEEEEEDcT_DpT0_', symObjAddr: 0x3190, symBinAddr: 0x15D60, symSize: 0x30 }
  - { offset: 0x13D26A, size: 0x8, addend: 0x0, symName: '__ZNSt3__116__variant_detail12__visitation6__base12__dispatcherIJLm13EEE10__dispatchB8fe200100IONS1_9__variant15__value_visitorIZN12_GLOBAL__N_19alEffectfEN3gsl8not_nullIPN2al7ContextEEEjifE3$_0EEJRNS0_6__baseILNS0_6_TraitE0EJ17NullEffectHandler19ReverbEffectHandler22StdReverbEffectHandler20AutowahEffectHandler19ChorusEffectHandler23CompressorEffectHandler23DistortionEffectHandler17EchoEffectHandler22EqualizerEffectHandler20FlangerEffectHandler21FshifterEffectHandler22ModulatorEffectHandler21PshifterEffectHandler21VmorpherEffectHandler28DedicatedDialogEffectHandler25DedicatedLfeEffectHandler24ConvolutionEffectHandlerEEEEEEDcT_DpT0_', symObjAddr: 0x3190, symBinAddr: 0x15D60, symSize: 0x30 }
  - { offset: 0x13D288, size: 0x8, addend: 0x0, symName: '__ZNSt3__116__variant_detail12__visitation6__base12__dispatcherIJLm13EEE10__dispatchB8fe200100IONS1_9__variant15__value_visitorIZN12_GLOBAL__N_19alEffectfEN3gsl8not_nullIPN2al7ContextEEEjifE3$_0EEJRNS0_6__baseILNS0_6_TraitE0EJ17NullEffectHandler19ReverbEffectHandler22StdReverbEffectHandler20AutowahEffectHandler19ChorusEffectHandler23CompressorEffectHandler23DistortionEffectHandler17EchoEffectHandler22EqualizerEffectHandler20FlangerEffectHandler21FshifterEffectHandler22ModulatorEffectHandler21PshifterEffectHandler21VmorpherEffectHandler28DedicatedDialogEffectHandler25DedicatedLfeEffectHandler24ConvolutionEffectHandlerEEEEEEDcT_DpT0_', symObjAddr: 0x3190, symBinAddr: 0x15D60, symSize: 0x30 }
  - { offset: 0x13D438, size: 0x8, addend: 0x0, symName: '__ZNSt3__116__variant_detail12__visitation6__base12__dispatcherIJLm14EEE10__dispatchB8fe200100IONS1_9__variant15__value_visitorIZN12_GLOBAL__N_19alEffectfEN3gsl8not_nullIPN2al7ContextEEEjifE3$_0EEJRNS0_6__baseILNS0_6_TraitE0EJ17NullEffectHandler19ReverbEffectHandler22StdReverbEffectHandler20AutowahEffectHandler19ChorusEffectHandler23CompressorEffectHandler23DistortionEffectHandler17EchoEffectHandler22EqualizerEffectHandler20FlangerEffectHandler21FshifterEffectHandler22ModulatorEffectHandler21PshifterEffectHandler21VmorpherEffectHandler28DedicatedDialogEffectHandler25DedicatedLfeEffectHandler24ConvolutionEffectHandlerEEEEEEDcT_DpT0_', symObjAddr: 0x31C0, symBinAddr: 0x15D90, symSize: 0x30 }
  - { offset: 0x13D46C, size: 0x8, addend: 0x0, symName: '__ZNSt3__116__variant_detail12__visitation6__base12__dispatcherIJLm14EEE10__dispatchB8fe200100IONS1_9__variant15__value_visitorIZN12_GLOBAL__N_19alEffectfEN3gsl8not_nullIPN2al7ContextEEEjifE3$_0EEJRNS0_6__baseILNS0_6_TraitE0EJ17NullEffectHandler19ReverbEffectHandler22StdReverbEffectHandler20AutowahEffectHandler19ChorusEffectHandler23CompressorEffectHandler23DistortionEffectHandler17EchoEffectHandler22EqualizerEffectHandler20FlangerEffectHandler21FshifterEffectHandler22ModulatorEffectHandler21PshifterEffectHandler21VmorpherEffectHandler28DedicatedDialogEffectHandler25DedicatedLfeEffectHandler24ConvolutionEffectHandlerEEEEEEDcT_DpT0_', symObjAddr: 0x31C0, symBinAddr: 0x15D90, symSize: 0x30 }
  - { offset: 0x13D48A, size: 0x8, addend: 0x0, symName: '__ZNSt3__116__variant_detail12__visitation6__base12__dispatcherIJLm14EEE10__dispatchB8fe200100IONS1_9__variant15__value_visitorIZN12_GLOBAL__N_19alEffectfEN3gsl8not_nullIPN2al7ContextEEEjifE3$_0EEJRNS0_6__baseILNS0_6_TraitE0EJ17NullEffectHandler19ReverbEffectHandler22StdReverbEffectHandler20AutowahEffectHandler19ChorusEffectHandler23CompressorEffectHandler23DistortionEffectHandler17EchoEffectHandler22EqualizerEffectHandler20FlangerEffectHandler21FshifterEffectHandler22ModulatorEffectHandler21PshifterEffectHandler21VmorpherEffectHandler28DedicatedDialogEffectHandler25DedicatedLfeEffectHandler24ConvolutionEffectHandlerEEEEEEDcT_DpT0_', symObjAddr: 0x31C0, symBinAddr: 0x15D90, symSize: 0x30 }
  - { offset: 0x13D63A, size: 0x8, addend: 0x0, symName: '__ZNSt3__116__variant_detail12__visitation6__base12__dispatcherIJLm15EEE10__dispatchB8fe200100IONS1_9__variant15__value_visitorIZN12_GLOBAL__N_19alEffectfEN3gsl8not_nullIPN2al7ContextEEEjifE3$_0EEJRNS0_6__baseILNS0_6_TraitE0EJ17NullEffectHandler19ReverbEffectHandler22StdReverbEffectHandler20AutowahEffectHandler19ChorusEffectHandler23CompressorEffectHandler23DistortionEffectHandler17EchoEffectHandler22EqualizerEffectHandler20FlangerEffectHandler21FshifterEffectHandler22ModulatorEffectHandler21PshifterEffectHandler21VmorpherEffectHandler28DedicatedDialogEffectHandler25DedicatedLfeEffectHandler24ConvolutionEffectHandlerEEEEEEDcT_DpT0_', symObjAddr: 0x31F0, symBinAddr: 0x15DC0, symSize: 0x30 }
  - { offset: 0x13D66E, size: 0x8, addend: 0x0, symName: '__ZNSt3__116__variant_detail12__visitation6__base12__dispatcherIJLm15EEE10__dispatchB8fe200100IONS1_9__variant15__value_visitorIZN12_GLOBAL__N_19alEffectfEN3gsl8not_nullIPN2al7ContextEEEjifE3$_0EEJRNS0_6__baseILNS0_6_TraitE0EJ17NullEffectHandler19ReverbEffectHandler22StdReverbEffectHandler20AutowahEffectHandler19ChorusEffectHandler23CompressorEffectHandler23DistortionEffectHandler17EchoEffectHandler22EqualizerEffectHandler20FlangerEffectHandler21FshifterEffectHandler22ModulatorEffectHandler21PshifterEffectHandler21VmorpherEffectHandler28DedicatedDialogEffectHandler25DedicatedLfeEffectHandler24ConvolutionEffectHandlerEEEEEEDcT_DpT0_', symObjAddr: 0x31F0, symBinAddr: 0x15DC0, symSize: 0x30 }
  - { offset: 0x13D68C, size: 0x8, addend: 0x0, symName: '__ZNSt3__116__variant_detail12__visitation6__base12__dispatcherIJLm15EEE10__dispatchB8fe200100IONS1_9__variant15__value_visitorIZN12_GLOBAL__N_19alEffectfEN3gsl8not_nullIPN2al7ContextEEEjifE3$_0EEJRNS0_6__baseILNS0_6_TraitE0EJ17NullEffectHandler19ReverbEffectHandler22StdReverbEffectHandler20AutowahEffectHandler19ChorusEffectHandler23CompressorEffectHandler23DistortionEffectHandler17EchoEffectHandler22EqualizerEffectHandler20FlangerEffectHandler21FshifterEffectHandler22ModulatorEffectHandler21PshifterEffectHandler21VmorpherEffectHandler28DedicatedDialogEffectHandler25DedicatedLfeEffectHandler24ConvolutionEffectHandlerEEEEEEDcT_DpT0_', symObjAddr: 0x31F0, symBinAddr: 0x15DC0, symSize: 0x30 }
  - { offset: 0x13D83C, size: 0x8, addend: 0x0, symName: '__ZNSt3__116__variant_detail12__visitation6__base12__dispatcherIJLm16EEE10__dispatchB8fe200100IONS1_9__variant15__value_visitorIZN12_GLOBAL__N_19alEffectfEN3gsl8not_nullIPN2al7ContextEEEjifE3$_0EEJRNS0_6__baseILNS0_6_TraitE0EJ17NullEffectHandler19ReverbEffectHandler22StdReverbEffectHandler20AutowahEffectHandler19ChorusEffectHandler23CompressorEffectHandler23DistortionEffectHandler17EchoEffectHandler22EqualizerEffectHandler20FlangerEffectHandler21FshifterEffectHandler22ModulatorEffectHandler21PshifterEffectHandler21VmorpherEffectHandler28DedicatedDialogEffectHandler25DedicatedLfeEffectHandler24ConvolutionEffectHandlerEEEEEEDcT_DpT0_', symObjAddr: 0x3220, symBinAddr: 0x15DF0, symSize: 0x30 }
  - { offset: 0x13D870, size: 0x8, addend: 0x0, symName: '__ZNSt3__116__variant_detail12__visitation6__base12__dispatcherIJLm16EEE10__dispatchB8fe200100IONS1_9__variant15__value_visitorIZN12_GLOBAL__N_19alEffectfEN3gsl8not_nullIPN2al7ContextEEEjifE3$_0EEJRNS0_6__baseILNS0_6_TraitE0EJ17NullEffectHandler19ReverbEffectHandler22StdReverbEffectHandler20AutowahEffectHandler19ChorusEffectHandler23CompressorEffectHandler23DistortionEffectHandler17EchoEffectHandler22EqualizerEffectHandler20FlangerEffectHandler21FshifterEffectHandler22ModulatorEffectHandler21PshifterEffectHandler21VmorpherEffectHandler28DedicatedDialogEffectHandler25DedicatedLfeEffectHandler24ConvolutionEffectHandlerEEEEEEDcT_DpT0_', symObjAddr: 0x3220, symBinAddr: 0x15DF0, symSize: 0x30 }
  - { offset: 0x13D88E, size: 0x8, addend: 0x0, symName: '__ZNSt3__116__variant_detail12__visitation6__base12__dispatcherIJLm16EEE10__dispatchB8fe200100IONS1_9__variant15__value_visitorIZN12_GLOBAL__N_19alEffectfEN3gsl8not_nullIPN2al7ContextEEEjifE3$_0EEJRNS0_6__baseILNS0_6_TraitE0EJ17NullEffectHandler19ReverbEffectHandler22StdReverbEffectHandler20AutowahEffectHandler19ChorusEffectHandler23CompressorEffectHandler23DistortionEffectHandler17EchoEffectHandler22EqualizerEffectHandler20FlangerEffectHandler21FshifterEffectHandler22ModulatorEffectHandler21PshifterEffectHandler21VmorpherEffectHandler28DedicatedDialogEffectHandler25DedicatedLfeEffectHandler24ConvolutionEffectHandlerEEEEEEDcT_DpT0_', symObjAddr: 0x3220, symBinAddr: 0x15DF0, symSize: 0x30 }
  - { offset: 0x13DA62, size: 0x8, addend: 0x0, symName: '__ZNSt3__116__variant_detail12__visitation6__base12__dispatcherIJLm0EEE10__dispatchB8fe200100IONS1_9__variant15__value_visitorIZN12_GLOBAL__N_110alEffectfvEN3gsl8not_nullIPN2al7ContextEEEjiPKfE3$_0EEJRNS0_6__baseILNS0_6_TraitE0EJ17NullEffectHandler19ReverbEffectHandler22StdReverbEffectHandler20AutowahEffectHandler19ChorusEffectHandler23CompressorEffectHandler23DistortionEffectHandler17EchoEffectHandler22EqualizerEffectHandler20FlangerEffectHandler21FshifterEffectHandler22ModulatorEffectHandler21PshifterEffectHandler21VmorpherEffectHandler28DedicatedDialogEffectHandler25DedicatedLfeEffectHandler24ConvolutionEffectHandlerEEEEEEDcT_DpT0_', symObjAddr: 0x3250, symBinAddr: 0x15E20, symSize: 0x30 }
  - { offset: 0x13DA96, size: 0x8, addend: 0x0, symName: '__ZNSt3__116__variant_detail12__visitation6__base12__dispatcherIJLm0EEE10__dispatchB8fe200100IONS1_9__variant15__value_visitorIZN12_GLOBAL__N_110alEffectfvEN3gsl8not_nullIPN2al7ContextEEEjiPKfE3$_0EEJRNS0_6__baseILNS0_6_TraitE0EJ17NullEffectHandler19ReverbEffectHandler22StdReverbEffectHandler20AutowahEffectHandler19ChorusEffectHandler23CompressorEffectHandler23DistortionEffectHandler17EchoEffectHandler22EqualizerEffectHandler20FlangerEffectHandler21FshifterEffectHandler22ModulatorEffectHandler21PshifterEffectHandler21VmorpherEffectHandler28DedicatedDialogEffectHandler25DedicatedLfeEffectHandler24ConvolutionEffectHandlerEEEEEEDcT_DpT0_', symObjAddr: 0x3250, symBinAddr: 0x15E20, symSize: 0x30 }
  - { offset: 0x13DAB4, size: 0x8, addend: 0x0, symName: '__ZNSt3__116__variant_detail12__visitation6__base12__dispatcherIJLm0EEE10__dispatchB8fe200100IONS1_9__variant15__value_visitorIZN12_GLOBAL__N_110alEffectfvEN3gsl8not_nullIPN2al7ContextEEEjiPKfE3$_0EEJRNS0_6__baseILNS0_6_TraitE0EJ17NullEffectHandler19ReverbEffectHandler22StdReverbEffectHandler20AutowahEffectHandler19ChorusEffectHandler23CompressorEffectHandler23DistortionEffectHandler17EchoEffectHandler22EqualizerEffectHandler20FlangerEffectHandler21FshifterEffectHandler22ModulatorEffectHandler21PshifterEffectHandler21VmorpherEffectHandler28DedicatedDialogEffectHandler25DedicatedLfeEffectHandler24ConvolutionEffectHandlerEEEEEEDcT_DpT0_', symObjAddr: 0x3250, symBinAddr: 0x15E20, symSize: 0x30 }
  - { offset: 0x13DC64, size: 0x8, addend: 0x0, symName: '__ZNSt3__116__variant_detail12__visitation6__base12__dispatcherIJLm1EEE10__dispatchB8fe200100IONS1_9__variant15__value_visitorIZN12_GLOBAL__N_110alEffectfvEN3gsl8not_nullIPN2al7ContextEEEjiPKfE3$_0EEJRNS0_6__baseILNS0_6_TraitE0EJ17NullEffectHandler19ReverbEffectHandler22StdReverbEffectHandler20AutowahEffectHandler19ChorusEffectHandler23CompressorEffectHandler23DistortionEffectHandler17EchoEffectHandler22EqualizerEffectHandler20FlangerEffectHandler21FshifterEffectHandler22ModulatorEffectHandler21PshifterEffectHandler21VmorpherEffectHandler28DedicatedDialogEffectHandler25DedicatedLfeEffectHandler24ConvolutionEffectHandlerEEEEEEDcT_DpT0_', symObjAddr: 0x3280, symBinAddr: 0x15E50, symSize: 0x30 }
  - { offset: 0x13DC98, size: 0x8, addend: 0x0, symName: '__ZNSt3__116__variant_detail12__visitation6__base12__dispatcherIJLm1EEE10__dispatchB8fe200100IONS1_9__variant15__value_visitorIZN12_GLOBAL__N_110alEffectfvEN3gsl8not_nullIPN2al7ContextEEEjiPKfE3$_0EEJRNS0_6__baseILNS0_6_TraitE0EJ17NullEffectHandler19ReverbEffectHandler22StdReverbEffectHandler20AutowahEffectHandler19ChorusEffectHandler23CompressorEffectHandler23DistortionEffectHandler17EchoEffectHandler22EqualizerEffectHandler20FlangerEffectHandler21FshifterEffectHandler22ModulatorEffectHandler21PshifterEffectHandler21VmorpherEffectHandler28DedicatedDialogEffectHandler25DedicatedLfeEffectHandler24ConvolutionEffectHandlerEEEEEEDcT_DpT0_', symObjAddr: 0x3280, symBinAddr: 0x15E50, symSize: 0x30 }
  - { offset: 0x13DCB6, size: 0x8, addend: 0x0, symName: '__ZNSt3__116__variant_detail12__visitation6__base12__dispatcherIJLm1EEE10__dispatchB8fe200100IONS1_9__variant15__value_visitorIZN12_GLOBAL__N_110alEffectfvEN3gsl8not_nullIPN2al7ContextEEEjiPKfE3$_0EEJRNS0_6__baseILNS0_6_TraitE0EJ17NullEffectHandler19ReverbEffectHandler22StdReverbEffectHandler20AutowahEffectHandler19ChorusEffectHandler23CompressorEffectHandler23DistortionEffectHandler17EchoEffectHandler22EqualizerEffectHandler20FlangerEffectHandler21FshifterEffectHandler22ModulatorEffectHandler21PshifterEffectHandler21VmorpherEffectHandler28DedicatedDialogEffectHandler25DedicatedLfeEffectHandler24ConvolutionEffectHandlerEEEEEEDcT_DpT0_', symObjAddr: 0x3280, symBinAddr: 0x15E50, symSize: 0x30 }
  - { offset: 0x13DE66, size: 0x8, addend: 0x0, symName: '__ZNSt3__116__variant_detail12__visitation6__base12__dispatcherIJLm2EEE10__dispatchB8fe200100IONS1_9__variant15__value_visitorIZN12_GLOBAL__N_110alEffectfvEN3gsl8not_nullIPN2al7ContextEEEjiPKfE3$_0EEJRNS0_6__baseILNS0_6_TraitE0EJ17NullEffectHandler19ReverbEffectHandler22StdReverbEffectHandler20AutowahEffectHandler19ChorusEffectHandler23CompressorEffectHandler23DistortionEffectHandler17EchoEffectHandler22EqualizerEffectHandler20FlangerEffectHandler21FshifterEffectHandler22ModulatorEffectHandler21PshifterEffectHandler21VmorpherEffectHandler28DedicatedDialogEffectHandler25DedicatedLfeEffectHandler24ConvolutionEffectHandlerEEEEEEDcT_DpT0_', symObjAddr: 0x32B0, symBinAddr: 0x15E80, symSize: 0x30 }
  - { offset: 0x13DE9A, size: 0x8, addend: 0x0, symName: '__ZNSt3__116__variant_detail12__visitation6__base12__dispatcherIJLm2EEE10__dispatchB8fe200100IONS1_9__variant15__value_visitorIZN12_GLOBAL__N_110alEffectfvEN3gsl8not_nullIPN2al7ContextEEEjiPKfE3$_0EEJRNS0_6__baseILNS0_6_TraitE0EJ17NullEffectHandler19ReverbEffectHandler22StdReverbEffectHandler20AutowahEffectHandler19ChorusEffectHandler23CompressorEffectHandler23DistortionEffectHandler17EchoEffectHandler22EqualizerEffectHandler20FlangerEffectHandler21FshifterEffectHandler22ModulatorEffectHandler21PshifterEffectHandler21VmorpherEffectHandler28DedicatedDialogEffectHandler25DedicatedLfeEffectHandler24ConvolutionEffectHandlerEEEEEEDcT_DpT0_', symObjAddr: 0x32B0, symBinAddr: 0x15E80, symSize: 0x30 }
  - { offset: 0x13DEB8, size: 0x8, addend: 0x0, symName: '__ZNSt3__116__variant_detail12__visitation6__base12__dispatcherIJLm2EEE10__dispatchB8fe200100IONS1_9__variant15__value_visitorIZN12_GLOBAL__N_110alEffectfvEN3gsl8not_nullIPN2al7ContextEEEjiPKfE3$_0EEJRNS0_6__baseILNS0_6_TraitE0EJ17NullEffectHandler19ReverbEffectHandler22StdReverbEffectHandler20AutowahEffectHandler19ChorusEffectHandler23CompressorEffectHandler23DistortionEffectHandler17EchoEffectHandler22EqualizerEffectHandler20FlangerEffectHandler21FshifterEffectHandler22ModulatorEffectHandler21PshifterEffectHandler21VmorpherEffectHandler28DedicatedDialogEffectHandler25DedicatedLfeEffectHandler24ConvolutionEffectHandlerEEEEEEDcT_DpT0_', symObjAddr: 0x32B0, symBinAddr: 0x15E80, symSize: 0x30 }
  - { offset: 0x13E068, size: 0x8, addend: 0x0, symName: '__ZNSt3__116__variant_detail12__visitation6__base12__dispatcherIJLm3EEE10__dispatchB8fe200100IONS1_9__variant15__value_visitorIZN12_GLOBAL__N_110alEffectfvEN3gsl8not_nullIPN2al7ContextEEEjiPKfE3$_0EEJRNS0_6__baseILNS0_6_TraitE0EJ17NullEffectHandler19ReverbEffectHandler22StdReverbEffectHandler20AutowahEffectHandler19ChorusEffectHandler23CompressorEffectHandler23DistortionEffectHandler17EchoEffectHandler22EqualizerEffectHandler20FlangerEffectHandler21FshifterEffectHandler22ModulatorEffectHandler21PshifterEffectHandler21VmorpherEffectHandler28DedicatedDialogEffectHandler25DedicatedLfeEffectHandler24ConvolutionEffectHandlerEEEEEEDcT_DpT0_', symObjAddr: 0x32E0, symBinAddr: 0x15EB0, symSize: 0x30 }
  - { offset: 0x13E09C, size: 0x8, addend: 0x0, symName: '__ZNSt3__116__variant_detail12__visitation6__base12__dispatcherIJLm3EEE10__dispatchB8fe200100IONS1_9__variant15__value_visitorIZN12_GLOBAL__N_110alEffectfvEN3gsl8not_nullIPN2al7ContextEEEjiPKfE3$_0EEJRNS0_6__baseILNS0_6_TraitE0EJ17NullEffectHandler19ReverbEffectHandler22StdReverbEffectHandler20AutowahEffectHandler19ChorusEffectHandler23CompressorEffectHandler23DistortionEffectHandler17EchoEffectHandler22EqualizerEffectHandler20FlangerEffectHandler21FshifterEffectHandler22ModulatorEffectHandler21PshifterEffectHandler21VmorpherEffectHandler28DedicatedDialogEffectHandler25DedicatedLfeEffectHandler24ConvolutionEffectHandlerEEEEEEDcT_DpT0_', symObjAddr: 0x32E0, symBinAddr: 0x15EB0, symSize: 0x30 }
  - { offset: 0x13E0BA, size: 0x8, addend: 0x0, symName: '__ZNSt3__116__variant_detail12__visitation6__base12__dispatcherIJLm3EEE10__dispatchB8fe200100IONS1_9__variant15__value_visitorIZN12_GLOBAL__N_110alEffectfvEN3gsl8not_nullIPN2al7ContextEEEjiPKfE3$_0EEJRNS0_6__baseILNS0_6_TraitE0EJ17NullEffectHandler19ReverbEffectHandler22StdReverbEffectHandler20AutowahEffectHandler19ChorusEffectHandler23CompressorEffectHandler23DistortionEffectHandler17EchoEffectHandler22EqualizerEffectHandler20FlangerEffectHandler21FshifterEffectHandler22ModulatorEffectHandler21PshifterEffectHandler21VmorpherEffectHandler28DedicatedDialogEffectHandler25DedicatedLfeEffectHandler24ConvolutionEffectHandlerEEEEEEDcT_DpT0_', symObjAddr: 0x32E0, symBinAddr: 0x15EB0, symSize: 0x30 }
  - { offset: 0x13E26A, size: 0x8, addend: 0x0, symName: '__ZNSt3__116__variant_detail12__visitation6__base12__dispatcherIJLm4EEE10__dispatchB8fe200100IONS1_9__variant15__value_visitorIZN12_GLOBAL__N_110alEffectfvEN3gsl8not_nullIPN2al7ContextEEEjiPKfE3$_0EEJRNS0_6__baseILNS0_6_TraitE0EJ17NullEffectHandler19ReverbEffectHandler22StdReverbEffectHandler20AutowahEffectHandler19ChorusEffectHandler23CompressorEffectHandler23DistortionEffectHandler17EchoEffectHandler22EqualizerEffectHandler20FlangerEffectHandler21FshifterEffectHandler22ModulatorEffectHandler21PshifterEffectHandler21VmorpherEffectHandler28DedicatedDialogEffectHandler25DedicatedLfeEffectHandler24ConvolutionEffectHandlerEEEEEEDcT_DpT0_', symObjAddr: 0x3310, symBinAddr: 0x15EE0, symSize: 0x30 }
  - { offset: 0x13E29E, size: 0x8, addend: 0x0, symName: '__ZNSt3__116__variant_detail12__visitation6__base12__dispatcherIJLm4EEE10__dispatchB8fe200100IONS1_9__variant15__value_visitorIZN12_GLOBAL__N_110alEffectfvEN3gsl8not_nullIPN2al7ContextEEEjiPKfE3$_0EEJRNS0_6__baseILNS0_6_TraitE0EJ17NullEffectHandler19ReverbEffectHandler22StdReverbEffectHandler20AutowahEffectHandler19ChorusEffectHandler23CompressorEffectHandler23DistortionEffectHandler17EchoEffectHandler22EqualizerEffectHandler20FlangerEffectHandler21FshifterEffectHandler22ModulatorEffectHandler21PshifterEffectHandler21VmorpherEffectHandler28DedicatedDialogEffectHandler25DedicatedLfeEffectHandler24ConvolutionEffectHandlerEEEEEEDcT_DpT0_', symObjAddr: 0x3310, symBinAddr: 0x15EE0, symSize: 0x30 }
  - { offset: 0x13E2BC, size: 0x8, addend: 0x0, symName: '__ZNSt3__116__variant_detail12__visitation6__base12__dispatcherIJLm4EEE10__dispatchB8fe200100IONS1_9__variant15__value_visitorIZN12_GLOBAL__N_110alEffectfvEN3gsl8not_nullIPN2al7ContextEEEjiPKfE3$_0EEJRNS0_6__baseILNS0_6_TraitE0EJ17NullEffectHandler19ReverbEffectHandler22StdReverbEffectHandler20AutowahEffectHandler19ChorusEffectHandler23CompressorEffectHandler23DistortionEffectHandler17EchoEffectHandler22EqualizerEffectHandler20FlangerEffectHandler21FshifterEffectHandler22ModulatorEffectHandler21PshifterEffectHandler21VmorpherEffectHandler28DedicatedDialogEffectHandler25DedicatedLfeEffectHandler24ConvolutionEffectHandlerEEEEEEDcT_DpT0_', symObjAddr: 0x3310, symBinAddr: 0x15EE0, symSize: 0x30 }
  - { offset: 0x13E46C, size: 0x8, addend: 0x0, symName: '__ZNSt3__116__variant_detail12__visitation6__base12__dispatcherIJLm5EEE10__dispatchB8fe200100IONS1_9__variant15__value_visitorIZN12_GLOBAL__N_110alEffectfvEN3gsl8not_nullIPN2al7ContextEEEjiPKfE3$_0EEJRNS0_6__baseILNS0_6_TraitE0EJ17NullEffectHandler19ReverbEffectHandler22StdReverbEffectHandler20AutowahEffectHandler19ChorusEffectHandler23CompressorEffectHandler23DistortionEffectHandler17EchoEffectHandler22EqualizerEffectHandler20FlangerEffectHandler21FshifterEffectHandler22ModulatorEffectHandler21PshifterEffectHandler21VmorpherEffectHandler28DedicatedDialogEffectHandler25DedicatedLfeEffectHandler24ConvolutionEffectHandlerEEEEEEDcT_DpT0_', symObjAddr: 0x3340, symBinAddr: 0x15F10, symSize: 0x30 }
  - { offset: 0x13E4A0, size: 0x8, addend: 0x0, symName: '__ZNSt3__116__variant_detail12__visitation6__base12__dispatcherIJLm5EEE10__dispatchB8fe200100IONS1_9__variant15__value_visitorIZN12_GLOBAL__N_110alEffectfvEN3gsl8not_nullIPN2al7ContextEEEjiPKfE3$_0EEJRNS0_6__baseILNS0_6_TraitE0EJ17NullEffectHandler19ReverbEffectHandler22StdReverbEffectHandler20AutowahEffectHandler19ChorusEffectHandler23CompressorEffectHandler23DistortionEffectHandler17EchoEffectHandler22EqualizerEffectHandler20FlangerEffectHandler21FshifterEffectHandler22ModulatorEffectHandler21PshifterEffectHandler21VmorpherEffectHandler28DedicatedDialogEffectHandler25DedicatedLfeEffectHandler24ConvolutionEffectHandlerEEEEEEDcT_DpT0_', symObjAddr: 0x3340, symBinAddr: 0x15F10, symSize: 0x30 }
  - { offset: 0x13E4BE, size: 0x8, addend: 0x0, symName: '__ZNSt3__116__variant_detail12__visitation6__base12__dispatcherIJLm5EEE10__dispatchB8fe200100IONS1_9__variant15__value_visitorIZN12_GLOBAL__N_110alEffectfvEN3gsl8not_nullIPN2al7ContextEEEjiPKfE3$_0EEJRNS0_6__baseILNS0_6_TraitE0EJ17NullEffectHandler19ReverbEffectHandler22StdReverbEffectHandler20AutowahEffectHandler19ChorusEffectHandler23CompressorEffectHandler23DistortionEffectHandler17EchoEffectHandler22EqualizerEffectHandler20FlangerEffectHandler21FshifterEffectHandler22ModulatorEffectHandler21PshifterEffectHandler21VmorpherEffectHandler28DedicatedDialogEffectHandler25DedicatedLfeEffectHandler24ConvolutionEffectHandlerEEEEEEDcT_DpT0_', symObjAddr: 0x3340, symBinAddr: 0x15F10, symSize: 0x30 }
  - { offset: 0x13E66E, size: 0x8, addend: 0x0, symName: '__ZNSt3__116__variant_detail12__visitation6__base12__dispatcherIJLm6EEE10__dispatchB8fe200100IONS1_9__variant15__value_visitorIZN12_GLOBAL__N_110alEffectfvEN3gsl8not_nullIPN2al7ContextEEEjiPKfE3$_0EEJRNS0_6__baseILNS0_6_TraitE0EJ17NullEffectHandler19ReverbEffectHandler22StdReverbEffectHandler20AutowahEffectHandler19ChorusEffectHandler23CompressorEffectHandler23DistortionEffectHandler17EchoEffectHandler22EqualizerEffectHandler20FlangerEffectHandler21FshifterEffectHandler22ModulatorEffectHandler21PshifterEffectHandler21VmorpherEffectHandler28DedicatedDialogEffectHandler25DedicatedLfeEffectHandler24ConvolutionEffectHandlerEEEEEEDcT_DpT0_', symObjAddr: 0x3370, symBinAddr: 0x15F40, symSize: 0x30 }
  - { offset: 0x13E6A2, size: 0x8, addend: 0x0, symName: '__ZNSt3__116__variant_detail12__visitation6__base12__dispatcherIJLm6EEE10__dispatchB8fe200100IONS1_9__variant15__value_visitorIZN12_GLOBAL__N_110alEffectfvEN3gsl8not_nullIPN2al7ContextEEEjiPKfE3$_0EEJRNS0_6__baseILNS0_6_TraitE0EJ17NullEffectHandler19ReverbEffectHandler22StdReverbEffectHandler20AutowahEffectHandler19ChorusEffectHandler23CompressorEffectHandler23DistortionEffectHandler17EchoEffectHandler22EqualizerEffectHandler20FlangerEffectHandler21FshifterEffectHandler22ModulatorEffectHandler21PshifterEffectHandler21VmorpherEffectHandler28DedicatedDialogEffectHandler25DedicatedLfeEffectHandler24ConvolutionEffectHandlerEEEEEEDcT_DpT0_', symObjAddr: 0x3370, symBinAddr: 0x15F40, symSize: 0x30 }
  - { offset: 0x13E6C0, size: 0x8, addend: 0x0, symName: '__ZNSt3__116__variant_detail12__visitation6__base12__dispatcherIJLm6EEE10__dispatchB8fe200100IONS1_9__variant15__value_visitorIZN12_GLOBAL__N_110alEffectfvEN3gsl8not_nullIPN2al7ContextEEEjiPKfE3$_0EEJRNS0_6__baseILNS0_6_TraitE0EJ17NullEffectHandler19ReverbEffectHandler22StdReverbEffectHandler20AutowahEffectHandler19ChorusEffectHandler23CompressorEffectHandler23DistortionEffectHandler17EchoEffectHandler22EqualizerEffectHandler20FlangerEffectHandler21FshifterEffectHandler22ModulatorEffectHandler21PshifterEffectHandler21VmorpherEffectHandler28DedicatedDialogEffectHandler25DedicatedLfeEffectHandler24ConvolutionEffectHandlerEEEEEEDcT_DpT0_', symObjAddr: 0x3370, symBinAddr: 0x15F40, symSize: 0x30 }
  - { offset: 0x13E870, size: 0x8, addend: 0x0, symName: '__ZNSt3__116__variant_detail12__visitation6__base12__dispatcherIJLm7EEE10__dispatchB8fe200100IONS1_9__variant15__value_visitorIZN12_GLOBAL__N_110alEffectfvEN3gsl8not_nullIPN2al7ContextEEEjiPKfE3$_0EEJRNS0_6__baseILNS0_6_TraitE0EJ17NullEffectHandler19ReverbEffectHandler22StdReverbEffectHandler20AutowahEffectHandler19ChorusEffectHandler23CompressorEffectHandler23DistortionEffectHandler17EchoEffectHandler22EqualizerEffectHandler20FlangerEffectHandler21FshifterEffectHandler22ModulatorEffectHandler21PshifterEffectHandler21VmorpherEffectHandler28DedicatedDialogEffectHandler25DedicatedLfeEffectHandler24ConvolutionEffectHandlerEEEEEEDcT_DpT0_', symObjAddr: 0x33A0, symBinAddr: 0x15F70, symSize: 0x30 }
  - { offset: 0x13E8A4, size: 0x8, addend: 0x0, symName: '__ZNSt3__116__variant_detail12__visitation6__base12__dispatcherIJLm7EEE10__dispatchB8fe200100IONS1_9__variant15__value_visitorIZN12_GLOBAL__N_110alEffectfvEN3gsl8not_nullIPN2al7ContextEEEjiPKfE3$_0EEJRNS0_6__baseILNS0_6_TraitE0EJ17NullEffectHandler19ReverbEffectHandler22StdReverbEffectHandler20AutowahEffectHandler19ChorusEffectHandler23CompressorEffectHandler23DistortionEffectHandler17EchoEffectHandler22EqualizerEffectHandler20FlangerEffectHandler21FshifterEffectHandler22ModulatorEffectHandler21PshifterEffectHandler21VmorpherEffectHandler28DedicatedDialogEffectHandler25DedicatedLfeEffectHandler24ConvolutionEffectHandlerEEEEEEDcT_DpT0_', symObjAddr: 0x33A0, symBinAddr: 0x15F70, symSize: 0x30 }
  - { offset: 0x13E8C2, size: 0x8, addend: 0x0, symName: '__ZNSt3__116__variant_detail12__visitation6__base12__dispatcherIJLm7EEE10__dispatchB8fe200100IONS1_9__variant15__value_visitorIZN12_GLOBAL__N_110alEffectfvEN3gsl8not_nullIPN2al7ContextEEEjiPKfE3$_0EEJRNS0_6__baseILNS0_6_TraitE0EJ17NullEffectHandler19ReverbEffectHandler22StdReverbEffectHandler20AutowahEffectHandler19ChorusEffectHandler23CompressorEffectHandler23DistortionEffectHandler17EchoEffectHandler22EqualizerEffectHandler20FlangerEffectHandler21FshifterEffectHandler22ModulatorEffectHandler21PshifterEffectHandler21VmorpherEffectHandler28DedicatedDialogEffectHandler25DedicatedLfeEffectHandler24ConvolutionEffectHandlerEEEEEEDcT_DpT0_', symObjAddr: 0x33A0, symBinAddr: 0x15F70, symSize: 0x30 }
  - { offset: 0x13EA72, size: 0x8, addend: 0x0, symName: '__ZNSt3__116__variant_detail12__visitation6__base12__dispatcherIJLm8EEE10__dispatchB8fe200100IONS1_9__variant15__value_visitorIZN12_GLOBAL__N_110alEffectfvEN3gsl8not_nullIPN2al7ContextEEEjiPKfE3$_0EEJRNS0_6__baseILNS0_6_TraitE0EJ17NullEffectHandler19ReverbEffectHandler22StdReverbEffectHandler20AutowahEffectHandler19ChorusEffectHandler23CompressorEffectHandler23DistortionEffectHandler17EchoEffectHandler22EqualizerEffectHandler20FlangerEffectHandler21FshifterEffectHandler22ModulatorEffectHandler21PshifterEffectHandler21VmorpherEffectHandler28DedicatedDialogEffectHandler25DedicatedLfeEffectHandler24ConvolutionEffectHandlerEEEEEEDcT_DpT0_', symObjAddr: 0x33D0, symBinAddr: 0x15FA0, symSize: 0x30 }
  - { offset: 0x13EAA6, size: 0x8, addend: 0x0, symName: '__ZNSt3__116__variant_detail12__visitation6__base12__dispatcherIJLm8EEE10__dispatchB8fe200100IONS1_9__variant15__value_visitorIZN12_GLOBAL__N_110alEffectfvEN3gsl8not_nullIPN2al7ContextEEEjiPKfE3$_0EEJRNS0_6__baseILNS0_6_TraitE0EJ17NullEffectHandler19ReverbEffectHandler22StdReverbEffectHandler20AutowahEffectHandler19ChorusEffectHandler23CompressorEffectHandler23DistortionEffectHandler17EchoEffectHandler22EqualizerEffectHandler20FlangerEffectHandler21FshifterEffectHandler22ModulatorEffectHandler21PshifterEffectHandler21VmorpherEffectHandler28DedicatedDialogEffectHandler25DedicatedLfeEffectHandler24ConvolutionEffectHandlerEEEEEEDcT_DpT0_', symObjAddr: 0x33D0, symBinAddr: 0x15FA0, symSize: 0x30 }
  - { offset: 0x13EAC4, size: 0x8, addend: 0x0, symName: '__ZNSt3__116__variant_detail12__visitation6__base12__dispatcherIJLm8EEE10__dispatchB8fe200100IONS1_9__variant15__value_visitorIZN12_GLOBAL__N_110alEffectfvEN3gsl8not_nullIPN2al7ContextEEEjiPKfE3$_0EEJRNS0_6__baseILNS0_6_TraitE0EJ17NullEffectHandler19ReverbEffectHandler22StdReverbEffectHandler20AutowahEffectHandler19ChorusEffectHandler23CompressorEffectHandler23DistortionEffectHandler17EchoEffectHandler22EqualizerEffectHandler20FlangerEffectHandler21FshifterEffectHandler22ModulatorEffectHandler21PshifterEffectHandler21VmorpherEffectHandler28DedicatedDialogEffectHandler25DedicatedLfeEffectHandler24ConvolutionEffectHandlerEEEEEEDcT_DpT0_', symObjAddr: 0x33D0, symBinAddr: 0x15FA0, symSize: 0x30 }
  - { offset: 0x13EC74, size: 0x8, addend: 0x0, symName: '__ZNSt3__116__variant_detail12__visitation6__base12__dispatcherIJLm9EEE10__dispatchB8fe200100IONS1_9__variant15__value_visitorIZN12_GLOBAL__N_110alEffectfvEN3gsl8not_nullIPN2al7ContextEEEjiPKfE3$_0EEJRNS0_6__baseILNS0_6_TraitE0EJ17NullEffectHandler19ReverbEffectHandler22StdReverbEffectHandler20AutowahEffectHandler19ChorusEffectHandler23CompressorEffectHandler23DistortionEffectHandler17EchoEffectHandler22EqualizerEffectHandler20FlangerEffectHandler21FshifterEffectHandler22ModulatorEffectHandler21PshifterEffectHandler21VmorpherEffectHandler28DedicatedDialogEffectHandler25DedicatedLfeEffectHandler24ConvolutionEffectHandlerEEEEEEDcT_DpT0_', symObjAddr: 0x3400, symBinAddr: 0x15FD0, symSize: 0x30 }
  - { offset: 0x13ECA8, size: 0x8, addend: 0x0, symName: '__ZNSt3__116__variant_detail12__visitation6__base12__dispatcherIJLm9EEE10__dispatchB8fe200100IONS1_9__variant15__value_visitorIZN12_GLOBAL__N_110alEffectfvEN3gsl8not_nullIPN2al7ContextEEEjiPKfE3$_0EEJRNS0_6__baseILNS0_6_TraitE0EJ17NullEffectHandler19ReverbEffectHandler22StdReverbEffectHandler20AutowahEffectHandler19ChorusEffectHandler23CompressorEffectHandler23DistortionEffectHandler17EchoEffectHandler22EqualizerEffectHandler20FlangerEffectHandler21FshifterEffectHandler22ModulatorEffectHandler21PshifterEffectHandler21VmorpherEffectHandler28DedicatedDialogEffectHandler25DedicatedLfeEffectHandler24ConvolutionEffectHandlerEEEEEEDcT_DpT0_', symObjAddr: 0x3400, symBinAddr: 0x15FD0, symSize: 0x30 }
  - { offset: 0x13ECC6, size: 0x8, addend: 0x0, symName: '__ZNSt3__116__variant_detail12__visitation6__base12__dispatcherIJLm9EEE10__dispatchB8fe200100IONS1_9__variant15__value_visitorIZN12_GLOBAL__N_110alEffectfvEN3gsl8not_nullIPN2al7ContextEEEjiPKfE3$_0EEJRNS0_6__baseILNS0_6_TraitE0EJ17NullEffectHandler19ReverbEffectHandler22StdReverbEffectHandler20AutowahEffectHandler19ChorusEffectHandler23CompressorEffectHandler23DistortionEffectHandler17EchoEffectHandler22EqualizerEffectHandler20FlangerEffectHandler21FshifterEffectHandler22ModulatorEffectHandler21PshifterEffectHandler21VmorpherEffectHandler28DedicatedDialogEffectHandler25DedicatedLfeEffectHandler24ConvolutionEffectHandlerEEEEEEDcT_DpT0_', symObjAddr: 0x3400, symBinAddr: 0x15FD0, symSize: 0x30 }
  - { offset: 0x13EE76, size: 0x8, addend: 0x0, symName: '__ZNSt3__116__variant_detail12__visitation6__base12__dispatcherIJLm10EEE10__dispatchB8fe200100IONS1_9__variant15__value_visitorIZN12_GLOBAL__N_110alEffectfvEN3gsl8not_nullIPN2al7ContextEEEjiPKfE3$_0EEJRNS0_6__baseILNS0_6_TraitE0EJ17NullEffectHandler19ReverbEffectHandler22StdReverbEffectHandler20AutowahEffectHandler19ChorusEffectHandler23CompressorEffectHandler23DistortionEffectHandler17EchoEffectHandler22EqualizerEffectHandler20FlangerEffectHandler21FshifterEffectHandler22ModulatorEffectHandler21PshifterEffectHandler21VmorpherEffectHandler28DedicatedDialogEffectHandler25DedicatedLfeEffectHandler24ConvolutionEffectHandlerEEEEEEDcT_DpT0_', symObjAddr: 0x3430, symBinAddr: 0x16000, symSize: 0x30 }
  - { offset: 0x13EEAA, size: 0x8, addend: 0x0, symName: '__ZNSt3__116__variant_detail12__visitation6__base12__dispatcherIJLm10EEE10__dispatchB8fe200100IONS1_9__variant15__value_visitorIZN12_GLOBAL__N_110alEffectfvEN3gsl8not_nullIPN2al7ContextEEEjiPKfE3$_0EEJRNS0_6__baseILNS0_6_TraitE0EJ17NullEffectHandler19ReverbEffectHandler22StdReverbEffectHandler20AutowahEffectHandler19ChorusEffectHandler23CompressorEffectHandler23DistortionEffectHandler17EchoEffectHandler22EqualizerEffectHandler20FlangerEffectHandler21FshifterEffectHandler22ModulatorEffectHandler21PshifterEffectHandler21VmorpherEffectHandler28DedicatedDialogEffectHandler25DedicatedLfeEffectHandler24ConvolutionEffectHandlerEEEEEEDcT_DpT0_', symObjAddr: 0x3430, symBinAddr: 0x16000, symSize: 0x30 }
  - { offset: 0x13EEC8, size: 0x8, addend: 0x0, symName: '__ZNSt3__116__variant_detail12__visitation6__base12__dispatcherIJLm10EEE10__dispatchB8fe200100IONS1_9__variant15__value_visitorIZN12_GLOBAL__N_110alEffectfvEN3gsl8not_nullIPN2al7ContextEEEjiPKfE3$_0EEJRNS0_6__baseILNS0_6_TraitE0EJ17NullEffectHandler19ReverbEffectHandler22StdReverbEffectHandler20AutowahEffectHandler19ChorusEffectHandler23CompressorEffectHandler23DistortionEffectHandler17EchoEffectHandler22EqualizerEffectHandler20FlangerEffectHandler21FshifterEffectHandler22ModulatorEffectHandler21PshifterEffectHandler21VmorpherEffectHandler28DedicatedDialogEffectHandler25DedicatedLfeEffectHandler24ConvolutionEffectHandlerEEEEEEDcT_DpT0_', symObjAddr: 0x3430, symBinAddr: 0x16000, symSize: 0x30 }
  - { offset: 0x13F078, size: 0x8, addend: 0x0, symName: '__ZNSt3__116__variant_detail12__visitation6__base12__dispatcherIJLm11EEE10__dispatchB8fe200100IONS1_9__variant15__value_visitorIZN12_GLOBAL__N_110alEffectfvEN3gsl8not_nullIPN2al7ContextEEEjiPKfE3$_0EEJRNS0_6__baseILNS0_6_TraitE0EJ17NullEffectHandler19ReverbEffectHandler22StdReverbEffectHandler20AutowahEffectHandler19ChorusEffectHandler23CompressorEffectHandler23DistortionEffectHandler17EchoEffectHandler22EqualizerEffectHandler20FlangerEffectHandler21FshifterEffectHandler22ModulatorEffectHandler21PshifterEffectHandler21VmorpherEffectHandler28DedicatedDialogEffectHandler25DedicatedLfeEffectHandler24ConvolutionEffectHandlerEEEEEEDcT_DpT0_', symObjAddr: 0x3460, symBinAddr: 0x16030, symSize: 0x30 }
  - { offset: 0x13F0AC, size: 0x8, addend: 0x0, symName: '__ZNSt3__116__variant_detail12__visitation6__base12__dispatcherIJLm11EEE10__dispatchB8fe200100IONS1_9__variant15__value_visitorIZN12_GLOBAL__N_110alEffectfvEN3gsl8not_nullIPN2al7ContextEEEjiPKfE3$_0EEJRNS0_6__baseILNS0_6_TraitE0EJ17NullEffectHandler19ReverbEffectHandler22StdReverbEffectHandler20AutowahEffectHandler19ChorusEffectHandler23CompressorEffectHandler23DistortionEffectHandler17EchoEffectHandler22EqualizerEffectHandler20FlangerEffectHandler21FshifterEffectHandler22ModulatorEffectHandler21PshifterEffectHandler21VmorpherEffectHandler28DedicatedDialogEffectHandler25DedicatedLfeEffectHandler24ConvolutionEffectHandlerEEEEEEDcT_DpT0_', symObjAddr: 0x3460, symBinAddr: 0x16030, symSize: 0x30 }
  - { offset: 0x13F0CA, size: 0x8, addend: 0x0, symName: '__ZNSt3__116__variant_detail12__visitation6__base12__dispatcherIJLm11EEE10__dispatchB8fe200100IONS1_9__variant15__value_visitorIZN12_GLOBAL__N_110alEffectfvEN3gsl8not_nullIPN2al7ContextEEEjiPKfE3$_0EEJRNS0_6__baseILNS0_6_TraitE0EJ17NullEffectHandler19ReverbEffectHandler22StdReverbEffectHandler20AutowahEffectHandler19ChorusEffectHandler23CompressorEffectHandler23DistortionEffectHandler17EchoEffectHandler22EqualizerEffectHandler20FlangerEffectHandler21FshifterEffectHandler22ModulatorEffectHandler21PshifterEffectHandler21VmorpherEffectHandler28DedicatedDialogEffectHandler25DedicatedLfeEffectHandler24ConvolutionEffectHandlerEEEEEEDcT_DpT0_', symObjAddr: 0x3460, symBinAddr: 0x16030, symSize: 0x30 }
  - { offset: 0x13F27A, size: 0x8, addend: 0x0, symName: '__ZNSt3__116__variant_detail12__visitation6__base12__dispatcherIJLm12EEE10__dispatchB8fe200100IONS1_9__variant15__value_visitorIZN12_GLOBAL__N_110alEffectfvEN3gsl8not_nullIPN2al7ContextEEEjiPKfE3$_0EEJRNS0_6__baseILNS0_6_TraitE0EJ17NullEffectHandler19ReverbEffectHandler22StdReverbEffectHandler20AutowahEffectHandler19ChorusEffectHandler23CompressorEffectHandler23DistortionEffectHandler17EchoEffectHandler22EqualizerEffectHandler20FlangerEffectHandler21FshifterEffectHandler22ModulatorEffectHandler21PshifterEffectHandler21VmorpherEffectHandler28DedicatedDialogEffectHandler25DedicatedLfeEffectHandler24ConvolutionEffectHandlerEEEEEEDcT_DpT0_', symObjAddr: 0x3490, symBinAddr: 0x16060, symSize: 0x30 }
  - { offset: 0x13F2AE, size: 0x8, addend: 0x0, symName: '__ZNSt3__116__variant_detail12__visitation6__base12__dispatcherIJLm12EEE10__dispatchB8fe200100IONS1_9__variant15__value_visitorIZN12_GLOBAL__N_110alEffectfvEN3gsl8not_nullIPN2al7ContextEEEjiPKfE3$_0EEJRNS0_6__baseILNS0_6_TraitE0EJ17NullEffectHandler19ReverbEffectHandler22StdReverbEffectHandler20AutowahEffectHandler19ChorusEffectHandler23CompressorEffectHandler23DistortionEffectHandler17EchoEffectHandler22EqualizerEffectHandler20FlangerEffectHandler21FshifterEffectHandler22ModulatorEffectHandler21PshifterEffectHandler21VmorpherEffectHandler28DedicatedDialogEffectHandler25DedicatedLfeEffectHandler24ConvolutionEffectHandlerEEEEEEDcT_DpT0_', symObjAddr: 0x3490, symBinAddr: 0x16060, symSize: 0x30 }
  - { offset: 0x13F2CC, size: 0x8, addend: 0x0, symName: '__ZNSt3__116__variant_detail12__visitation6__base12__dispatcherIJLm12EEE10__dispatchB8fe200100IONS1_9__variant15__value_visitorIZN12_GLOBAL__N_110alEffectfvEN3gsl8not_nullIPN2al7ContextEEEjiPKfE3$_0EEJRNS0_6__baseILNS0_6_TraitE0EJ17NullEffectHandler19ReverbEffectHandler22StdReverbEffectHandler20AutowahEffectHandler19ChorusEffectHandler23CompressorEffectHandler23DistortionEffectHandler17EchoEffectHandler22EqualizerEffectHandler20FlangerEffectHandler21FshifterEffectHandler22ModulatorEffectHandler21PshifterEffectHandler21VmorpherEffectHandler28DedicatedDialogEffectHandler25DedicatedLfeEffectHandler24ConvolutionEffectHandlerEEEEEEDcT_DpT0_', symObjAddr: 0x3490, symBinAddr: 0x16060, symSize: 0x30 }
  - { offset: 0x13F47C, size: 0x8, addend: 0x0, symName: '__ZNSt3__116__variant_detail12__visitation6__base12__dispatcherIJLm13EEE10__dispatchB8fe200100IONS1_9__variant15__value_visitorIZN12_GLOBAL__N_110alEffectfvEN3gsl8not_nullIPN2al7ContextEEEjiPKfE3$_0EEJRNS0_6__baseILNS0_6_TraitE0EJ17NullEffectHandler19ReverbEffectHandler22StdReverbEffectHandler20AutowahEffectHandler19ChorusEffectHandler23CompressorEffectHandler23DistortionEffectHandler17EchoEffectHandler22EqualizerEffectHandler20FlangerEffectHandler21FshifterEffectHandler22ModulatorEffectHandler21PshifterEffectHandler21VmorpherEffectHandler28DedicatedDialogEffectHandler25DedicatedLfeEffectHandler24ConvolutionEffectHandlerEEEEEEDcT_DpT0_', symObjAddr: 0x34C0, symBinAddr: 0x16090, symSize: 0x30 }
  - { offset: 0x13F4B0, size: 0x8, addend: 0x0, symName: '__ZNSt3__116__variant_detail12__visitation6__base12__dispatcherIJLm13EEE10__dispatchB8fe200100IONS1_9__variant15__value_visitorIZN12_GLOBAL__N_110alEffectfvEN3gsl8not_nullIPN2al7ContextEEEjiPKfE3$_0EEJRNS0_6__baseILNS0_6_TraitE0EJ17NullEffectHandler19ReverbEffectHandler22StdReverbEffectHandler20AutowahEffectHandler19ChorusEffectHandler23CompressorEffectHandler23DistortionEffectHandler17EchoEffectHandler22EqualizerEffectHandler20FlangerEffectHandler21FshifterEffectHandler22ModulatorEffectHandler21PshifterEffectHandler21VmorpherEffectHandler28DedicatedDialogEffectHandler25DedicatedLfeEffectHandler24ConvolutionEffectHandlerEEEEEEDcT_DpT0_', symObjAddr: 0x34C0, symBinAddr: 0x16090, symSize: 0x30 }
  - { offset: 0x13F4CE, size: 0x8, addend: 0x0, symName: '__ZNSt3__116__variant_detail12__visitation6__base12__dispatcherIJLm13EEE10__dispatchB8fe200100IONS1_9__variant15__value_visitorIZN12_GLOBAL__N_110alEffectfvEN3gsl8not_nullIPN2al7ContextEEEjiPKfE3$_0EEJRNS0_6__baseILNS0_6_TraitE0EJ17NullEffectHandler19ReverbEffectHandler22StdReverbEffectHandler20AutowahEffectHandler19ChorusEffectHandler23CompressorEffectHandler23DistortionEffectHandler17EchoEffectHandler22EqualizerEffectHandler20FlangerEffectHandler21FshifterEffectHandler22ModulatorEffectHandler21PshifterEffectHandler21VmorpherEffectHandler28DedicatedDialogEffectHandler25DedicatedLfeEffectHandler24ConvolutionEffectHandlerEEEEEEDcT_DpT0_', symObjAddr: 0x34C0, symBinAddr: 0x16090, symSize: 0x30 }
  - { offset: 0x13F67E, size: 0x8, addend: 0x0, symName: '__ZNSt3__116__variant_detail12__visitation6__base12__dispatcherIJLm14EEE10__dispatchB8fe200100IONS1_9__variant15__value_visitorIZN12_GLOBAL__N_110alEffectfvEN3gsl8not_nullIPN2al7ContextEEEjiPKfE3$_0EEJRNS0_6__baseILNS0_6_TraitE0EJ17NullEffectHandler19ReverbEffectHandler22StdReverbEffectHandler20AutowahEffectHandler19ChorusEffectHandler23CompressorEffectHandler23DistortionEffectHandler17EchoEffectHandler22EqualizerEffectHandler20FlangerEffectHandler21FshifterEffectHandler22ModulatorEffectHandler21PshifterEffectHandler21VmorpherEffectHandler28DedicatedDialogEffectHandler25DedicatedLfeEffectHandler24ConvolutionEffectHandlerEEEEEEDcT_DpT0_', symObjAddr: 0x34F0, symBinAddr: 0x160C0, symSize: 0x30 }
  - { offset: 0x13F6B2, size: 0x8, addend: 0x0, symName: '__ZNSt3__116__variant_detail12__visitation6__base12__dispatcherIJLm14EEE10__dispatchB8fe200100IONS1_9__variant15__value_visitorIZN12_GLOBAL__N_110alEffectfvEN3gsl8not_nullIPN2al7ContextEEEjiPKfE3$_0EEJRNS0_6__baseILNS0_6_TraitE0EJ17NullEffectHandler19ReverbEffectHandler22StdReverbEffectHandler20AutowahEffectHandler19ChorusEffectHandler23CompressorEffectHandler23DistortionEffectHandler17EchoEffectHandler22EqualizerEffectHandler20FlangerEffectHandler21FshifterEffectHandler22ModulatorEffectHandler21PshifterEffectHandler21VmorpherEffectHandler28DedicatedDialogEffectHandler25DedicatedLfeEffectHandler24ConvolutionEffectHandlerEEEEEEDcT_DpT0_', symObjAddr: 0x34F0, symBinAddr: 0x160C0, symSize: 0x30 }
  - { offset: 0x13F6D0, size: 0x8, addend: 0x0, symName: '__ZNSt3__116__variant_detail12__visitation6__base12__dispatcherIJLm14EEE10__dispatchB8fe200100IONS1_9__variant15__value_visitorIZN12_GLOBAL__N_110alEffectfvEN3gsl8not_nullIPN2al7ContextEEEjiPKfE3$_0EEJRNS0_6__baseILNS0_6_TraitE0EJ17NullEffectHandler19ReverbEffectHandler22StdReverbEffectHandler20AutowahEffectHandler19ChorusEffectHandler23CompressorEffectHandler23DistortionEffectHandler17EchoEffectHandler22EqualizerEffectHandler20FlangerEffectHandler21FshifterEffectHandler22ModulatorEffectHandler21PshifterEffectHandler21VmorpherEffectHandler28DedicatedDialogEffectHandler25DedicatedLfeEffectHandler24ConvolutionEffectHandlerEEEEEEDcT_DpT0_', symObjAddr: 0x34F0, symBinAddr: 0x160C0, symSize: 0x30 }
  - { offset: 0x13F880, size: 0x8, addend: 0x0, symName: '__ZNSt3__116__variant_detail12__visitation6__base12__dispatcherIJLm15EEE10__dispatchB8fe200100IONS1_9__variant15__value_visitorIZN12_GLOBAL__N_110alEffectfvEN3gsl8not_nullIPN2al7ContextEEEjiPKfE3$_0EEJRNS0_6__baseILNS0_6_TraitE0EJ17NullEffectHandler19ReverbEffectHandler22StdReverbEffectHandler20AutowahEffectHandler19ChorusEffectHandler23CompressorEffectHandler23DistortionEffectHandler17EchoEffectHandler22EqualizerEffectHandler20FlangerEffectHandler21FshifterEffectHandler22ModulatorEffectHandler21PshifterEffectHandler21VmorpherEffectHandler28DedicatedDialogEffectHandler25DedicatedLfeEffectHandler24ConvolutionEffectHandlerEEEEEEDcT_DpT0_', symObjAddr: 0x3520, symBinAddr: 0x160F0, symSize: 0x30 }
  - { offset: 0x13F8B4, size: 0x8, addend: 0x0, symName: '__ZNSt3__116__variant_detail12__visitation6__base12__dispatcherIJLm15EEE10__dispatchB8fe200100IONS1_9__variant15__value_visitorIZN12_GLOBAL__N_110alEffectfvEN3gsl8not_nullIPN2al7ContextEEEjiPKfE3$_0EEJRNS0_6__baseILNS0_6_TraitE0EJ17NullEffectHandler19ReverbEffectHandler22StdReverbEffectHandler20AutowahEffectHandler19ChorusEffectHandler23CompressorEffectHandler23DistortionEffectHandler17EchoEffectHandler22EqualizerEffectHandler20FlangerEffectHandler21FshifterEffectHandler22ModulatorEffectHandler21PshifterEffectHandler21VmorpherEffectHandler28DedicatedDialogEffectHandler25DedicatedLfeEffectHandler24ConvolutionEffectHandlerEEEEEEDcT_DpT0_', symObjAddr: 0x3520, symBinAddr: 0x160F0, symSize: 0x30 }
  - { offset: 0x13F8D2, size: 0x8, addend: 0x0, symName: '__ZNSt3__116__variant_detail12__visitation6__base12__dispatcherIJLm15EEE10__dispatchB8fe200100IONS1_9__variant15__value_visitorIZN12_GLOBAL__N_110alEffectfvEN3gsl8not_nullIPN2al7ContextEEEjiPKfE3$_0EEJRNS0_6__baseILNS0_6_TraitE0EJ17NullEffectHandler19ReverbEffectHandler22StdReverbEffectHandler20AutowahEffectHandler19ChorusEffectHandler23CompressorEffectHandler23DistortionEffectHandler17EchoEffectHandler22EqualizerEffectHandler20FlangerEffectHandler21FshifterEffectHandler22ModulatorEffectHandler21PshifterEffectHandler21VmorpherEffectHandler28DedicatedDialogEffectHandler25DedicatedLfeEffectHandler24ConvolutionEffectHandlerEEEEEEDcT_DpT0_', symObjAddr: 0x3520, symBinAddr: 0x160F0, symSize: 0x30 }
  - { offset: 0x13FA82, size: 0x8, addend: 0x0, symName: '__ZNSt3__116__variant_detail12__visitation6__base12__dispatcherIJLm16EEE10__dispatchB8fe200100IONS1_9__variant15__value_visitorIZN12_GLOBAL__N_110alEffectfvEN3gsl8not_nullIPN2al7ContextEEEjiPKfE3$_0EEJRNS0_6__baseILNS0_6_TraitE0EJ17NullEffectHandler19ReverbEffectHandler22StdReverbEffectHandler20AutowahEffectHandler19ChorusEffectHandler23CompressorEffectHandler23DistortionEffectHandler17EchoEffectHandler22EqualizerEffectHandler20FlangerEffectHandler21FshifterEffectHandler22ModulatorEffectHandler21PshifterEffectHandler21VmorpherEffectHandler28DedicatedDialogEffectHandler25DedicatedLfeEffectHandler24ConvolutionEffectHandlerEEEEEEDcT_DpT0_', symObjAddr: 0x3550, symBinAddr: 0x16120, symSize: 0x30 }
  - { offset: 0x13FAB6, size: 0x8, addend: 0x0, symName: '__ZNSt3__116__variant_detail12__visitation6__base12__dispatcherIJLm16EEE10__dispatchB8fe200100IONS1_9__variant15__value_visitorIZN12_GLOBAL__N_110alEffectfvEN3gsl8not_nullIPN2al7ContextEEEjiPKfE3$_0EEJRNS0_6__baseILNS0_6_TraitE0EJ17NullEffectHandler19ReverbEffectHandler22StdReverbEffectHandler20AutowahEffectHandler19ChorusEffectHandler23CompressorEffectHandler23DistortionEffectHandler17EchoEffectHandler22EqualizerEffectHandler20FlangerEffectHandler21FshifterEffectHandler22ModulatorEffectHandler21PshifterEffectHandler21VmorpherEffectHandler28DedicatedDialogEffectHandler25DedicatedLfeEffectHandler24ConvolutionEffectHandlerEEEEEEDcT_DpT0_', symObjAddr: 0x3550, symBinAddr: 0x16120, symSize: 0x30 }
  - { offset: 0x13FAD4, size: 0x8, addend: 0x0, symName: '__ZNSt3__116__variant_detail12__visitation6__base12__dispatcherIJLm16EEE10__dispatchB8fe200100IONS1_9__variant15__value_visitorIZN12_GLOBAL__N_110alEffectfvEN3gsl8not_nullIPN2al7ContextEEEjiPKfE3$_0EEJRNS0_6__baseILNS0_6_TraitE0EJ17NullEffectHandler19ReverbEffectHandler22StdReverbEffectHandler20AutowahEffectHandler19ChorusEffectHandler23CompressorEffectHandler23DistortionEffectHandler17EchoEffectHandler22EqualizerEffectHandler20FlangerEffectHandler21FshifterEffectHandler22ModulatorEffectHandler21PshifterEffectHandler21VmorpherEffectHandler28DedicatedDialogEffectHandler25DedicatedLfeEffectHandler24ConvolutionEffectHandlerEEEEEEDcT_DpT0_', symObjAddr: 0x3550, symBinAddr: 0x16120, symSize: 0x30 }
  - { offset: 0x13FCA8, size: 0x8, addend: 0x0, symName: '__ZNSt3__116__variant_detail12__visitation6__base12__dispatcherIJLm0EEE10__dispatchB8fe200100IONS1_9__variant15__value_visitorIZN12_GLOBAL__N_112alGetEffectiEN3gsl8not_nullIPN2al7ContextEEEjiPiE3$_0EEJRNS0_6__baseILNS0_6_TraitE0EJ17NullEffectHandler19ReverbEffectHandler22StdReverbEffectHandler20AutowahEffectHandler19ChorusEffectHandler23CompressorEffectHandler23DistortionEffectHandler17EchoEffectHandler22EqualizerEffectHandler20FlangerEffectHandler21FshifterEffectHandler22ModulatorEffectHandler21PshifterEffectHandler21VmorpherEffectHandler28DedicatedDialogEffectHandler25DedicatedLfeEffectHandler24ConvolutionEffectHandlerEEEEEEDcT_DpT0_', symObjAddr: 0x3580, symBinAddr: 0x16150, symSize: 0x30 }
  - { offset: 0x13FCDC, size: 0x8, addend: 0x0, symName: '__ZNSt3__116__variant_detail12__visitation6__base12__dispatcherIJLm0EEE10__dispatchB8fe200100IONS1_9__variant15__value_visitorIZN12_GLOBAL__N_112alGetEffectiEN3gsl8not_nullIPN2al7ContextEEEjiPiE3$_0EEJRNS0_6__baseILNS0_6_TraitE0EJ17NullEffectHandler19ReverbEffectHandler22StdReverbEffectHandler20AutowahEffectHandler19ChorusEffectHandler23CompressorEffectHandler23DistortionEffectHandler17EchoEffectHandler22EqualizerEffectHandler20FlangerEffectHandler21FshifterEffectHandler22ModulatorEffectHandler21PshifterEffectHandler21VmorpherEffectHandler28DedicatedDialogEffectHandler25DedicatedLfeEffectHandler24ConvolutionEffectHandlerEEEEEEDcT_DpT0_', symObjAddr: 0x3580, symBinAddr: 0x16150, symSize: 0x30 }
  - { offset: 0x13FCFA, size: 0x8, addend: 0x0, symName: '__ZNSt3__116__variant_detail12__visitation6__base12__dispatcherIJLm0EEE10__dispatchB8fe200100IONS1_9__variant15__value_visitorIZN12_GLOBAL__N_112alGetEffectiEN3gsl8not_nullIPN2al7ContextEEEjiPiE3$_0EEJRNS0_6__baseILNS0_6_TraitE0EJ17NullEffectHandler19ReverbEffectHandler22StdReverbEffectHandler20AutowahEffectHandler19ChorusEffectHandler23CompressorEffectHandler23DistortionEffectHandler17EchoEffectHandler22EqualizerEffectHandler20FlangerEffectHandler21FshifterEffectHandler22ModulatorEffectHandler21PshifterEffectHandler21VmorpherEffectHandler28DedicatedDialogEffectHandler25DedicatedLfeEffectHandler24ConvolutionEffectHandlerEEEEEEDcT_DpT0_', symObjAddr: 0x3580, symBinAddr: 0x16150, symSize: 0x30 }
  - { offset: 0x13FEAA, size: 0x8, addend: 0x0, symName: '__ZNSt3__116__variant_detail12__visitation6__base12__dispatcherIJLm1EEE10__dispatchB8fe200100IONS1_9__variant15__value_visitorIZN12_GLOBAL__N_112alGetEffectiEN3gsl8not_nullIPN2al7ContextEEEjiPiE3$_0EEJRNS0_6__baseILNS0_6_TraitE0EJ17NullEffectHandler19ReverbEffectHandler22StdReverbEffectHandler20AutowahEffectHandler19ChorusEffectHandler23CompressorEffectHandler23DistortionEffectHandler17EchoEffectHandler22EqualizerEffectHandler20FlangerEffectHandler21FshifterEffectHandler22ModulatorEffectHandler21PshifterEffectHandler21VmorpherEffectHandler28DedicatedDialogEffectHandler25DedicatedLfeEffectHandler24ConvolutionEffectHandlerEEEEEEDcT_DpT0_', symObjAddr: 0x35B0, symBinAddr: 0x16180, symSize: 0x30 }
  - { offset: 0x13FEDE, size: 0x8, addend: 0x0, symName: '__ZNSt3__116__variant_detail12__visitation6__base12__dispatcherIJLm1EEE10__dispatchB8fe200100IONS1_9__variant15__value_visitorIZN12_GLOBAL__N_112alGetEffectiEN3gsl8not_nullIPN2al7ContextEEEjiPiE3$_0EEJRNS0_6__baseILNS0_6_TraitE0EJ17NullEffectHandler19ReverbEffectHandler22StdReverbEffectHandler20AutowahEffectHandler19ChorusEffectHandler23CompressorEffectHandler23DistortionEffectHandler17EchoEffectHandler22EqualizerEffectHandler20FlangerEffectHandler21FshifterEffectHandler22ModulatorEffectHandler21PshifterEffectHandler21VmorpherEffectHandler28DedicatedDialogEffectHandler25DedicatedLfeEffectHandler24ConvolutionEffectHandlerEEEEEEDcT_DpT0_', symObjAddr: 0x35B0, symBinAddr: 0x16180, symSize: 0x30 }
  - { offset: 0x13FEFC, size: 0x8, addend: 0x0, symName: '__ZNSt3__116__variant_detail12__visitation6__base12__dispatcherIJLm1EEE10__dispatchB8fe200100IONS1_9__variant15__value_visitorIZN12_GLOBAL__N_112alGetEffectiEN3gsl8not_nullIPN2al7ContextEEEjiPiE3$_0EEJRNS0_6__baseILNS0_6_TraitE0EJ17NullEffectHandler19ReverbEffectHandler22StdReverbEffectHandler20AutowahEffectHandler19ChorusEffectHandler23CompressorEffectHandler23DistortionEffectHandler17EchoEffectHandler22EqualizerEffectHandler20FlangerEffectHandler21FshifterEffectHandler22ModulatorEffectHandler21PshifterEffectHandler21VmorpherEffectHandler28DedicatedDialogEffectHandler25DedicatedLfeEffectHandler24ConvolutionEffectHandlerEEEEEEDcT_DpT0_', symObjAddr: 0x35B0, symBinAddr: 0x16180, symSize: 0x30 }
  - { offset: 0x1400AC, size: 0x8, addend: 0x0, symName: '__ZNSt3__116__variant_detail12__visitation6__base12__dispatcherIJLm2EEE10__dispatchB8fe200100IONS1_9__variant15__value_visitorIZN12_GLOBAL__N_112alGetEffectiEN3gsl8not_nullIPN2al7ContextEEEjiPiE3$_0EEJRNS0_6__baseILNS0_6_TraitE0EJ17NullEffectHandler19ReverbEffectHandler22StdReverbEffectHandler20AutowahEffectHandler19ChorusEffectHandler23CompressorEffectHandler23DistortionEffectHandler17EchoEffectHandler22EqualizerEffectHandler20FlangerEffectHandler21FshifterEffectHandler22ModulatorEffectHandler21PshifterEffectHandler21VmorpherEffectHandler28DedicatedDialogEffectHandler25DedicatedLfeEffectHandler24ConvolutionEffectHandlerEEEEEEDcT_DpT0_', symObjAddr: 0x35E0, symBinAddr: 0x161B0, symSize: 0x30 }
  - { offset: 0x1400E0, size: 0x8, addend: 0x0, symName: '__ZNSt3__116__variant_detail12__visitation6__base12__dispatcherIJLm2EEE10__dispatchB8fe200100IONS1_9__variant15__value_visitorIZN12_GLOBAL__N_112alGetEffectiEN3gsl8not_nullIPN2al7ContextEEEjiPiE3$_0EEJRNS0_6__baseILNS0_6_TraitE0EJ17NullEffectHandler19ReverbEffectHandler22StdReverbEffectHandler20AutowahEffectHandler19ChorusEffectHandler23CompressorEffectHandler23DistortionEffectHandler17EchoEffectHandler22EqualizerEffectHandler20FlangerEffectHandler21FshifterEffectHandler22ModulatorEffectHandler21PshifterEffectHandler21VmorpherEffectHandler28DedicatedDialogEffectHandler25DedicatedLfeEffectHandler24ConvolutionEffectHandlerEEEEEEDcT_DpT0_', symObjAddr: 0x35E0, symBinAddr: 0x161B0, symSize: 0x30 }
  - { offset: 0x1400FE, size: 0x8, addend: 0x0, symName: '__ZNSt3__116__variant_detail12__visitation6__base12__dispatcherIJLm2EEE10__dispatchB8fe200100IONS1_9__variant15__value_visitorIZN12_GLOBAL__N_112alGetEffectiEN3gsl8not_nullIPN2al7ContextEEEjiPiE3$_0EEJRNS0_6__baseILNS0_6_TraitE0EJ17NullEffectHandler19ReverbEffectHandler22StdReverbEffectHandler20AutowahEffectHandler19ChorusEffectHandler23CompressorEffectHandler23DistortionEffectHandler17EchoEffectHandler22EqualizerEffectHandler20FlangerEffectHandler21FshifterEffectHandler22ModulatorEffectHandler21PshifterEffectHandler21VmorpherEffectHandler28DedicatedDialogEffectHandler25DedicatedLfeEffectHandler24ConvolutionEffectHandlerEEEEEEDcT_DpT0_', symObjAddr: 0x35E0, symBinAddr: 0x161B0, symSize: 0x30 }
  - { offset: 0x1402AE, size: 0x8, addend: 0x0, symName: '__ZNSt3__116__variant_detail12__visitation6__base12__dispatcherIJLm3EEE10__dispatchB8fe200100IONS1_9__variant15__value_visitorIZN12_GLOBAL__N_112alGetEffectiEN3gsl8not_nullIPN2al7ContextEEEjiPiE3$_0EEJRNS0_6__baseILNS0_6_TraitE0EJ17NullEffectHandler19ReverbEffectHandler22StdReverbEffectHandler20AutowahEffectHandler19ChorusEffectHandler23CompressorEffectHandler23DistortionEffectHandler17EchoEffectHandler22EqualizerEffectHandler20FlangerEffectHandler21FshifterEffectHandler22ModulatorEffectHandler21PshifterEffectHandler21VmorpherEffectHandler28DedicatedDialogEffectHandler25DedicatedLfeEffectHandler24ConvolutionEffectHandlerEEEEEEDcT_DpT0_', symObjAddr: 0x3610, symBinAddr: 0x161E0, symSize: 0x30 }
  - { offset: 0x1402E2, size: 0x8, addend: 0x0, symName: '__ZNSt3__116__variant_detail12__visitation6__base12__dispatcherIJLm3EEE10__dispatchB8fe200100IONS1_9__variant15__value_visitorIZN12_GLOBAL__N_112alGetEffectiEN3gsl8not_nullIPN2al7ContextEEEjiPiE3$_0EEJRNS0_6__baseILNS0_6_TraitE0EJ17NullEffectHandler19ReverbEffectHandler22StdReverbEffectHandler20AutowahEffectHandler19ChorusEffectHandler23CompressorEffectHandler23DistortionEffectHandler17EchoEffectHandler22EqualizerEffectHandler20FlangerEffectHandler21FshifterEffectHandler22ModulatorEffectHandler21PshifterEffectHandler21VmorpherEffectHandler28DedicatedDialogEffectHandler25DedicatedLfeEffectHandler24ConvolutionEffectHandlerEEEEEEDcT_DpT0_', symObjAddr: 0x3610, symBinAddr: 0x161E0, symSize: 0x30 }
  - { offset: 0x140300, size: 0x8, addend: 0x0, symName: '__ZNSt3__116__variant_detail12__visitation6__base12__dispatcherIJLm3EEE10__dispatchB8fe200100IONS1_9__variant15__value_visitorIZN12_GLOBAL__N_112alGetEffectiEN3gsl8not_nullIPN2al7ContextEEEjiPiE3$_0EEJRNS0_6__baseILNS0_6_TraitE0EJ17NullEffectHandler19ReverbEffectHandler22StdReverbEffectHandler20AutowahEffectHandler19ChorusEffectHandler23CompressorEffectHandler23DistortionEffectHandler17EchoEffectHandler22EqualizerEffectHandler20FlangerEffectHandler21FshifterEffectHandler22ModulatorEffectHandler21PshifterEffectHandler21VmorpherEffectHandler28DedicatedDialogEffectHandler25DedicatedLfeEffectHandler24ConvolutionEffectHandlerEEEEEEDcT_DpT0_', symObjAddr: 0x3610, symBinAddr: 0x161E0, symSize: 0x30 }
  - { offset: 0x1404B0, size: 0x8, addend: 0x0, symName: '__ZNSt3__116__variant_detail12__visitation6__base12__dispatcherIJLm4EEE10__dispatchB8fe200100IONS1_9__variant15__value_visitorIZN12_GLOBAL__N_112alGetEffectiEN3gsl8not_nullIPN2al7ContextEEEjiPiE3$_0EEJRNS0_6__baseILNS0_6_TraitE0EJ17NullEffectHandler19ReverbEffectHandler22StdReverbEffectHandler20AutowahEffectHandler19ChorusEffectHandler23CompressorEffectHandler23DistortionEffectHandler17EchoEffectHandler22EqualizerEffectHandler20FlangerEffectHandler21FshifterEffectHandler22ModulatorEffectHandler21PshifterEffectHandler21VmorpherEffectHandler28DedicatedDialogEffectHandler25DedicatedLfeEffectHandler24ConvolutionEffectHandlerEEEEEEDcT_DpT0_', symObjAddr: 0x3640, symBinAddr: 0x16210, symSize: 0x30 }
  - { offset: 0x1404E4, size: 0x8, addend: 0x0, symName: '__ZNSt3__116__variant_detail12__visitation6__base12__dispatcherIJLm4EEE10__dispatchB8fe200100IONS1_9__variant15__value_visitorIZN12_GLOBAL__N_112alGetEffectiEN3gsl8not_nullIPN2al7ContextEEEjiPiE3$_0EEJRNS0_6__baseILNS0_6_TraitE0EJ17NullEffectHandler19ReverbEffectHandler22StdReverbEffectHandler20AutowahEffectHandler19ChorusEffectHandler23CompressorEffectHandler23DistortionEffectHandler17EchoEffectHandler22EqualizerEffectHandler20FlangerEffectHandler21FshifterEffectHandler22ModulatorEffectHandler21PshifterEffectHandler21VmorpherEffectHandler28DedicatedDialogEffectHandler25DedicatedLfeEffectHandler24ConvolutionEffectHandlerEEEEEEDcT_DpT0_', symObjAddr: 0x3640, symBinAddr: 0x16210, symSize: 0x30 }
  - { offset: 0x140502, size: 0x8, addend: 0x0, symName: '__ZNSt3__116__variant_detail12__visitation6__base12__dispatcherIJLm4EEE10__dispatchB8fe200100IONS1_9__variant15__value_visitorIZN12_GLOBAL__N_112alGetEffectiEN3gsl8not_nullIPN2al7ContextEEEjiPiE3$_0EEJRNS0_6__baseILNS0_6_TraitE0EJ17NullEffectHandler19ReverbEffectHandler22StdReverbEffectHandler20AutowahEffectHandler19ChorusEffectHandler23CompressorEffectHandler23DistortionEffectHandler17EchoEffectHandler22EqualizerEffectHandler20FlangerEffectHandler21FshifterEffectHandler22ModulatorEffectHandler21PshifterEffectHandler21VmorpherEffectHandler28DedicatedDialogEffectHandler25DedicatedLfeEffectHandler24ConvolutionEffectHandlerEEEEEEDcT_DpT0_', symObjAddr: 0x3640, symBinAddr: 0x16210, symSize: 0x30 }
  - { offset: 0x1406B2, size: 0x8, addend: 0x0, symName: '__ZNSt3__116__variant_detail12__visitation6__base12__dispatcherIJLm5EEE10__dispatchB8fe200100IONS1_9__variant15__value_visitorIZN12_GLOBAL__N_112alGetEffectiEN3gsl8not_nullIPN2al7ContextEEEjiPiE3$_0EEJRNS0_6__baseILNS0_6_TraitE0EJ17NullEffectHandler19ReverbEffectHandler22StdReverbEffectHandler20AutowahEffectHandler19ChorusEffectHandler23CompressorEffectHandler23DistortionEffectHandler17EchoEffectHandler22EqualizerEffectHandler20FlangerEffectHandler21FshifterEffectHandler22ModulatorEffectHandler21PshifterEffectHandler21VmorpherEffectHandler28DedicatedDialogEffectHandler25DedicatedLfeEffectHandler24ConvolutionEffectHandlerEEEEEEDcT_DpT0_', symObjAddr: 0x3670, symBinAddr: 0x16240, symSize: 0x30 }
  - { offset: 0x1406E6, size: 0x8, addend: 0x0, symName: '__ZNSt3__116__variant_detail12__visitation6__base12__dispatcherIJLm5EEE10__dispatchB8fe200100IONS1_9__variant15__value_visitorIZN12_GLOBAL__N_112alGetEffectiEN3gsl8not_nullIPN2al7ContextEEEjiPiE3$_0EEJRNS0_6__baseILNS0_6_TraitE0EJ17NullEffectHandler19ReverbEffectHandler22StdReverbEffectHandler20AutowahEffectHandler19ChorusEffectHandler23CompressorEffectHandler23DistortionEffectHandler17EchoEffectHandler22EqualizerEffectHandler20FlangerEffectHandler21FshifterEffectHandler22ModulatorEffectHandler21PshifterEffectHandler21VmorpherEffectHandler28DedicatedDialogEffectHandler25DedicatedLfeEffectHandler24ConvolutionEffectHandlerEEEEEEDcT_DpT0_', symObjAddr: 0x3670, symBinAddr: 0x16240, symSize: 0x30 }
  - { offset: 0x140704, size: 0x8, addend: 0x0, symName: '__ZNSt3__116__variant_detail12__visitation6__base12__dispatcherIJLm5EEE10__dispatchB8fe200100IONS1_9__variant15__value_visitorIZN12_GLOBAL__N_112alGetEffectiEN3gsl8not_nullIPN2al7ContextEEEjiPiE3$_0EEJRNS0_6__baseILNS0_6_TraitE0EJ17NullEffectHandler19ReverbEffectHandler22StdReverbEffectHandler20AutowahEffectHandler19ChorusEffectHandler23CompressorEffectHandler23DistortionEffectHandler17EchoEffectHandler22EqualizerEffectHandler20FlangerEffectHandler21FshifterEffectHandler22ModulatorEffectHandler21PshifterEffectHandler21VmorpherEffectHandler28DedicatedDialogEffectHandler25DedicatedLfeEffectHandler24ConvolutionEffectHandlerEEEEEEDcT_DpT0_', symObjAddr: 0x3670, symBinAddr: 0x16240, symSize: 0x30 }
  - { offset: 0x1408B4, size: 0x8, addend: 0x0, symName: '__ZNSt3__116__variant_detail12__visitation6__base12__dispatcherIJLm6EEE10__dispatchB8fe200100IONS1_9__variant15__value_visitorIZN12_GLOBAL__N_112alGetEffectiEN3gsl8not_nullIPN2al7ContextEEEjiPiE3$_0EEJRNS0_6__baseILNS0_6_TraitE0EJ17NullEffectHandler19ReverbEffectHandler22StdReverbEffectHandler20AutowahEffectHandler19ChorusEffectHandler23CompressorEffectHandler23DistortionEffectHandler17EchoEffectHandler22EqualizerEffectHandler20FlangerEffectHandler21FshifterEffectHandler22ModulatorEffectHandler21PshifterEffectHandler21VmorpherEffectHandler28DedicatedDialogEffectHandler25DedicatedLfeEffectHandler24ConvolutionEffectHandlerEEEEEEDcT_DpT0_', symObjAddr: 0x36A0, symBinAddr: 0x16270, symSize: 0x30 }
  - { offset: 0x1408E8, size: 0x8, addend: 0x0, symName: '__ZNSt3__116__variant_detail12__visitation6__base12__dispatcherIJLm6EEE10__dispatchB8fe200100IONS1_9__variant15__value_visitorIZN12_GLOBAL__N_112alGetEffectiEN3gsl8not_nullIPN2al7ContextEEEjiPiE3$_0EEJRNS0_6__baseILNS0_6_TraitE0EJ17NullEffectHandler19ReverbEffectHandler22StdReverbEffectHandler20AutowahEffectHandler19ChorusEffectHandler23CompressorEffectHandler23DistortionEffectHandler17EchoEffectHandler22EqualizerEffectHandler20FlangerEffectHandler21FshifterEffectHandler22ModulatorEffectHandler21PshifterEffectHandler21VmorpherEffectHandler28DedicatedDialogEffectHandler25DedicatedLfeEffectHandler24ConvolutionEffectHandlerEEEEEEDcT_DpT0_', symObjAddr: 0x36A0, symBinAddr: 0x16270, symSize: 0x30 }
  - { offset: 0x140906, size: 0x8, addend: 0x0, symName: '__ZNSt3__116__variant_detail12__visitation6__base12__dispatcherIJLm6EEE10__dispatchB8fe200100IONS1_9__variant15__value_visitorIZN12_GLOBAL__N_112alGetEffectiEN3gsl8not_nullIPN2al7ContextEEEjiPiE3$_0EEJRNS0_6__baseILNS0_6_TraitE0EJ17NullEffectHandler19ReverbEffectHandler22StdReverbEffectHandler20AutowahEffectHandler19ChorusEffectHandler23CompressorEffectHandler23DistortionEffectHandler17EchoEffectHandler22EqualizerEffectHandler20FlangerEffectHandler21FshifterEffectHandler22ModulatorEffectHandler21PshifterEffectHandler21VmorpherEffectHandler28DedicatedDialogEffectHandler25DedicatedLfeEffectHandler24ConvolutionEffectHandlerEEEEEEDcT_DpT0_', symObjAddr: 0x36A0, symBinAddr: 0x16270, symSize: 0x30 }
  - { offset: 0x140AB6, size: 0x8, addend: 0x0, symName: '__ZNSt3__116__variant_detail12__visitation6__base12__dispatcherIJLm7EEE10__dispatchB8fe200100IONS1_9__variant15__value_visitorIZN12_GLOBAL__N_112alGetEffectiEN3gsl8not_nullIPN2al7ContextEEEjiPiE3$_0EEJRNS0_6__baseILNS0_6_TraitE0EJ17NullEffectHandler19ReverbEffectHandler22StdReverbEffectHandler20AutowahEffectHandler19ChorusEffectHandler23CompressorEffectHandler23DistortionEffectHandler17EchoEffectHandler22EqualizerEffectHandler20FlangerEffectHandler21FshifterEffectHandler22ModulatorEffectHandler21PshifterEffectHandler21VmorpherEffectHandler28DedicatedDialogEffectHandler25DedicatedLfeEffectHandler24ConvolutionEffectHandlerEEEEEEDcT_DpT0_', symObjAddr: 0x36D0, symBinAddr: 0x162A0, symSize: 0x30 }
  - { offset: 0x140AEA, size: 0x8, addend: 0x0, symName: '__ZNSt3__116__variant_detail12__visitation6__base12__dispatcherIJLm7EEE10__dispatchB8fe200100IONS1_9__variant15__value_visitorIZN12_GLOBAL__N_112alGetEffectiEN3gsl8not_nullIPN2al7ContextEEEjiPiE3$_0EEJRNS0_6__baseILNS0_6_TraitE0EJ17NullEffectHandler19ReverbEffectHandler22StdReverbEffectHandler20AutowahEffectHandler19ChorusEffectHandler23CompressorEffectHandler23DistortionEffectHandler17EchoEffectHandler22EqualizerEffectHandler20FlangerEffectHandler21FshifterEffectHandler22ModulatorEffectHandler21PshifterEffectHandler21VmorpherEffectHandler28DedicatedDialogEffectHandler25DedicatedLfeEffectHandler24ConvolutionEffectHandlerEEEEEEDcT_DpT0_', symObjAddr: 0x36D0, symBinAddr: 0x162A0, symSize: 0x30 }
  - { offset: 0x140B08, size: 0x8, addend: 0x0, symName: '__ZNSt3__116__variant_detail12__visitation6__base12__dispatcherIJLm7EEE10__dispatchB8fe200100IONS1_9__variant15__value_visitorIZN12_GLOBAL__N_112alGetEffectiEN3gsl8not_nullIPN2al7ContextEEEjiPiE3$_0EEJRNS0_6__baseILNS0_6_TraitE0EJ17NullEffectHandler19ReverbEffectHandler22StdReverbEffectHandler20AutowahEffectHandler19ChorusEffectHandler23CompressorEffectHandler23DistortionEffectHandler17EchoEffectHandler22EqualizerEffectHandler20FlangerEffectHandler21FshifterEffectHandler22ModulatorEffectHandler21PshifterEffectHandler21VmorpherEffectHandler28DedicatedDialogEffectHandler25DedicatedLfeEffectHandler24ConvolutionEffectHandlerEEEEEEDcT_DpT0_', symObjAddr: 0x36D0, symBinAddr: 0x162A0, symSize: 0x30 }
  - { offset: 0x140CB8, size: 0x8, addend: 0x0, symName: '__ZNSt3__116__variant_detail12__visitation6__base12__dispatcherIJLm8EEE10__dispatchB8fe200100IONS1_9__variant15__value_visitorIZN12_GLOBAL__N_112alGetEffectiEN3gsl8not_nullIPN2al7ContextEEEjiPiE3$_0EEJRNS0_6__baseILNS0_6_TraitE0EJ17NullEffectHandler19ReverbEffectHandler22StdReverbEffectHandler20AutowahEffectHandler19ChorusEffectHandler23CompressorEffectHandler23DistortionEffectHandler17EchoEffectHandler22EqualizerEffectHandler20FlangerEffectHandler21FshifterEffectHandler22ModulatorEffectHandler21PshifterEffectHandler21VmorpherEffectHandler28DedicatedDialogEffectHandler25DedicatedLfeEffectHandler24ConvolutionEffectHandlerEEEEEEDcT_DpT0_', symObjAddr: 0x3700, symBinAddr: 0x162D0, symSize: 0x30 }
  - { offset: 0x140CEC, size: 0x8, addend: 0x0, symName: '__ZNSt3__116__variant_detail12__visitation6__base12__dispatcherIJLm8EEE10__dispatchB8fe200100IONS1_9__variant15__value_visitorIZN12_GLOBAL__N_112alGetEffectiEN3gsl8not_nullIPN2al7ContextEEEjiPiE3$_0EEJRNS0_6__baseILNS0_6_TraitE0EJ17NullEffectHandler19ReverbEffectHandler22StdReverbEffectHandler20AutowahEffectHandler19ChorusEffectHandler23CompressorEffectHandler23DistortionEffectHandler17EchoEffectHandler22EqualizerEffectHandler20FlangerEffectHandler21FshifterEffectHandler22ModulatorEffectHandler21PshifterEffectHandler21VmorpherEffectHandler28DedicatedDialogEffectHandler25DedicatedLfeEffectHandler24ConvolutionEffectHandlerEEEEEEDcT_DpT0_', symObjAddr: 0x3700, symBinAddr: 0x162D0, symSize: 0x30 }
  - { offset: 0x140D0A, size: 0x8, addend: 0x0, symName: '__ZNSt3__116__variant_detail12__visitation6__base12__dispatcherIJLm8EEE10__dispatchB8fe200100IONS1_9__variant15__value_visitorIZN12_GLOBAL__N_112alGetEffectiEN3gsl8not_nullIPN2al7ContextEEEjiPiE3$_0EEJRNS0_6__baseILNS0_6_TraitE0EJ17NullEffectHandler19ReverbEffectHandler22StdReverbEffectHandler20AutowahEffectHandler19ChorusEffectHandler23CompressorEffectHandler23DistortionEffectHandler17EchoEffectHandler22EqualizerEffectHandler20FlangerEffectHandler21FshifterEffectHandler22ModulatorEffectHandler21PshifterEffectHandler21VmorpherEffectHandler28DedicatedDialogEffectHandler25DedicatedLfeEffectHandler24ConvolutionEffectHandlerEEEEEEDcT_DpT0_', symObjAddr: 0x3700, symBinAddr: 0x162D0, symSize: 0x30 }
  - { offset: 0x140EBA, size: 0x8, addend: 0x0, symName: '__ZNSt3__116__variant_detail12__visitation6__base12__dispatcherIJLm9EEE10__dispatchB8fe200100IONS1_9__variant15__value_visitorIZN12_GLOBAL__N_112alGetEffectiEN3gsl8not_nullIPN2al7ContextEEEjiPiE3$_0EEJRNS0_6__baseILNS0_6_TraitE0EJ17NullEffectHandler19ReverbEffectHandler22StdReverbEffectHandler20AutowahEffectHandler19ChorusEffectHandler23CompressorEffectHandler23DistortionEffectHandler17EchoEffectHandler22EqualizerEffectHandler20FlangerEffectHandler21FshifterEffectHandler22ModulatorEffectHandler21PshifterEffectHandler21VmorpherEffectHandler28DedicatedDialogEffectHandler25DedicatedLfeEffectHandler24ConvolutionEffectHandlerEEEEEEDcT_DpT0_', symObjAddr: 0x3730, symBinAddr: 0x16300, symSize: 0x30 }
  - { offset: 0x140EEE, size: 0x8, addend: 0x0, symName: '__ZNSt3__116__variant_detail12__visitation6__base12__dispatcherIJLm9EEE10__dispatchB8fe200100IONS1_9__variant15__value_visitorIZN12_GLOBAL__N_112alGetEffectiEN3gsl8not_nullIPN2al7ContextEEEjiPiE3$_0EEJRNS0_6__baseILNS0_6_TraitE0EJ17NullEffectHandler19ReverbEffectHandler22StdReverbEffectHandler20AutowahEffectHandler19ChorusEffectHandler23CompressorEffectHandler23DistortionEffectHandler17EchoEffectHandler22EqualizerEffectHandler20FlangerEffectHandler21FshifterEffectHandler22ModulatorEffectHandler21PshifterEffectHandler21VmorpherEffectHandler28DedicatedDialogEffectHandler25DedicatedLfeEffectHandler24ConvolutionEffectHandlerEEEEEEDcT_DpT0_', symObjAddr: 0x3730, symBinAddr: 0x16300, symSize: 0x30 }
  - { offset: 0x140F0C, size: 0x8, addend: 0x0, symName: '__ZNSt3__116__variant_detail12__visitation6__base12__dispatcherIJLm9EEE10__dispatchB8fe200100IONS1_9__variant15__value_visitorIZN12_GLOBAL__N_112alGetEffectiEN3gsl8not_nullIPN2al7ContextEEEjiPiE3$_0EEJRNS0_6__baseILNS0_6_TraitE0EJ17NullEffectHandler19ReverbEffectHandler22StdReverbEffectHandler20AutowahEffectHandler19ChorusEffectHandler23CompressorEffectHandler23DistortionEffectHandler17EchoEffectHandler22EqualizerEffectHandler20FlangerEffectHandler21FshifterEffectHandler22ModulatorEffectHandler21PshifterEffectHandler21VmorpherEffectHandler28DedicatedDialogEffectHandler25DedicatedLfeEffectHandler24ConvolutionEffectHandlerEEEEEEDcT_DpT0_', symObjAddr: 0x3730, symBinAddr: 0x16300, symSize: 0x30 }
  - { offset: 0x1410BC, size: 0x8, addend: 0x0, symName: '__ZNSt3__116__variant_detail12__visitation6__base12__dispatcherIJLm10EEE10__dispatchB8fe200100IONS1_9__variant15__value_visitorIZN12_GLOBAL__N_112alGetEffectiEN3gsl8not_nullIPN2al7ContextEEEjiPiE3$_0EEJRNS0_6__baseILNS0_6_TraitE0EJ17NullEffectHandler19ReverbEffectHandler22StdReverbEffectHandler20AutowahEffectHandler19ChorusEffectHandler23CompressorEffectHandler23DistortionEffectHandler17EchoEffectHandler22EqualizerEffectHandler20FlangerEffectHandler21FshifterEffectHandler22ModulatorEffectHandler21PshifterEffectHandler21VmorpherEffectHandler28DedicatedDialogEffectHandler25DedicatedLfeEffectHandler24ConvolutionEffectHandlerEEEEEEDcT_DpT0_', symObjAddr: 0x3760, symBinAddr: 0x16330, symSize: 0x30 }
  - { offset: 0x1410F0, size: 0x8, addend: 0x0, symName: '__ZNSt3__116__variant_detail12__visitation6__base12__dispatcherIJLm10EEE10__dispatchB8fe200100IONS1_9__variant15__value_visitorIZN12_GLOBAL__N_112alGetEffectiEN3gsl8not_nullIPN2al7ContextEEEjiPiE3$_0EEJRNS0_6__baseILNS0_6_TraitE0EJ17NullEffectHandler19ReverbEffectHandler22StdReverbEffectHandler20AutowahEffectHandler19ChorusEffectHandler23CompressorEffectHandler23DistortionEffectHandler17EchoEffectHandler22EqualizerEffectHandler20FlangerEffectHandler21FshifterEffectHandler22ModulatorEffectHandler21PshifterEffectHandler21VmorpherEffectHandler28DedicatedDialogEffectHandler25DedicatedLfeEffectHandler24ConvolutionEffectHandlerEEEEEEDcT_DpT0_', symObjAddr: 0x3760, symBinAddr: 0x16330, symSize: 0x30 }
  - { offset: 0x14110E, size: 0x8, addend: 0x0, symName: '__ZNSt3__116__variant_detail12__visitation6__base12__dispatcherIJLm10EEE10__dispatchB8fe200100IONS1_9__variant15__value_visitorIZN12_GLOBAL__N_112alGetEffectiEN3gsl8not_nullIPN2al7ContextEEEjiPiE3$_0EEJRNS0_6__baseILNS0_6_TraitE0EJ17NullEffectHandler19ReverbEffectHandler22StdReverbEffectHandler20AutowahEffectHandler19ChorusEffectHandler23CompressorEffectHandler23DistortionEffectHandler17EchoEffectHandler22EqualizerEffectHandler20FlangerEffectHandler21FshifterEffectHandler22ModulatorEffectHandler21PshifterEffectHandler21VmorpherEffectHandler28DedicatedDialogEffectHandler25DedicatedLfeEffectHandler24ConvolutionEffectHandlerEEEEEEDcT_DpT0_', symObjAddr: 0x3760, symBinAddr: 0x16330, symSize: 0x30 }
  - { offset: 0x1412BE, size: 0x8, addend: 0x0, symName: '__ZNSt3__116__variant_detail12__visitation6__base12__dispatcherIJLm11EEE10__dispatchB8fe200100IONS1_9__variant15__value_visitorIZN12_GLOBAL__N_112alGetEffectiEN3gsl8not_nullIPN2al7ContextEEEjiPiE3$_0EEJRNS0_6__baseILNS0_6_TraitE0EJ17NullEffectHandler19ReverbEffectHandler22StdReverbEffectHandler20AutowahEffectHandler19ChorusEffectHandler23CompressorEffectHandler23DistortionEffectHandler17EchoEffectHandler22EqualizerEffectHandler20FlangerEffectHandler21FshifterEffectHandler22ModulatorEffectHandler21PshifterEffectHandler21VmorpherEffectHandler28DedicatedDialogEffectHandler25DedicatedLfeEffectHandler24ConvolutionEffectHandlerEEEEEEDcT_DpT0_', symObjAddr: 0x3790, symBinAddr: 0x16360, symSize: 0x30 }
  - { offset: 0x1412F2, size: 0x8, addend: 0x0, symName: '__ZNSt3__116__variant_detail12__visitation6__base12__dispatcherIJLm11EEE10__dispatchB8fe200100IONS1_9__variant15__value_visitorIZN12_GLOBAL__N_112alGetEffectiEN3gsl8not_nullIPN2al7ContextEEEjiPiE3$_0EEJRNS0_6__baseILNS0_6_TraitE0EJ17NullEffectHandler19ReverbEffectHandler22StdReverbEffectHandler20AutowahEffectHandler19ChorusEffectHandler23CompressorEffectHandler23DistortionEffectHandler17EchoEffectHandler22EqualizerEffectHandler20FlangerEffectHandler21FshifterEffectHandler22ModulatorEffectHandler21PshifterEffectHandler21VmorpherEffectHandler28DedicatedDialogEffectHandler25DedicatedLfeEffectHandler24ConvolutionEffectHandlerEEEEEEDcT_DpT0_', symObjAddr: 0x3790, symBinAddr: 0x16360, symSize: 0x30 }
  - { offset: 0x141310, size: 0x8, addend: 0x0, symName: '__ZNSt3__116__variant_detail12__visitation6__base12__dispatcherIJLm11EEE10__dispatchB8fe200100IONS1_9__variant15__value_visitorIZN12_GLOBAL__N_112alGetEffectiEN3gsl8not_nullIPN2al7ContextEEEjiPiE3$_0EEJRNS0_6__baseILNS0_6_TraitE0EJ17NullEffectHandler19ReverbEffectHandler22StdReverbEffectHandler20AutowahEffectHandler19ChorusEffectHandler23CompressorEffectHandler23DistortionEffectHandler17EchoEffectHandler22EqualizerEffectHandler20FlangerEffectHandler21FshifterEffectHandler22ModulatorEffectHandler21PshifterEffectHandler21VmorpherEffectHandler28DedicatedDialogEffectHandler25DedicatedLfeEffectHandler24ConvolutionEffectHandlerEEEEEEDcT_DpT0_', symObjAddr: 0x3790, symBinAddr: 0x16360, symSize: 0x30 }
  - { offset: 0x1414C0, size: 0x8, addend: 0x0, symName: '__ZNSt3__116__variant_detail12__visitation6__base12__dispatcherIJLm12EEE10__dispatchB8fe200100IONS1_9__variant15__value_visitorIZN12_GLOBAL__N_112alGetEffectiEN3gsl8not_nullIPN2al7ContextEEEjiPiE3$_0EEJRNS0_6__baseILNS0_6_TraitE0EJ17NullEffectHandler19ReverbEffectHandler22StdReverbEffectHandler20AutowahEffectHandler19ChorusEffectHandler23CompressorEffectHandler23DistortionEffectHandler17EchoEffectHandler22EqualizerEffectHandler20FlangerEffectHandler21FshifterEffectHandler22ModulatorEffectHandler21PshifterEffectHandler21VmorpherEffectHandler28DedicatedDialogEffectHandler25DedicatedLfeEffectHandler24ConvolutionEffectHandlerEEEEEEDcT_DpT0_', symObjAddr: 0x37C0, symBinAddr: 0x16390, symSize: 0x30 }
  - { offset: 0x1414F4, size: 0x8, addend: 0x0, symName: '__ZNSt3__116__variant_detail12__visitation6__base12__dispatcherIJLm12EEE10__dispatchB8fe200100IONS1_9__variant15__value_visitorIZN12_GLOBAL__N_112alGetEffectiEN3gsl8not_nullIPN2al7ContextEEEjiPiE3$_0EEJRNS0_6__baseILNS0_6_TraitE0EJ17NullEffectHandler19ReverbEffectHandler22StdReverbEffectHandler20AutowahEffectHandler19ChorusEffectHandler23CompressorEffectHandler23DistortionEffectHandler17EchoEffectHandler22EqualizerEffectHandler20FlangerEffectHandler21FshifterEffectHandler22ModulatorEffectHandler21PshifterEffectHandler21VmorpherEffectHandler28DedicatedDialogEffectHandler25DedicatedLfeEffectHandler24ConvolutionEffectHandlerEEEEEEDcT_DpT0_', symObjAddr: 0x37C0, symBinAddr: 0x16390, symSize: 0x30 }
  - { offset: 0x141512, size: 0x8, addend: 0x0, symName: '__ZNSt3__116__variant_detail12__visitation6__base12__dispatcherIJLm12EEE10__dispatchB8fe200100IONS1_9__variant15__value_visitorIZN12_GLOBAL__N_112alGetEffectiEN3gsl8not_nullIPN2al7ContextEEEjiPiE3$_0EEJRNS0_6__baseILNS0_6_TraitE0EJ17NullEffectHandler19ReverbEffectHandler22StdReverbEffectHandler20AutowahEffectHandler19ChorusEffectHandler23CompressorEffectHandler23DistortionEffectHandler17EchoEffectHandler22EqualizerEffectHandler20FlangerEffectHandler21FshifterEffectHandler22ModulatorEffectHandler21PshifterEffectHandler21VmorpherEffectHandler28DedicatedDialogEffectHandler25DedicatedLfeEffectHandler24ConvolutionEffectHandlerEEEEEEDcT_DpT0_', symObjAddr: 0x37C0, symBinAddr: 0x16390, symSize: 0x30 }
  - { offset: 0x1416C2, size: 0x8, addend: 0x0, symName: '__ZNSt3__116__variant_detail12__visitation6__base12__dispatcherIJLm13EEE10__dispatchB8fe200100IONS1_9__variant15__value_visitorIZN12_GLOBAL__N_112alGetEffectiEN3gsl8not_nullIPN2al7ContextEEEjiPiE3$_0EEJRNS0_6__baseILNS0_6_TraitE0EJ17NullEffectHandler19ReverbEffectHandler22StdReverbEffectHandler20AutowahEffectHandler19ChorusEffectHandler23CompressorEffectHandler23DistortionEffectHandler17EchoEffectHandler22EqualizerEffectHandler20FlangerEffectHandler21FshifterEffectHandler22ModulatorEffectHandler21PshifterEffectHandler21VmorpherEffectHandler28DedicatedDialogEffectHandler25DedicatedLfeEffectHandler24ConvolutionEffectHandlerEEEEEEDcT_DpT0_', symObjAddr: 0x37F0, symBinAddr: 0x163C0, symSize: 0x30 }
  - { offset: 0x1416F6, size: 0x8, addend: 0x0, symName: '__ZNSt3__116__variant_detail12__visitation6__base12__dispatcherIJLm13EEE10__dispatchB8fe200100IONS1_9__variant15__value_visitorIZN12_GLOBAL__N_112alGetEffectiEN3gsl8not_nullIPN2al7ContextEEEjiPiE3$_0EEJRNS0_6__baseILNS0_6_TraitE0EJ17NullEffectHandler19ReverbEffectHandler22StdReverbEffectHandler20AutowahEffectHandler19ChorusEffectHandler23CompressorEffectHandler23DistortionEffectHandler17EchoEffectHandler22EqualizerEffectHandler20FlangerEffectHandler21FshifterEffectHandler22ModulatorEffectHandler21PshifterEffectHandler21VmorpherEffectHandler28DedicatedDialogEffectHandler25DedicatedLfeEffectHandler24ConvolutionEffectHandlerEEEEEEDcT_DpT0_', symObjAddr: 0x37F0, symBinAddr: 0x163C0, symSize: 0x30 }
  - { offset: 0x141714, size: 0x8, addend: 0x0, symName: '__ZNSt3__116__variant_detail12__visitation6__base12__dispatcherIJLm13EEE10__dispatchB8fe200100IONS1_9__variant15__value_visitorIZN12_GLOBAL__N_112alGetEffectiEN3gsl8not_nullIPN2al7ContextEEEjiPiE3$_0EEJRNS0_6__baseILNS0_6_TraitE0EJ17NullEffectHandler19ReverbEffectHandler22StdReverbEffectHandler20AutowahEffectHandler19ChorusEffectHandler23CompressorEffectHandler23DistortionEffectHandler17EchoEffectHandler22EqualizerEffectHandler20FlangerEffectHandler21FshifterEffectHandler22ModulatorEffectHandler21PshifterEffectHandler21VmorpherEffectHandler28DedicatedDialogEffectHandler25DedicatedLfeEffectHandler24ConvolutionEffectHandlerEEEEEEDcT_DpT0_', symObjAddr: 0x37F0, symBinAddr: 0x163C0, symSize: 0x30 }
  - { offset: 0x1418C4, size: 0x8, addend: 0x0, symName: '__ZNSt3__116__variant_detail12__visitation6__base12__dispatcherIJLm14EEE10__dispatchB8fe200100IONS1_9__variant15__value_visitorIZN12_GLOBAL__N_112alGetEffectiEN3gsl8not_nullIPN2al7ContextEEEjiPiE3$_0EEJRNS0_6__baseILNS0_6_TraitE0EJ17NullEffectHandler19ReverbEffectHandler22StdReverbEffectHandler20AutowahEffectHandler19ChorusEffectHandler23CompressorEffectHandler23DistortionEffectHandler17EchoEffectHandler22EqualizerEffectHandler20FlangerEffectHandler21FshifterEffectHandler22ModulatorEffectHandler21PshifterEffectHandler21VmorpherEffectHandler28DedicatedDialogEffectHandler25DedicatedLfeEffectHandler24ConvolutionEffectHandlerEEEEEEDcT_DpT0_', symObjAddr: 0x3820, symBinAddr: 0x163F0, symSize: 0x30 }
  - { offset: 0x1418F8, size: 0x8, addend: 0x0, symName: '__ZNSt3__116__variant_detail12__visitation6__base12__dispatcherIJLm14EEE10__dispatchB8fe200100IONS1_9__variant15__value_visitorIZN12_GLOBAL__N_112alGetEffectiEN3gsl8not_nullIPN2al7ContextEEEjiPiE3$_0EEJRNS0_6__baseILNS0_6_TraitE0EJ17NullEffectHandler19ReverbEffectHandler22StdReverbEffectHandler20AutowahEffectHandler19ChorusEffectHandler23CompressorEffectHandler23DistortionEffectHandler17EchoEffectHandler22EqualizerEffectHandler20FlangerEffectHandler21FshifterEffectHandler22ModulatorEffectHandler21PshifterEffectHandler21VmorpherEffectHandler28DedicatedDialogEffectHandler25DedicatedLfeEffectHandler24ConvolutionEffectHandlerEEEEEEDcT_DpT0_', symObjAddr: 0x3820, symBinAddr: 0x163F0, symSize: 0x30 }
  - { offset: 0x141916, size: 0x8, addend: 0x0, symName: '__ZNSt3__116__variant_detail12__visitation6__base12__dispatcherIJLm14EEE10__dispatchB8fe200100IONS1_9__variant15__value_visitorIZN12_GLOBAL__N_112alGetEffectiEN3gsl8not_nullIPN2al7ContextEEEjiPiE3$_0EEJRNS0_6__baseILNS0_6_TraitE0EJ17NullEffectHandler19ReverbEffectHandler22StdReverbEffectHandler20AutowahEffectHandler19ChorusEffectHandler23CompressorEffectHandler23DistortionEffectHandler17EchoEffectHandler22EqualizerEffectHandler20FlangerEffectHandler21FshifterEffectHandler22ModulatorEffectHandler21PshifterEffectHandler21VmorpherEffectHandler28DedicatedDialogEffectHandler25DedicatedLfeEffectHandler24ConvolutionEffectHandlerEEEEEEDcT_DpT0_', symObjAddr: 0x3820, symBinAddr: 0x163F0, symSize: 0x30 }
  - { offset: 0x141AC6, size: 0x8, addend: 0x0, symName: '__ZNSt3__116__variant_detail12__visitation6__base12__dispatcherIJLm15EEE10__dispatchB8fe200100IONS1_9__variant15__value_visitorIZN12_GLOBAL__N_112alGetEffectiEN3gsl8not_nullIPN2al7ContextEEEjiPiE3$_0EEJRNS0_6__baseILNS0_6_TraitE0EJ17NullEffectHandler19ReverbEffectHandler22StdReverbEffectHandler20AutowahEffectHandler19ChorusEffectHandler23CompressorEffectHandler23DistortionEffectHandler17EchoEffectHandler22EqualizerEffectHandler20FlangerEffectHandler21FshifterEffectHandler22ModulatorEffectHandler21PshifterEffectHandler21VmorpherEffectHandler28DedicatedDialogEffectHandler25DedicatedLfeEffectHandler24ConvolutionEffectHandlerEEEEEEDcT_DpT0_', symObjAddr: 0x3850, symBinAddr: 0x16420, symSize: 0x30 }
  - { offset: 0x141AFA, size: 0x8, addend: 0x0, symName: '__ZNSt3__116__variant_detail12__visitation6__base12__dispatcherIJLm15EEE10__dispatchB8fe200100IONS1_9__variant15__value_visitorIZN12_GLOBAL__N_112alGetEffectiEN3gsl8not_nullIPN2al7ContextEEEjiPiE3$_0EEJRNS0_6__baseILNS0_6_TraitE0EJ17NullEffectHandler19ReverbEffectHandler22StdReverbEffectHandler20AutowahEffectHandler19ChorusEffectHandler23CompressorEffectHandler23DistortionEffectHandler17EchoEffectHandler22EqualizerEffectHandler20FlangerEffectHandler21FshifterEffectHandler22ModulatorEffectHandler21PshifterEffectHandler21VmorpherEffectHandler28DedicatedDialogEffectHandler25DedicatedLfeEffectHandler24ConvolutionEffectHandlerEEEEEEDcT_DpT0_', symObjAddr: 0x3850, symBinAddr: 0x16420, symSize: 0x30 }
  - { offset: 0x141B18, size: 0x8, addend: 0x0, symName: '__ZNSt3__116__variant_detail12__visitation6__base12__dispatcherIJLm15EEE10__dispatchB8fe200100IONS1_9__variant15__value_visitorIZN12_GLOBAL__N_112alGetEffectiEN3gsl8not_nullIPN2al7ContextEEEjiPiE3$_0EEJRNS0_6__baseILNS0_6_TraitE0EJ17NullEffectHandler19ReverbEffectHandler22StdReverbEffectHandler20AutowahEffectHandler19ChorusEffectHandler23CompressorEffectHandler23DistortionEffectHandler17EchoEffectHandler22EqualizerEffectHandler20FlangerEffectHandler21FshifterEffectHandler22ModulatorEffectHandler21PshifterEffectHandler21VmorpherEffectHandler28DedicatedDialogEffectHandler25DedicatedLfeEffectHandler24ConvolutionEffectHandlerEEEEEEDcT_DpT0_', symObjAddr: 0x3850, symBinAddr: 0x16420, symSize: 0x30 }
  - { offset: 0x141CC8, size: 0x8, addend: 0x0, symName: '__ZNSt3__116__variant_detail12__visitation6__base12__dispatcherIJLm16EEE10__dispatchB8fe200100IONS1_9__variant15__value_visitorIZN12_GLOBAL__N_112alGetEffectiEN3gsl8not_nullIPN2al7ContextEEEjiPiE3$_0EEJRNS0_6__baseILNS0_6_TraitE0EJ17NullEffectHandler19ReverbEffectHandler22StdReverbEffectHandler20AutowahEffectHandler19ChorusEffectHandler23CompressorEffectHandler23DistortionEffectHandler17EchoEffectHandler22EqualizerEffectHandler20FlangerEffectHandler21FshifterEffectHandler22ModulatorEffectHandler21PshifterEffectHandler21VmorpherEffectHandler28DedicatedDialogEffectHandler25DedicatedLfeEffectHandler24ConvolutionEffectHandlerEEEEEEDcT_DpT0_', symObjAddr: 0x3880, symBinAddr: 0x16450, symSize: 0x30 }
  - { offset: 0x141CFC, size: 0x8, addend: 0x0, symName: '__ZNSt3__116__variant_detail12__visitation6__base12__dispatcherIJLm16EEE10__dispatchB8fe200100IONS1_9__variant15__value_visitorIZN12_GLOBAL__N_112alGetEffectiEN3gsl8not_nullIPN2al7ContextEEEjiPiE3$_0EEJRNS0_6__baseILNS0_6_TraitE0EJ17NullEffectHandler19ReverbEffectHandler22StdReverbEffectHandler20AutowahEffectHandler19ChorusEffectHandler23CompressorEffectHandler23DistortionEffectHandler17EchoEffectHandler22EqualizerEffectHandler20FlangerEffectHandler21FshifterEffectHandler22ModulatorEffectHandler21PshifterEffectHandler21VmorpherEffectHandler28DedicatedDialogEffectHandler25DedicatedLfeEffectHandler24ConvolutionEffectHandlerEEEEEEDcT_DpT0_', symObjAddr: 0x3880, symBinAddr: 0x16450, symSize: 0x30 }
  - { offset: 0x141D1A, size: 0x8, addend: 0x0, symName: '__ZNSt3__116__variant_detail12__visitation6__base12__dispatcherIJLm16EEE10__dispatchB8fe200100IONS1_9__variant15__value_visitorIZN12_GLOBAL__N_112alGetEffectiEN3gsl8not_nullIPN2al7ContextEEEjiPiE3$_0EEJRNS0_6__baseILNS0_6_TraitE0EJ17NullEffectHandler19ReverbEffectHandler22StdReverbEffectHandler20AutowahEffectHandler19ChorusEffectHandler23CompressorEffectHandler23DistortionEffectHandler17EchoEffectHandler22EqualizerEffectHandler20FlangerEffectHandler21FshifterEffectHandler22ModulatorEffectHandler21PshifterEffectHandler21VmorpherEffectHandler28DedicatedDialogEffectHandler25DedicatedLfeEffectHandler24ConvolutionEffectHandlerEEEEEEDcT_DpT0_', symObjAddr: 0x3880, symBinAddr: 0x16450, symSize: 0x30 }
  - { offset: 0x141EEE, size: 0x8, addend: 0x0, symName: '__ZNSt3__116__variant_detail12__visitation6__base12__dispatcherIJLm0EEE10__dispatchB8fe200100IONS1_9__variant15__value_visitorIZN12_GLOBAL__N_113alGetEffectivEN3gsl8not_nullIPN2al7ContextEEEjiPiE3$_0EEJRNS0_6__baseILNS0_6_TraitE0EJ17NullEffectHandler19ReverbEffectHandler22StdReverbEffectHandler20AutowahEffectHandler19ChorusEffectHandler23CompressorEffectHandler23DistortionEffectHandler17EchoEffectHandler22EqualizerEffectHandler20FlangerEffectHandler21FshifterEffectHandler22ModulatorEffectHandler21PshifterEffectHandler21VmorpherEffectHandler28DedicatedDialogEffectHandler25DedicatedLfeEffectHandler24ConvolutionEffectHandlerEEEEEEDcT_DpT0_', symObjAddr: 0x38B0, symBinAddr: 0x16480, symSize: 0x30 }
  - { offset: 0x141F22, size: 0x8, addend: 0x0, symName: '__ZNSt3__116__variant_detail12__visitation6__base12__dispatcherIJLm0EEE10__dispatchB8fe200100IONS1_9__variant15__value_visitorIZN12_GLOBAL__N_113alGetEffectivEN3gsl8not_nullIPN2al7ContextEEEjiPiE3$_0EEJRNS0_6__baseILNS0_6_TraitE0EJ17NullEffectHandler19ReverbEffectHandler22StdReverbEffectHandler20AutowahEffectHandler19ChorusEffectHandler23CompressorEffectHandler23DistortionEffectHandler17EchoEffectHandler22EqualizerEffectHandler20FlangerEffectHandler21FshifterEffectHandler22ModulatorEffectHandler21PshifterEffectHandler21VmorpherEffectHandler28DedicatedDialogEffectHandler25DedicatedLfeEffectHandler24ConvolutionEffectHandlerEEEEEEDcT_DpT0_', symObjAddr: 0x38B0, symBinAddr: 0x16480, symSize: 0x30 }
  - { offset: 0x141F40, size: 0x8, addend: 0x0, symName: '__ZNSt3__116__variant_detail12__visitation6__base12__dispatcherIJLm0EEE10__dispatchB8fe200100IONS1_9__variant15__value_visitorIZN12_GLOBAL__N_113alGetEffectivEN3gsl8not_nullIPN2al7ContextEEEjiPiE3$_0EEJRNS0_6__baseILNS0_6_TraitE0EJ17NullEffectHandler19ReverbEffectHandler22StdReverbEffectHandler20AutowahEffectHandler19ChorusEffectHandler23CompressorEffectHandler23DistortionEffectHandler17EchoEffectHandler22EqualizerEffectHandler20FlangerEffectHandler21FshifterEffectHandler22ModulatorEffectHandler21PshifterEffectHandler21VmorpherEffectHandler28DedicatedDialogEffectHandler25DedicatedLfeEffectHandler24ConvolutionEffectHandlerEEEEEEDcT_DpT0_', symObjAddr: 0x38B0, symBinAddr: 0x16480, symSize: 0x30 }
  - { offset: 0x1420F0, size: 0x8, addend: 0x0, symName: '__ZNSt3__116__variant_detail12__visitation6__base12__dispatcherIJLm1EEE10__dispatchB8fe200100IONS1_9__variant15__value_visitorIZN12_GLOBAL__N_113alGetEffectivEN3gsl8not_nullIPN2al7ContextEEEjiPiE3$_0EEJRNS0_6__baseILNS0_6_TraitE0EJ17NullEffectHandler19ReverbEffectHandler22StdReverbEffectHandler20AutowahEffectHandler19ChorusEffectHandler23CompressorEffectHandler23DistortionEffectHandler17EchoEffectHandler22EqualizerEffectHandler20FlangerEffectHandler21FshifterEffectHandler22ModulatorEffectHandler21PshifterEffectHandler21VmorpherEffectHandler28DedicatedDialogEffectHandler25DedicatedLfeEffectHandler24ConvolutionEffectHandlerEEEEEEDcT_DpT0_', symObjAddr: 0x38E0, symBinAddr: 0x164B0, symSize: 0x30 }
  - { offset: 0x142124, size: 0x8, addend: 0x0, symName: '__ZNSt3__116__variant_detail12__visitation6__base12__dispatcherIJLm1EEE10__dispatchB8fe200100IONS1_9__variant15__value_visitorIZN12_GLOBAL__N_113alGetEffectivEN3gsl8not_nullIPN2al7ContextEEEjiPiE3$_0EEJRNS0_6__baseILNS0_6_TraitE0EJ17NullEffectHandler19ReverbEffectHandler22StdReverbEffectHandler20AutowahEffectHandler19ChorusEffectHandler23CompressorEffectHandler23DistortionEffectHandler17EchoEffectHandler22EqualizerEffectHandler20FlangerEffectHandler21FshifterEffectHandler22ModulatorEffectHandler21PshifterEffectHandler21VmorpherEffectHandler28DedicatedDialogEffectHandler25DedicatedLfeEffectHandler24ConvolutionEffectHandlerEEEEEEDcT_DpT0_', symObjAddr: 0x38E0, symBinAddr: 0x164B0, symSize: 0x30 }
  - { offset: 0x142142, size: 0x8, addend: 0x0, symName: '__ZNSt3__116__variant_detail12__visitation6__base12__dispatcherIJLm1EEE10__dispatchB8fe200100IONS1_9__variant15__value_visitorIZN12_GLOBAL__N_113alGetEffectivEN3gsl8not_nullIPN2al7ContextEEEjiPiE3$_0EEJRNS0_6__baseILNS0_6_TraitE0EJ17NullEffectHandler19ReverbEffectHandler22StdReverbEffectHandler20AutowahEffectHandler19ChorusEffectHandler23CompressorEffectHandler23DistortionEffectHandler17EchoEffectHandler22EqualizerEffectHandler20FlangerEffectHandler21FshifterEffectHandler22ModulatorEffectHandler21PshifterEffectHandler21VmorpherEffectHandler28DedicatedDialogEffectHandler25DedicatedLfeEffectHandler24ConvolutionEffectHandlerEEEEEEDcT_DpT0_', symObjAddr: 0x38E0, symBinAddr: 0x164B0, symSize: 0x30 }
  - { offset: 0x1422F2, size: 0x8, addend: 0x0, symName: '__ZNSt3__116__variant_detail12__visitation6__base12__dispatcherIJLm2EEE10__dispatchB8fe200100IONS1_9__variant15__value_visitorIZN12_GLOBAL__N_113alGetEffectivEN3gsl8not_nullIPN2al7ContextEEEjiPiE3$_0EEJRNS0_6__baseILNS0_6_TraitE0EJ17NullEffectHandler19ReverbEffectHandler22StdReverbEffectHandler20AutowahEffectHandler19ChorusEffectHandler23CompressorEffectHandler23DistortionEffectHandler17EchoEffectHandler22EqualizerEffectHandler20FlangerEffectHandler21FshifterEffectHandler22ModulatorEffectHandler21PshifterEffectHandler21VmorpherEffectHandler28DedicatedDialogEffectHandler25DedicatedLfeEffectHandler24ConvolutionEffectHandlerEEEEEEDcT_DpT0_', symObjAddr: 0x3910, symBinAddr: 0x164E0, symSize: 0x30 }
  - { offset: 0x142326, size: 0x8, addend: 0x0, symName: '__ZNSt3__116__variant_detail12__visitation6__base12__dispatcherIJLm2EEE10__dispatchB8fe200100IONS1_9__variant15__value_visitorIZN12_GLOBAL__N_113alGetEffectivEN3gsl8not_nullIPN2al7ContextEEEjiPiE3$_0EEJRNS0_6__baseILNS0_6_TraitE0EJ17NullEffectHandler19ReverbEffectHandler22StdReverbEffectHandler20AutowahEffectHandler19ChorusEffectHandler23CompressorEffectHandler23DistortionEffectHandler17EchoEffectHandler22EqualizerEffectHandler20FlangerEffectHandler21FshifterEffectHandler22ModulatorEffectHandler21PshifterEffectHandler21VmorpherEffectHandler28DedicatedDialogEffectHandler25DedicatedLfeEffectHandler24ConvolutionEffectHandlerEEEEEEDcT_DpT0_', symObjAddr: 0x3910, symBinAddr: 0x164E0, symSize: 0x30 }
  - { offset: 0x142344, size: 0x8, addend: 0x0, symName: '__ZNSt3__116__variant_detail12__visitation6__base12__dispatcherIJLm2EEE10__dispatchB8fe200100IONS1_9__variant15__value_visitorIZN12_GLOBAL__N_113alGetEffectivEN3gsl8not_nullIPN2al7ContextEEEjiPiE3$_0EEJRNS0_6__baseILNS0_6_TraitE0EJ17NullEffectHandler19ReverbEffectHandler22StdReverbEffectHandler20AutowahEffectHandler19ChorusEffectHandler23CompressorEffectHandler23DistortionEffectHandler17EchoEffectHandler22EqualizerEffectHandler20FlangerEffectHandler21FshifterEffectHandler22ModulatorEffectHandler21PshifterEffectHandler21VmorpherEffectHandler28DedicatedDialogEffectHandler25DedicatedLfeEffectHandler24ConvolutionEffectHandlerEEEEEEDcT_DpT0_', symObjAddr: 0x3910, symBinAddr: 0x164E0, symSize: 0x30 }
  - { offset: 0x1424F4, size: 0x8, addend: 0x0, symName: '__ZNSt3__116__variant_detail12__visitation6__base12__dispatcherIJLm3EEE10__dispatchB8fe200100IONS1_9__variant15__value_visitorIZN12_GLOBAL__N_113alGetEffectivEN3gsl8not_nullIPN2al7ContextEEEjiPiE3$_0EEJRNS0_6__baseILNS0_6_TraitE0EJ17NullEffectHandler19ReverbEffectHandler22StdReverbEffectHandler20AutowahEffectHandler19ChorusEffectHandler23CompressorEffectHandler23DistortionEffectHandler17EchoEffectHandler22EqualizerEffectHandler20FlangerEffectHandler21FshifterEffectHandler22ModulatorEffectHandler21PshifterEffectHandler21VmorpherEffectHandler28DedicatedDialogEffectHandler25DedicatedLfeEffectHandler24ConvolutionEffectHandlerEEEEEEDcT_DpT0_', symObjAddr: 0x3940, symBinAddr: 0x16510, symSize: 0x30 }
  - { offset: 0x142528, size: 0x8, addend: 0x0, symName: '__ZNSt3__116__variant_detail12__visitation6__base12__dispatcherIJLm3EEE10__dispatchB8fe200100IONS1_9__variant15__value_visitorIZN12_GLOBAL__N_113alGetEffectivEN3gsl8not_nullIPN2al7ContextEEEjiPiE3$_0EEJRNS0_6__baseILNS0_6_TraitE0EJ17NullEffectHandler19ReverbEffectHandler22StdReverbEffectHandler20AutowahEffectHandler19ChorusEffectHandler23CompressorEffectHandler23DistortionEffectHandler17EchoEffectHandler22EqualizerEffectHandler20FlangerEffectHandler21FshifterEffectHandler22ModulatorEffectHandler21PshifterEffectHandler21VmorpherEffectHandler28DedicatedDialogEffectHandler25DedicatedLfeEffectHandler24ConvolutionEffectHandlerEEEEEEDcT_DpT0_', symObjAddr: 0x3940, symBinAddr: 0x16510, symSize: 0x30 }
  - { offset: 0x142546, size: 0x8, addend: 0x0, symName: '__ZNSt3__116__variant_detail12__visitation6__base12__dispatcherIJLm3EEE10__dispatchB8fe200100IONS1_9__variant15__value_visitorIZN12_GLOBAL__N_113alGetEffectivEN3gsl8not_nullIPN2al7ContextEEEjiPiE3$_0EEJRNS0_6__baseILNS0_6_TraitE0EJ17NullEffectHandler19ReverbEffectHandler22StdReverbEffectHandler20AutowahEffectHandler19ChorusEffectHandler23CompressorEffectHandler23DistortionEffectHandler17EchoEffectHandler22EqualizerEffectHandler20FlangerEffectHandler21FshifterEffectHandler22ModulatorEffectHandler21PshifterEffectHandler21VmorpherEffectHandler28DedicatedDialogEffectHandler25DedicatedLfeEffectHandler24ConvolutionEffectHandlerEEEEEEDcT_DpT0_', symObjAddr: 0x3940, symBinAddr: 0x16510, symSize: 0x30 }
  - { offset: 0x1426F6, size: 0x8, addend: 0x0, symName: '__ZNSt3__116__variant_detail12__visitation6__base12__dispatcherIJLm4EEE10__dispatchB8fe200100IONS1_9__variant15__value_visitorIZN12_GLOBAL__N_113alGetEffectivEN3gsl8not_nullIPN2al7ContextEEEjiPiE3$_0EEJRNS0_6__baseILNS0_6_TraitE0EJ17NullEffectHandler19ReverbEffectHandler22StdReverbEffectHandler20AutowahEffectHandler19ChorusEffectHandler23CompressorEffectHandler23DistortionEffectHandler17EchoEffectHandler22EqualizerEffectHandler20FlangerEffectHandler21FshifterEffectHandler22ModulatorEffectHandler21PshifterEffectHandler21VmorpherEffectHandler28DedicatedDialogEffectHandler25DedicatedLfeEffectHandler24ConvolutionEffectHandlerEEEEEEDcT_DpT0_', symObjAddr: 0x3970, symBinAddr: 0x16540, symSize: 0x30 }
  - { offset: 0x14272A, size: 0x8, addend: 0x0, symName: '__ZNSt3__116__variant_detail12__visitation6__base12__dispatcherIJLm4EEE10__dispatchB8fe200100IONS1_9__variant15__value_visitorIZN12_GLOBAL__N_113alGetEffectivEN3gsl8not_nullIPN2al7ContextEEEjiPiE3$_0EEJRNS0_6__baseILNS0_6_TraitE0EJ17NullEffectHandler19ReverbEffectHandler22StdReverbEffectHandler20AutowahEffectHandler19ChorusEffectHandler23CompressorEffectHandler23DistortionEffectHandler17EchoEffectHandler22EqualizerEffectHandler20FlangerEffectHandler21FshifterEffectHandler22ModulatorEffectHandler21PshifterEffectHandler21VmorpherEffectHandler28DedicatedDialogEffectHandler25DedicatedLfeEffectHandler24ConvolutionEffectHandlerEEEEEEDcT_DpT0_', symObjAddr: 0x3970, symBinAddr: 0x16540, symSize: 0x30 }
  - { offset: 0x142748, size: 0x8, addend: 0x0, symName: '__ZNSt3__116__variant_detail12__visitation6__base12__dispatcherIJLm4EEE10__dispatchB8fe200100IONS1_9__variant15__value_visitorIZN12_GLOBAL__N_113alGetEffectivEN3gsl8not_nullIPN2al7ContextEEEjiPiE3$_0EEJRNS0_6__baseILNS0_6_TraitE0EJ17NullEffectHandler19ReverbEffectHandler22StdReverbEffectHandler20AutowahEffectHandler19ChorusEffectHandler23CompressorEffectHandler23DistortionEffectHandler17EchoEffectHandler22EqualizerEffectHandler20FlangerEffectHandler21FshifterEffectHandler22ModulatorEffectHandler21PshifterEffectHandler21VmorpherEffectHandler28DedicatedDialogEffectHandler25DedicatedLfeEffectHandler24ConvolutionEffectHandlerEEEEEEDcT_DpT0_', symObjAddr: 0x3970, symBinAddr: 0x16540, symSize: 0x30 }
  - { offset: 0x1428F8, size: 0x8, addend: 0x0, symName: '__ZNSt3__116__variant_detail12__visitation6__base12__dispatcherIJLm5EEE10__dispatchB8fe200100IONS1_9__variant15__value_visitorIZN12_GLOBAL__N_113alGetEffectivEN3gsl8not_nullIPN2al7ContextEEEjiPiE3$_0EEJRNS0_6__baseILNS0_6_TraitE0EJ17NullEffectHandler19ReverbEffectHandler22StdReverbEffectHandler20AutowahEffectHandler19ChorusEffectHandler23CompressorEffectHandler23DistortionEffectHandler17EchoEffectHandler22EqualizerEffectHandler20FlangerEffectHandler21FshifterEffectHandler22ModulatorEffectHandler21PshifterEffectHandler21VmorpherEffectHandler28DedicatedDialogEffectHandler25DedicatedLfeEffectHandler24ConvolutionEffectHandlerEEEEEEDcT_DpT0_', symObjAddr: 0x39A0, symBinAddr: 0x16570, symSize: 0x30 }
  - { offset: 0x14292C, size: 0x8, addend: 0x0, symName: '__ZNSt3__116__variant_detail12__visitation6__base12__dispatcherIJLm5EEE10__dispatchB8fe200100IONS1_9__variant15__value_visitorIZN12_GLOBAL__N_113alGetEffectivEN3gsl8not_nullIPN2al7ContextEEEjiPiE3$_0EEJRNS0_6__baseILNS0_6_TraitE0EJ17NullEffectHandler19ReverbEffectHandler22StdReverbEffectHandler20AutowahEffectHandler19ChorusEffectHandler23CompressorEffectHandler23DistortionEffectHandler17EchoEffectHandler22EqualizerEffectHandler20FlangerEffectHandler21FshifterEffectHandler22ModulatorEffectHandler21PshifterEffectHandler21VmorpherEffectHandler28DedicatedDialogEffectHandler25DedicatedLfeEffectHandler24ConvolutionEffectHandlerEEEEEEDcT_DpT0_', symObjAddr: 0x39A0, symBinAddr: 0x16570, symSize: 0x30 }
  - { offset: 0x14294A, size: 0x8, addend: 0x0, symName: '__ZNSt3__116__variant_detail12__visitation6__base12__dispatcherIJLm5EEE10__dispatchB8fe200100IONS1_9__variant15__value_visitorIZN12_GLOBAL__N_113alGetEffectivEN3gsl8not_nullIPN2al7ContextEEEjiPiE3$_0EEJRNS0_6__baseILNS0_6_TraitE0EJ17NullEffectHandler19ReverbEffectHandler22StdReverbEffectHandler20AutowahEffectHandler19ChorusEffectHandler23CompressorEffectHandler23DistortionEffectHandler17EchoEffectHandler22EqualizerEffectHandler20FlangerEffectHandler21FshifterEffectHandler22ModulatorEffectHandler21PshifterEffectHandler21VmorpherEffectHandler28DedicatedDialogEffectHandler25DedicatedLfeEffectHandler24ConvolutionEffectHandlerEEEEEEDcT_DpT0_', symObjAddr: 0x39A0, symBinAddr: 0x16570, symSize: 0x30 }
  - { offset: 0x142AFA, size: 0x8, addend: 0x0, symName: '__ZNSt3__116__variant_detail12__visitation6__base12__dispatcherIJLm6EEE10__dispatchB8fe200100IONS1_9__variant15__value_visitorIZN12_GLOBAL__N_113alGetEffectivEN3gsl8not_nullIPN2al7ContextEEEjiPiE3$_0EEJRNS0_6__baseILNS0_6_TraitE0EJ17NullEffectHandler19ReverbEffectHandler22StdReverbEffectHandler20AutowahEffectHandler19ChorusEffectHandler23CompressorEffectHandler23DistortionEffectHandler17EchoEffectHandler22EqualizerEffectHandler20FlangerEffectHandler21FshifterEffectHandler22ModulatorEffectHandler21PshifterEffectHandler21VmorpherEffectHandler28DedicatedDialogEffectHandler25DedicatedLfeEffectHandler24ConvolutionEffectHandlerEEEEEEDcT_DpT0_', symObjAddr: 0x39D0, symBinAddr: 0x165A0, symSize: 0x30 }
  - { offset: 0x142B2E, size: 0x8, addend: 0x0, symName: '__ZNSt3__116__variant_detail12__visitation6__base12__dispatcherIJLm6EEE10__dispatchB8fe200100IONS1_9__variant15__value_visitorIZN12_GLOBAL__N_113alGetEffectivEN3gsl8not_nullIPN2al7ContextEEEjiPiE3$_0EEJRNS0_6__baseILNS0_6_TraitE0EJ17NullEffectHandler19ReverbEffectHandler22StdReverbEffectHandler20AutowahEffectHandler19ChorusEffectHandler23CompressorEffectHandler23DistortionEffectHandler17EchoEffectHandler22EqualizerEffectHandler20FlangerEffectHandler21FshifterEffectHandler22ModulatorEffectHandler21PshifterEffectHandler21VmorpherEffectHandler28DedicatedDialogEffectHandler25DedicatedLfeEffectHandler24ConvolutionEffectHandlerEEEEEEDcT_DpT0_', symObjAddr: 0x39D0, symBinAddr: 0x165A0, symSize: 0x30 }
  - { offset: 0x142B4C, size: 0x8, addend: 0x0, symName: '__ZNSt3__116__variant_detail12__visitation6__base12__dispatcherIJLm6EEE10__dispatchB8fe200100IONS1_9__variant15__value_visitorIZN12_GLOBAL__N_113alGetEffectivEN3gsl8not_nullIPN2al7ContextEEEjiPiE3$_0EEJRNS0_6__baseILNS0_6_TraitE0EJ17NullEffectHandler19ReverbEffectHandler22StdReverbEffectHandler20AutowahEffectHandler19ChorusEffectHandler23CompressorEffectHandler23DistortionEffectHandler17EchoEffectHandler22EqualizerEffectHandler20FlangerEffectHandler21FshifterEffectHandler22ModulatorEffectHandler21PshifterEffectHandler21VmorpherEffectHandler28DedicatedDialogEffectHandler25DedicatedLfeEffectHandler24ConvolutionEffectHandlerEEEEEEDcT_DpT0_', symObjAddr: 0x39D0, symBinAddr: 0x165A0, symSize: 0x30 }
  - { offset: 0x142CFC, size: 0x8, addend: 0x0, symName: '__ZNSt3__116__variant_detail12__visitation6__base12__dispatcherIJLm7EEE10__dispatchB8fe200100IONS1_9__variant15__value_visitorIZN12_GLOBAL__N_113alGetEffectivEN3gsl8not_nullIPN2al7ContextEEEjiPiE3$_0EEJRNS0_6__baseILNS0_6_TraitE0EJ17NullEffectHandler19ReverbEffectHandler22StdReverbEffectHandler20AutowahEffectHandler19ChorusEffectHandler23CompressorEffectHandler23DistortionEffectHandler17EchoEffectHandler22EqualizerEffectHandler20FlangerEffectHandler21FshifterEffectHandler22ModulatorEffectHandler21PshifterEffectHandler21VmorpherEffectHandler28DedicatedDialogEffectHandler25DedicatedLfeEffectHandler24ConvolutionEffectHandlerEEEEEEDcT_DpT0_', symObjAddr: 0x3A00, symBinAddr: 0x165D0, symSize: 0x30 }
  - { offset: 0x142D30, size: 0x8, addend: 0x0, symName: '__ZNSt3__116__variant_detail12__visitation6__base12__dispatcherIJLm7EEE10__dispatchB8fe200100IONS1_9__variant15__value_visitorIZN12_GLOBAL__N_113alGetEffectivEN3gsl8not_nullIPN2al7ContextEEEjiPiE3$_0EEJRNS0_6__baseILNS0_6_TraitE0EJ17NullEffectHandler19ReverbEffectHandler22StdReverbEffectHandler20AutowahEffectHandler19ChorusEffectHandler23CompressorEffectHandler23DistortionEffectHandler17EchoEffectHandler22EqualizerEffectHandler20FlangerEffectHandler21FshifterEffectHandler22ModulatorEffectHandler21PshifterEffectHandler21VmorpherEffectHandler28DedicatedDialogEffectHandler25DedicatedLfeEffectHandler24ConvolutionEffectHandlerEEEEEEDcT_DpT0_', symObjAddr: 0x3A00, symBinAddr: 0x165D0, symSize: 0x30 }
  - { offset: 0x142D4E, size: 0x8, addend: 0x0, symName: '__ZNSt3__116__variant_detail12__visitation6__base12__dispatcherIJLm7EEE10__dispatchB8fe200100IONS1_9__variant15__value_visitorIZN12_GLOBAL__N_113alGetEffectivEN3gsl8not_nullIPN2al7ContextEEEjiPiE3$_0EEJRNS0_6__baseILNS0_6_TraitE0EJ17NullEffectHandler19ReverbEffectHandler22StdReverbEffectHandler20AutowahEffectHandler19ChorusEffectHandler23CompressorEffectHandler23DistortionEffectHandler17EchoEffectHandler22EqualizerEffectHandler20FlangerEffectHandler21FshifterEffectHandler22ModulatorEffectHandler21PshifterEffectHandler21VmorpherEffectHandler28DedicatedDialogEffectHandler25DedicatedLfeEffectHandler24ConvolutionEffectHandlerEEEEEEDcT_DpT0_', symObjAddr: 0x3A00, symBinAddr: 0x165D0, symSize: 0x30 }
  - { offset: 0x142EFE, size: 0x8, addend: 0x0, symName: '__ZNSt3__116__variant_detail12__visitation6__base12__dispatcherIJLm8EEE10__dispatchB8fe200100IONS1_9__variant15__value_visitorIZN12_GLOBAL__N_113alGetEffectivEN3gsl8not_nullIPN2al7ContextEEEjiPiE3$_0EEJRNS0_6__baseILNS0_6_TraitE0EJ17NullEffectHandler19ReverbEffectHandler22StdReverbEffectHandler20AutowahEffectHandler19ChorusEffectHandler23CompressorEffectHandler23DistortionEffectHandler17EchoEffectHandler22EqualizerEffectHandler20FlangerEffectHandler21FshifterEffectHandler22ModulatorEffectHandler21PshifterEffectHandler21VmorpherEffectHandler28DedicatedDialogEffectHandler25DedicatedLfeEffectHandler24ConvolutionEffectHandlerEEEEEEDcT_DpT0_', symObjAddr: 0x3A30, symBinAddr: 0x16600, symSize: 0x30 }
  - { offset: 0x142F32, size: 0x8, addend: 0x0, symName: '__ZNSt3__116__variant_detail12__visitation6__base12__dispatcherIJLm8EEE10__dispatchB8fe200100IONS1_9__variant15__value_visitorIZN12_GLOBAL__N_113alGetEffectivEN3gsl8not_nullIPN2al7ContextEEEjiPiE3$_0EEJRNS0_6__baseILNS0_6_TraitE0EJ17NullEffectHandler19ReverbEffectHandler22StdReverbEffectHandler20AutowahEffectHandler19ChorusEffectHandler23CompressorEffectHandler23DistortionEffectHandler17EchoEffectHandler22EqualizerEffectHandler20FlangerEffectHandler21FshifterEffectHandler22ModulatorEffectHandler21PshifterEffectHandler21VmorpherEffectHandler28DedicatedDialogEffectHandler25DedicatedLfeEffectHandler24ConvolutionEffectHandlerEEEEEEDcT_DpT0_', symObjAddr: 0x3A30, symBinAddr: 0x16600, symSize: 0x30 }
  - { offset: 0x142F50, size: 0x8, addend: 0x0, symName: '__ZNSt3__116__variant_detail12__visitation6__base12__dispatcherIJLm8EEE10__dispatchB8fe200100IONS1_9__variant15__value_visitorIZN12_GLOBAL__N_113alGetEffectivEN3gsl8not_nullIPN2al7ContextEEEjiPiE3$_0EEJRNS0_6__baseILNS0_6_TraitE0EJ17NullEffectHandler19ReverbEffectHandler22StdReverbEffectHandler20AutowahEffectHandler19ChorusEffectHandler23CompressorEffectHandler23DistortionEffectHandler17EchoEffectHandler22EqualizerEffectHandler20FlangerEffectHandler21FshifterEffectHandler22ModulatorEffectHandler21PshifterEffectHandler21VmorpherEffectHandler28DedicatedDialogEffectHandler25DedicatedLfeEffectHandler24ConvolutionEffectHandlerEEEEEEDcT_DpT0_', symObjAddr: 0x3A30, symBinAddr: 0x16600, symSize: 0x30 }
  - { offset: 0x143100, size: 0x8, addend: 0x0, symName: '__ZNSt3__116__variant_detail12__visitation6__base12__dispatcherIJLm9EEE10__dispatchB8fe200100IONS1_9__variant15__value_visitorIZN12_GLOBAL__N_113alGetEffectivEN3gsl8not_nullIPN2al7ContextEEEjiPiE3$_0EEJRNS0_6__baseILNS0_6_TraitE0EJ17NullEffectHandler19ReverbEffectHandler22StdReverbEffectHandler20AutowahEffectHandler19ChorusEffectHandler23CompressorEffectHandler23DistortionEffectHandler17EchoEffectHandler22EqualizerEffectHandler20FlangerEffectHandler21FshifterEffectHandler22ModulatorEffectHandler21PshifterEffectHandler21VmorpherEffectHandler28DedicatedDialogEffectHandler25DedicatedLfeEffectHandler24ConvolutionEffectHandlerEEEEEEDcT_DpT0_', symObjAddr: 0x3A60, symBinAddr: 0x16630, symSize: 0x30 }
  - { offset: 0x143134, size: 0x8, addend: 0x0, symName: '__ZNSt3__116__variant_detail12__visitation6__base12__dispatcherIJLm9EEE10__dispatchB8fe200100IONS1_9__variant15__value_visitorIZN12_GLOBAL__N_113alGetEffectivEN3gsl8not_nullIPN2al7ContextEEEjiPiE3$_0EEJRNS0_6__baseILNS0_6_TraitE0EJ17NullEffectHandler19ReverbEffectHandler22StdReverbEffectHandler20AutowahEffectHandler19ChorusEffectHandler23CompressorEffectHandler23DistortionEffectHandler17EchoEffectHandler22EqualizerEffectHandler20FlangerEffectHandler21FshifterEffectHandler22ModulatorEffectHandler21PshifterEffectHandler21VmorpherEffectHandler28DedicatedDialogEffectHandler25DedicatedLfeEffectHandler24ConvolutionEffectHandlerEEEEEEDcT_DpT0_', symObjAddr: 0x3A60, symBinAddr: 0x16630, symSize: 0x30 }
  - { offset: 0x143152, size: 0x8, addend: 0x0, symName: '__ZNSt3__116__variant_detail12__visitation6__base12__dispatcherIJLm9EEE10__dispatchB8fe200100IONS1_9__variant15__value_visitorIZN12_GLOBAL__N_113alGetEffectivEN3gsl8not_nullIPN2al7ContextEEEjiPiE3$_0EEJRNS0_6__baseILNS0_6_TraitE0EJ17NullEffectHandler19ReverbEffectHandler22StdReverbEffectHandler20AutowahEffectHandler19ChorusEffectHandler23CompressorEffectHandler23DistortionEffectHandler17EchoEffectHandler22EqualizerEffectHandler20FlangerEffectHandler21FshifterEffectHandler22ModulatorEffectHandler21PshifterEffectHandler21VmorpherEffectHandler28DedicatedDialogEffectHandler25DedicatedLfeEffectHandler24ConvolutionEffectHandlerEEEEEEDcT_DpT0_', symObjAddr: 0x3A60, symBinAddr: 0x16630, symSize: 0x30 }
  - { offset: 0x143302, size: 0x8, addend: 0x0, symName: '__ZNSt3__116__variant_detail12__visitation6__base12__dispatcherIJLm10EEE10__dispatchB8fe200100IONS1_9__variant15__value_visitorIZN12_GLOBAL__N_113alGetEffectivEN3gsl8not_nullIPN2al7ContextEEEjiPiE3$_0EEJRNS0_6__baseILNS0_6_TraitE0EJ17NullEffectHandler19ReverbEffectHandler22StdReverbEffectHandler20AutowahEffectHandler19ChorusEffectHandler23CompressorEffectHandler23DistortionEffectHandler17EchoEffectHandler22EqualizerEffectHandler20FlangerEffectHandler21FshifterEffectHandler22ModulatorEffectHandler21PshifterEffectHandler21VmorpherEffectHandler28DedicatedDialogEffectHandler25DedicatedLfeEffectHandler24ConvolutionEffectHandlerEEEEEEDcT_DpT0_', symObjAddr: 0x3A90, symBinAddr: 0x16660, symSize: 0x30 }
  - { offset: 0x143336, size: 0x8, addend: 0x0, symName: '__ZNSt3__116__variant_detail12__visitation6__base12__dispatcherIJLm10EEE10__dispatchB8fe200100IONS1_9__variant15__value_visitorIZN12_GLOBAL__N_113alGetEffectivEN3gsl8not_nullIPN2al7ContextEEEjiPiE3$_0EEJRNS0_6__baseILNS0_6_TraitE0EJ17NullEffectHandler19ReverbEffectHandler22StdReverbEffectHandler20AutowahEffectHandler19ChorusEffectHandler23CompressorEffectHandler23DistortionEffectHandler17EchoEffectHandler22EqualizerEffectHandler20FlangerEffectHandler21FshifterEffectHandler22ModulatorEffectHandler21PshifterEffectHandler21VmorpherEffectHandler28DedicatedDialogEffectHandler25DedicatedLfeEffectHandler24ConvolutionEffectHandlerEEEEEEDcT_DpT0_', symObjAddr: 0x3A90, symBinAddr: 0x16660, symSize: 0x30 }
  - { offset: 0x143354, size: 0x8, addend: 0x0, symName: '__ZNSt3__116__variant_detail12__visitation6__base12__dispatcherIJLm10EEE10__dispatchB8fe200100IONS1_9__variant15__value_visitorIZN12_GLOBAL__N_113alGetEffectivEN3gsl8not_nullIPN2al7ContextEEEjiPiE3$_0EEJRNS0_6__baseILNS0_6_TraitE0EJ17NullEffectHandler19ReverbEffectHandler22StdReverbEffectHandler20AutowahEffectHandler19ChorusEffectHandler23CompressorEffectHandler23DistortionEffectHandler17EchoEffectHandler22EqualizerEffectHandler20FlangerEffectHandler21FshifterEffectHandler22ModulatorEffectHandler21PshifterEffectHandler21VmorpherEffectHandler28DedicatedDialogEffectHandler25DedicatedLfeEffectHandler24ConvolutionEffectHandlerEEEEEEDcT_DpT0_', symObjAddr: 0x3A90, symBinAddr: 0x16660, symSize: 0x30 }
  - { offset: 0x143504, size: 0x8, addend: 0x0, symName: '__ZNSt3__116__variant_detail12__visitation6__base12__dispatcherIJLm11EEE10__dispatchB8fe200100IONS1_9__variant15__value_visitorIZN12_GLOBAL__N_113alGetEffectivEN3gsl8not_nullIPN2al7ContextEEEjiPiE3$_0EEJRNS0_6__baseILNS0_6_TraitE0EJ17NullEffectHandler19ReverbEffectHandler22StdReverbEffectHandler20AutowahEffectHandler19ChorusEffectHandler23CompressorEffectHandler23DistortionEffectHandler17EchoEffectHandler22EqualizerEffectHandler20FlangerEffectHandler21FshifterEffectHandler22ModulatorEffectHandler21PshifterEffectHandler21VmorpherEffectHandler28DedicatedDialogEffectHandler25DedicatedLfeEffectHandler24ConvolutionEffectHandlerEEEEEEDcT_DpT0_', symObjAddr: 0x3AC0, symBinAddr: 0x16690, symSize: 0x30 }
  - { offset: 0x143538, size: 0x8, addend: 0x0, symName: '__ZNSt3__116__variant_detail12__visitation6__base12__dispatcherIJLm11EEE10__dispatchB8fe200100IONS1_9__variant15__value_visitorIZN12_GLOBAL__N_113alGetEffectivEN3gsl8not_nullIPN2al7ContextEEEjiPiE3$_0EEJRNS0_6__baseILNS0_6_TraitE0EJ17NullEffectHandler19ReverbEffectHandler22StdReverbEffectHandler20AutowahEffectHandler19ChorusEffectHandler23CompressorEffectHandler23DistortionEffectHandler17EchoEffectHandler22EqualizerEffectHandler20FlangerEffectHandler21FshifterEffectHandler22ModulatorEffectHandler21PshifterEffectHandler21VmorpherEffectHandler28DedicatedDialogEffectHandler25DedicatedLfeEffectHandler24ConvolutionEffectHandlerEEEEEEDcT_DpT0_', symObjAddr: 0x3AC0, symBinAddr: 0x16690, symSize: 0x30 }
  - { offset: 0x143556, size: 0x8, addend: 0x0, symName: '__ZNSt3__116__variant_detail12__visitation6__base12__dispatcherIJLm11EEE10__dispatchB8fe200100IONS1_9__variant15__value_visitorIZN12_GLOBAL__N_113alGetEffectivEN3gsl8not_nullIPN2al7ContextEEEjiPiE3$_0EEJRNS0_6__baseILNS0_6_TraitE0EJ17NullEffectHandler19ReverbEffectHandler22StdReverbEffectHandler20AutowahEffectHandler19ChorusEffectHandler23CompressorEffectHandler23DistortionEffectHandler17EchoEffectHandler22EqualizerEffectHandler20FlangerEffectHandler21FshifterEffectHandler22ModulatorEffectHandler21PshifterEffectHandler21VmorpherEffectHandler28DedicatedDialogEffectHandler25DedicatedLfeEffectHandler24ConvolutionEffectHandlerEEEEEEDcT_DpT0_', symObjAddr: 0x3AC0, symBinAddr: 0x16690, symSize: 0x30 }
  - { offset: 0x143706, size: 0x8, addend: 0x0, symName: '__ZNSt3__116__variant_detail12__visitation6__base12__dispatcherIJLm12EEE10__dispatchB8fe200100IONS1_9__variant15__value_visitorIZN12_GLOBAL__N_113alGetEffectivEN3gsl8not_nullIPN2al7ContextEEEjiPiE3$_0EEJRNS0_6__baseILNS0_6_TraitE0EJ17NullEffectHandler19ReverbEffectHandler22StdReverbEffectHandler20AutowahEffectHandler19ChorusEffectHandler23CompressorEffectHandler23DistortionEffectHandler17EchoEffectHandler22EqualizerEffectHandler20FlangerEffectHandler21FshifterEffectHandler22ModulatorEffectHandler21PshifterEffectHandler21VmorpherEffectHandler28DedicatedDialogEffectHandler25DedicatedLfeEffectHandler24ConvolutionEffectHandlerEEEEEEDcT_DpT0_', symObjAddr: 0x3AF0, symBinAddr: 0x166C0, symSize: 0x30 }
  - { offset: 0x14373A, size: 0x8, addend: 0x0, symName: '__ZNSt3__116__variant_detail12__visitation6__base12__dispatcherIJLm12EEE10__dispatchB8fe200100IONS1_9__variant15__value_visitorIZN12_GLOBAL__N_113alGetEffectivEN3gsl8not_nullIPN2al7ContextEEEjiPiE3$_0EEJRNS0_6__baseILNS0_6_TraitE0EJ17NullEffectHandler19ReverbEffectHandler22StdReverbEffectHandler20AutowahEffectHandler19ChorusEffectHandler23CompressorEffectHandler23DistortionEffectHandler17EchoEffectHandler22EqualizerEffectHandler20FlangerEffectHandler21FshifterEffectHandler22ModulatorEffectHandler21PshifterEffectHandler21VmorpherEffectHandler28DedicatedDialogEffectHandler25DedicatedLfeEffectHandler24ConvolutionEffectHandlerEEEEEEDcT_DpT0_', symObjAddr: 0x3AF0, symBinAddr: 0x166C0, symSize: 0x30 }
  - { offset: 0x143758, size: 0x8, addend: 0x0, symName: '__ZNSt3__116__variant_detail12__visitation6__base12__dispatcherIJLm12EEE10__dispatchB8fe200100IONS1_9__variant15__value_visitorIZN12_GLOBAL__N_113alGetEffectivEN3gsl8not_nullIPN2al7ContextEEEjiPiE3$_0EEJRNS0_6__baseILNS0_6_TraitE0EJ17NullEffectHandler19ReverbEffectHandler22StdReverbEffectHandler20AutowahEffectHandler19ChorusEffectHandler23CompressorEffectHandler23DistortionEffectHandler17EchoEffectHandler22EqualizerEffectHandler20FlangerEffectHandler21FshifterEffectHandler22ModulatorEffectHandler21PshifterEffectHandler21VmorpherEffectHandler28DedicatedDialogEffectHandler25DedicatedLfeEffectHandler24ConvolutionEffectHandlerEEEEEEDcT_DpT0_', symObjAddr: 0x3AF0, symBinAddr: 0x166C0, symSize: 0x30 }
  - { offset: 0x143908, size: 0x8, addend: 0x0, symName: '__ZNSt3__116__variant_detail12__visitation6__base12__dispatcherIJLm13EEE10__dispatchB8fe200100IONS1_9__variant15__value_visitorIZN12_GLOBAL__N_113alGetEffectivEN3gsl8not_nullIPN2al7ContextEEEjiPiE3$_0EEJRNS0_6__baseILNS0_6_TraitE0EJ17NullEffectHandler19ReverbEffectHandler22StdReverbEffectHandler20AutowahEffectHandler19ChorusEffectHandler23CompressorEffectHandler23DistortionEffectHandler17EchoEffectHandler22EqualizerEffectHandler20FlangerEffectHandler21FshifterEffectHandler22ModulatorEffectHandler21PshifterEffectHandler21VmorpherEffectHandler28DedicatedDialogEffectHandler25DedicatedLfeEffectHandler24ConvolutionEffectHandlerEEEEEEDcT_DpT0_', symObjAddr: 0x3B20, symBinAddr: 0x166F0, symSize: 0x30 }
  - { offset: 0x14393C, size: 0x8, addend: 0x0, symName: '__ZNSt3__116__variant_detail12__visitation6__base12__dispatcherIJLm13EEE10__dispatchB8fe200100IONS1_9__variant15__value_visitorIZN12_GLOBAL__N_113alGetEffectivEN3gsl8not_nullIPN2al7ContextEEEjiPiE3$_0EEJRNS0_6__baseILNS0_6_TraitE0EJ17NullEffectHandler19ReverbEffectHandler22StdReverbEffectHandler20AutowahEffectHandler19ChorusEffectHandler23CompressorEffectHandler23DistortionEffectHandler17EchoEffectHandler22EqualizerEffectHandler20FlangerEffectHandler21FshifterEffectHandler22ModulatorEffectHandler21PshifterEffectHandler21VmorpherEffectHandler28DedicatedDialogEffectHandler25DedicatedLfeEffectHandler24ConvolutionEffectHandlerEEEEEEDcT_DpT0_', symObjAddr: 0x3B20, symBinAddr: 0x166F0, symSize: 0x30 }
  - { offset: 0x14395A, size: 0x8, addend: 0x0, symName: '__ZNSt3__116__variant_detail12__visitation6__base12__dispatcherIJLm13EEE10__dispatchB8fe200100IONS1_9__variant15__value_visitorIZN12_GLOBAL__N_113alGetEffectivEN3gsl8not_nullIPN2al7ContextEEEjiPiE3$_0EEJRNS0_6__baseILNS0_6_TraitE0EJ17NullEffectHandler19ReverbEffectHandler22StdReverbEffectHandler20AutowahEffectHandler19ChorusEffectHandler23CompressorEffectHandler23DistortionEffectHandler17EchoEffectHandler22EqualizerEffectHandler20FlangerEffectHandler21FshifterEffectHandler22ModulatorEffectHandler21PshifterEffectHandler21VmorpherEffectHandler28DedicatedDialogEffectHandler25DedicatedLfeEffectHandler24ConvolutionEffectHandlerEEEEEEDcT_DpT0_', symObjAddr: 0x3B20, symBinAddr: 0x166F0, symSize: 0x30 }
  - { offset: 0x143B0A, size: 0x8, addend: 0x0, symName: '__ZNSt3__116__variant_detail12__visitation6__base12__dispatcherIJLm14EEE10__dispatchB8fe200100IONS1_9__variant15__value_visitorIZN12_GLOBAL__N_113alGetEffectivEN3gsl8not_nullIPN2al7ContextEEEjiPiE3$_0EEJRNS0_6__baseILNS0_6_TraitE0EJ17NullEffectHandler19ReverbEffectHandler22StdReverbEffectHandler20AutowahEffectHandler19ChorusEffectHandler23CompressorEffectHandler23DistortionEffectHandler17EchoEffectHandler22EqualizerEffectHandler20FlangerEffectHandler21FshifterEffectHandler22ModulatorEffectHandler21PshifterEffectHandler21VmorpherEffectHandler28DedicatedDialogEffectHandler25DedicatedLfeEffectHandler24ConvolutionEffectHandlerEEEEEEDcT_DpT0_', symObjAddr: 0x3B50, symBinAddr: 0x16720, symSize: 0x30 }
  - { offset: 0x143B3E, size: 0x8, addend: 0x0, symName: '__ZNSt3__116__variant_detail12__visitation6__base12__dispatcherIJLm14EEE10__dispatchB8fe200100IONS1_9__variant15__value_visitorIZN12_GLOBAL__N_113alGetEffectivEN3gsl8not_nullIPN2al7ContextEEEjiPiE3$_0EEJRNS0_6__baseILNS0_6_TraitE0EJ17NullEffectHandler19ReverbEffectHandler22StdReverbEffectHandler20AutowahEffectHandler19ChorusEffectHandler23CompressorEffectHandler23DistortionEffectHandler17EchoEffectHandler22EqualizerEffectHandler20FlangerEffectHandler21FshifterEffectHandler22ModulatorEffectHandler21PshifterEffectHandler21VmorpherEffectHandler28DedicatedDialogEffectHandler25DedicatedLfeEffectHandler24ConvolutionEffectHandlerEEEEEEDcT_DpT0_', symObjAddr: 0x3B50, symBinAddr: 0x16720, symSize: 0x30 }
  - { offset: 0x143B5C, size: 0x8, addend: 0x0, symName: '__ZNSt3__116__variant_detail12__visitation6__base12__dispatcherIJLm14EEE10__dispatchB8fe200100IONS1_9__variant15__value_visitorIZN12_GLOBAL__N_113alGetEffectivEN3gsl8not_nullIPN2al7ContextEEEjiPiE3$_0EEJRNS0_6__baseILNS0_6_TraitE0EJ17NullEffectHandler19ReverbEffectHandler22StdReverbEffectHandler20AutowahEffectHandler19ChorusEffectHandler23CompressorEffectHandler23DistortionEffectHandler17EchoEffectHandler22EqualizerEffectHandler20FlangerEffectHandler21FshifterEffectHandler22ModulatorEffectHandler21PshifterEffectHandler21VmorpherEffectHandler28DedicatedDialogEffectHandler25DedicatedLfeEffectHandler24ConvolutionEffectHandlerEEEEEEDcT_DpT0_', symObjAddr: 0x3B50, symBinAddr: 0x16720, symSize: 0x30 }
  - { offset: 0x143D0C, size: 0x8, addend: 0x0, symName: '__ZNSt3__116__variant_detail12__visitation6__base12__dispatcherIJLm15EEE10__dispatchB8fe200100IONS1_9__variant15__value_visitorIZN12_GLOBAL__N_113alGetEffectivEN3gsl8not_nullIPN2al7ContextEEEjiPiE3$_0EEJRNS0_6__baseILNS0_6_TraitE0EJ17NullEffectHandler19ReverbEffectHandler22StdReverbEffectHandler20AutowahEffectHandler19ChorusEffectHandler23CompressorEffectHandler23DistortionEffectHandler17EchoEffectHandler22EqualizerEffectHandler20FlangerEffectHandler21FshifterEffectHandler22ModulatorEffectHandler21PshifterEffectHandler21VmorpherEffectHandler28DedicatedDialogEffectHandler25DedicatedLfeEffectHandler24ConvolutionEffectHandlerEEEEEEDcT_DpT0_', symObjAddr: 0x3B80, symBinAddr: 0x16750, symSize: 0x30 }
  - { offset: 0x143D40, size: 0x8, addend: 0x0, symName: '__ZNSt3__116__variant_detail12__visitation6__base12__dispatcherIJLm15EEE10__dispatchB8fe200100IONS1_9__variant15__value_visitorIZN12_GLOBAL__N_113alGetEffectivEN3gsl8not_nullIPN2al7ContextEEEjiPiE3$_0EEJRNS0_6__baseILNS0_6_TraitE0EJ17NullEffectHandler19ReverbEffectHandler22StdReverbEffectHandler20AutowahEffectHandler19ChorusEffectHandler23CompressorEffectHandler23DistortionEffectHandler17EchoEffectHandler22EqualizerEffectHandler20FlangerEffectHandler21FshifterEffectHandler22ModulatorEffectHandler21PshifterEffectHandler21VmorpherEffectHandler28DedicatedDialogEffectHandler25DedicatedLfeEffectHandler24ConvolutionEffectHandlerEEEEEEDcT_DpT0_', symObjAddr: 0x3B80, symBinAddr: 0x16750, symSize: 0x30 }
  - { offset: 0x143D5E, size: 0x8, addend: 0x0, symName: '__ZNSt3__116__variant_detail12__visitation6__base12__dispatcherIJLm15EEE10__dispatchB8fe200100IONS1_9__variant15__value_visitorIZN12_GLOBAL__N_113alGetEffectivEN3gsl8not_nullIPN2al7ContextEEEjiPiE3$_0EEJRNS0_6__baseILNS0_6_TraitE0EJ17NullEffectHandler19ReverbEffectHandler22StdReverbEffectHandler20AutowahEffectHandler19ChorusEffectHandler23CompressorEffectHandler23DistortionEffectHandler17EchoEffectHandler22EqualizerEffectHandler20FlangerEffectHandler21FshifterEffectHandler22ModulatorEffectHandler21PshifterEffectHandler21VmorpherEffectHandler28DedicatedDialogEffectHandler25DedicatedLfeEffectHandler24ConvolutionEffectHandlerEEEEEEDcT_DpT0_', symObjAddr: 0x3B80, symBinAddr: 0x16750, symSize: 0x30 }
  - { offset: 0x143F0E, size: 0x8, addend: 0x0, symName: '__ZNSt3__116__variant_detail12__visitation6__base12__dispatcherIJLm16EEE10__dispatchB8fe200100IONS1_9__variant15__value_visitorIZN12_GLOBAL__N_113alGetEffectivEN3gsl8not_nullIPN2al7ContextEEEjiPiE3$_0EEJRNS0_6__baseILNS0_6_TraitE0EJ17NullEffectHandler19ReverbEffectHandler22StdReverbEffectHandler20AutowahEffectHandler19ChorusEffectHandler23CompressorEffectHandler23DistortionEffectHandler17EchoEffectHandler22EqualizerEffectHandler20FlangerEffectHandler21FshifterEffectHandler22ModulatorEffectHandler21PshifterEffectHandler21VmorpherEffectHandler28DedicatedDialogEffectHandler25DedicatedLfeEffectHandler24ConvolutionEffectHandlerEEEEEEDcT_DpT0_', symObjAddr: 0x3BB0, symBinAddr: 0x16780, symSize: 0x30 }
  - { offset: 0x143F42, size: 0x8, addend: 0x0, symName: '__ZNSt3__116__variant_detail12__visitation6__base12__dispatcherIJLm16EEE10__dispatchB8fe200100IONS1_9__variant15__value_visitorIZN12_GLOBAL__N_113alGetEffectivEN3gsl8not_nullIPN2al7ContextEEEjiPiE3$_0EEJRNS0_6__baseILNS0_6_TraitE0EJ17NullEffectHandler19ReverbEffectHandler22StdReverbEffectHandler20AutowahEffectHandler19ChorusEffectHandler23CompressorEffectHandler23DistortionEffectHandler17EchoEffectHandler22EqualizerEffectHandler20FlangerEffectHandler21FshifterEffectHandler22ModulatorEffectHandler21PshifterEffectHandler21VmorpherEffectHandler28DedicatedDialogEffectHandler25DedicatedLfeEffectHandler24ConvolutionEffectHandlerEEEEEEDcT_DpT0_', symObjAddr: 0x3BB0, symBinAddr: 0x16780, symSize: 0x30 }
  - { offset: 0x143F60, size: 0x8, addend: 0x0, symName: '__ZNSt3__116__variant_detail12__visitation6__base12__dispatcherIJLm16EEE10__dispatchB8fe200100IONS1_9__variant15__value_visitorIZN12_GLOBAL__N_113alGetEffectivEN3gsl8not_nullIPN2al7ContextEEEjiPiE3$_0EEJRNS0_6__baseILNS0_6_TraitE0EJ17NullEffectHandler19ReverbEffectHandler22StdReverbEffectHandler20AutowahEffectHandler19ChorusEffectHandler23CompressorEffectHandler23DistortionEffectHandler17EchoEffectHandler22EqualizerEffectHandler20FlangerEffectHandler21FshifterEffectHandler22ModulatorEffectHandler21PshifterEffectHandler21VmorpherEffectHandler28DedicatedDialogEffectHandler25DedicatedLfeEffectHandler24ConvolutionEffectHandlerEEEEEEDcT_DpT0_', symObjAddr: 0x3BB0, symBinAddr: 0x16780, symSize: 0x30 }
  - { offset: 0x144134, size: 0x8, addend: 0x0, symName: '__ZNSt3__116__variant_detail12__visitation6__base12__dispatcherIJLm0EEE10__dispatchB8fe200100IONS1_9__variant15__value_visitorIZN12_GLOBAL__N_112alGetEffectfEN3gsl8not_nullIPN2al7ContextEEEjiPfE3$_0EEJRNS0_6__baseILNS0_6_TraitE0EJ17NullEffectHandler19ReverbEffectHandler22StdReverbEffectHandler20AutowahEffectHandler19ChorusEffectHandler23CompressorEffectHandler23DistortionEffectHandler17EchoEffectHandler22EqualizerEffectHandler20FlangerEffectHandler21FshifterEffectHandler22ModulatorEffectHandler21PshifterEffectHandler21VmorpherEffectHandler28DedicatedDialogEffectHandler25DedicatedLfeEffectHandler24ConvolutionEffectHandlerEEEEEEDcT_DpT0_', symObjAddr: 0x3BE0, symBinAddr: 0x167B0, symSize: 0x30 }
  - { offset: 0x144168, size: 0x8, addend: 0x0, symName: '__ZNSt3__116__variant_detail12__visitation6__base12__dispatcherIJLm0EEE10__dispatchB8fe200100IONS1_9__variant15__value_visitorIZN12_GLOBAL__N_112alGetEffectfEN3gsl8not_nullIPN2al7ContextEEEjiPfE3$_0EEJRNS0_6__baseILNS0_6_TraitE0EJ17NullEffectHandler19ReverbEffectHandler22StdReverbEffectHandler20AutowahEffectHandler19ChorusEffectHandler23CompressorEffectHandler23DistortionEffectHandler17EchoEffectHandler22EqualizerEffectHandler20FlangerEffectHandler21FshifterEffectHandler22ModulatorEffectHandler21PshifterEffectHandler21VmorpherEffectHandler28DedicatedDialogEffectHandler25DedicatedLfeEffectHandler24ConvolutionEffectHandlerEEEEEEDcT_DpT0_', symObjAddr: 0x3BE0, symBinAddr: 0x167B0, symSize: 0x30 }
  - { offset: 0x144186, size: 0x8, addend: 0x0, symName: '__ZNSt3__116__variant_detail12__visitation6__base12__dispatcherIJLm0EEE10__dispatchB8fe200100IONS1_9__variant15__value_visitorIZN12_GLOBAL__N_112alGetEffectfEN3gsl8not_nullIPN2al7ContextEEEjiPfE3$_0EEJRNS0_6__baseILNS0_6_TraitE0EJ17NullEffectHandler19ReverbEffectHandler22StdReverbEffectHandler20AutowahEffectHandler19ChorusEffectHandler23CompressorEffectHandler23DistortionEffectHandler17EchoEffectHandler22EqualizerEffectHandler20FlangerEffectHandler21FshifterEffectHandler22ModulatorEffectHandler21PshifterEffectHandler21VmorpherEffectHandler28DedicatedDialogEffectHandler25DedicatedLfeEffectHandler24ConvolutionEffectHandlerEEEEEEDcT_DpT0_', symObjAddr: 0x3BE0, symBinAddr: 0x167B0, symSize: 0x30 }
  - { offset: 0x144336, size: 0x8, addend: 0x0, symName: '__ZNSt3__116__variant_detail12__visitation6__base12__dispatcherIJLm1EEE10__dispatchB8fe200100IONS1_9__variant15__value_visitorIZN12_GLOBAL__N_112alGetEffectfEN3gsl8not_nullIPN2al7ContextEEEjiPfE3$_0EEJRNS0_6__baseILNS0_6_TraitE0EJ17NullEffectHandler19ReverbEffectHandler22StdReverbEffectHandler20AutowahEffectHandler19ChorusEffectHandler23CompressorEffectHandler23DistortionEffectHandler17EchoEffectHandler22EqualizerEffectHandler20FlangerEffectHandler21FshifterEffectHandler22ModulatorEffectHandler21PshifterEffectHandler21VmorpherEffectHandler28DedicatedDialogEffectHandler25DedicatedLfeEffectHandler24ConvolutionEffectHandlerEEEEEEDcT_DpT0_', symObjAddr: 0x3C10, symBinAddr: 0x167E0, symSize: 0x30 }
  - { offset: 0x14436A, size: 0x8, addend: 0x0, symName: '__ZNSt3__116__variant_detail12__visitation6__base12__dispatcherIJLm1EEE10__dispatchB8fe200100IONS1_9__variant15__value_visitorIZN12_GLOBAL__N_112alGetEffectfEN3gsl8not_nullIPN2al7ContextEEEjiPfE3$_0EEJRNS0_6__baseILNS0_6_TraitE0EJ17NullEffectHandler19ReverbEffectHandler22StdReverbEffectHandler20AutowahEffectHandler19ChorusEffectHandler23CompressorEffectHandler23DistortionEffectHandler17EchoEffectHandler22EqualizerEffectHandler20FlangerEffectHandler21FshifterEffectHandler22ModulatorEffectHandler21PshifterEffectHandler21VmorpherEffectHandler28DedicatedDialogEffectHandler25DedicatedLfeEffectHandler24ConvolutionEffectHandlerEEEEEEDcT_DpT0_', symObjAddr: 0x3C10, symBinAddr: 0x167E0, symSize: 0x30 }
  - { offset: 0x144388, size: 0x8, addend: 0x0, symName: '__ZNSt3__116__variant_detail12__visitation6__base12__dispatcherIJLm1EEE10__dispatchB8fe200100IONS1_9__variant15__value_visitorIZN12_GLOBAL__N_112alGetEffectfEN3gsl8not_nullIPN2al7ContextEEEjiPfE3$_0EEJRNS0_6__baseILNS0_6_TraitE0EJ17NullEffectHandler19ReverbEffectHandler22StdReverbEffectHandler20AutowahEffectHandler19ChorusEffectHandler23CompressorEffectHandler23DistortionEffectHandler17EchoEffectHandler22EqualizerEffectHandler20FlangerEffectHandler21FshifterEffectHandler22ModulatorEffectHandler21PshifterEffectHandler21VmorpherEffectHandler28DedicatedDialogEffectHandler25DedicatedLfeEffectHandler24ConvolutionEffectHandlerEEEEEEDcT_DpT0_', symObjAddr: 0x3C10, symBinAddr: 0x167E0, symSize: 0x30 }
  - { offset: 0x144538, size: 0x8, addend: 0x0, symName: '__ZNSt3__116__variant_detail12__visitation6__base12__dispatcherIJLm2EEE10__dispatchB8fe200100IONS1_9__variant15__value_visitorIZN12_GLOBAL__N_112alGetEffectfEN3gsl8not_nullIPN2al7ContextEEEjiPfE3$_0EEJRNS0_6__baseILNS0_6_TraitE0EJ17NullEffectHandler19ReverbEffectHandler22StdReverbEffectHandler20AutowahEffectHandler19ChorusEffectHandler23CompressorEffectHandler23DistortionEffectHandler17EchoEffectHandler22EqualizerEffectHandler20FlangerEffectHandler21FshifterEffectHandler22ModulatorEffectHandler21PshifterEffectHandler21VmorpherEffectHandler28DedicatedDialogEffectHandler25DedicatedLfeEffectHandler24ConvolutionEffectHandlerEEEEEEDcT_DpT0_', symObjAddr: 0x3C40, symBinAddr: 0x16810, symSize: 0x30 }
  - { offset: 0x14456C, size: 0x8, addend: 0x0, symName: '__ZNSt3__116__variant_detail12__visitation6__base12__dispatcherIJLm2EEE10__dispatchB8fe200100IONS1_9__variant15__value_visitorIZN12_GLOBAL__N_112alGetEffectfEN3gsl8not_nullIPN2al7ContextEEEjiPfE3$_0EEJRNS0_6__baseILNS0_6_TraitE0EJ17NullEffectHandler19ReverbEffectHandler22StdReverbEffectHandler20AutowahEffectHandler19ChorusEffectHandler23CompressorEffectHandler23DistortionEffectHandler17EchoEffectHandler22EqualizerEffectHandler20FlangerEffectHandler21FshifterEffectHandler22ModulatorEffectHandler21PshifterEffectHandler21VmorpherEffectHandler28DedicatedDialogEffectHandler25DedicatedLfeEffectHandler24ConvolutionEffectHandlerEEEEEEDcT_DpT0_', symObjAddr: 0x3C40, symBinAddr: 0x16810, symSize: 0x30 }
  - { offset: 0x14458A, size: 0x8, addend: 0x0, symName: '__ZNSt3__116__variant_detail12__visitation6__base12__dispatcherIJLm2EEE10__dispatchB8fe200100IONS1_9__variant15__value_visitorIZN12_GLOBAL__N_112alGetEffectfEN3gsl8not_nullIPN2al7ContextEEEjiPfE3$_0EEJRNS0_6__baseILNS0_6_TraitE0EJ17NullEffectHandler19ReverbEffectHandler22StdReverbEffectHandler20AutowahEffectHandler19ChorusEffectHandler23CompressorEffectHandler23DistortionEffectHandler17EchoEffectHandler22EqualizerEffectHandler20FlangerEffectHandler21FshifterEffectHandler22ModulatorEffectHandler21PshifterEffectHandler21VmorpherEffectHandler28DedicatedDialogEffectHandler25DedicatedLfeEffectHandler24ConvolutionEffectHandlerEEEEEEDcT_DpT0_', symObjAddr: 0x3C40, symBinAddr: 0x16810, symSize: 0x30 }
  - { offset: 0x14473A, size: 0x8, addend: 0x0, symName: '__ZNSt3__116__variant_detail12__visitation6__base12__dispatcherIJLm3EEE10__dispatchB8fe200100IONS1_9__variant15__value_visitorIZN12_GLOBAL__N_112alGetEffectfEN3gsl8not_nullIPN2al7ContextEEEjiPfE3$_0EEJRNS0_6__baseILNS0_6_TraitE0EJ17NullEffectHandler19ReverbEffectHandler22StdReverbEffectHandler20AutowahEffectHandler19ChorusEffectHandler23CompressorEffectHandler23DistortionEffectHandler17EchoEffectHandler22EqualizerEffectHandler20FlangerEffectHandler21FshifterEffectHandler22ModulatorEffectHandler21PshifterEffectHandler21VmorpherEffectHandler28DedicatedDialogEffectHandler25DedicatedLfeEffectHandler24ConvolutionEffectHandlerEEEEEEDcT_DpT0_', symObjAddr: 0x3C70, symBinAddr: 0x16840, symSize: 0x30 }
  - { offset: 0x14476E, size: 0x8, addend: 0x0, symName: '__ZNSt3__116__variant_detail12__visitation6__base12__dispatcherIJLm3EEE10__dispatchB8fe200100IONS1_9__variant15__value_visitorIZN12_GLOBAL__N_112alGetEffectfEN3gsl8not_nullIPN2al7ContextEEEjiPfE3$_0EEJRNS0_6__baseILNS0_6_TraitE0EJ17NullEffectHandler19ReverbEffectHandler22StdReverbEffectHandler20AutowahEffectHandler19ChorusEffectHandler23CompressorEffectHandler23DistortionEffectHandler17EchoEffectHandler22EqualizerEffectHandler20FlangerEffectHandler21FshifterEffectHandler22ModulatorEffectHandler21PshifterEffectHandler21VmorpherEffectHandler28DedicatedDialogEffectHandler25DedicatedLfeEffectHandler24ConvolutionEffectHandlerEEEEEEDcT_DpT0_', symObjAddr: 0x3C70, symBinAddr: 0x16840, symSize: 0x30 }
  - { offset: 0x14478C, size: 0x8, addend: 0x0, symName: '__ZNSt3__116__variant_detail12__visitation6__base12__dispatcherIJLm3EEE10__dispatchB8fe200100IONS1_9__variant15__value_visitorIZN12_GLOBAL__N_112alGetEffectfEN3gsl8not_nullIPN2al7ContextEEEjiPfE3$_0EEJRNS0_6__baseILNS0_6_TraitE0EJ17NullEffectHandler19ReverbEffectHandler22StdReverbEffectHandler20AutowahEffectHandler19ChorusEffectHandler23CompressorEffectHandler23DistortionEffectHandler17EchoEffectHandler22EqualizerEffectHandler20FlangerEffectHandler21FshifterEffectHandler22ModulatorEffectHandler21PshifterEffectHandler21VmorpherEffectHandler28DedicatedDialogEffectHandler25DedicatedLfeEffectHandler24ConvolutionEffectHandlerEEEEEEDcT_DpT0_', symObjAddr: 0x3C70, symBinAddr: 0x16840, symSize: 0x30 }
  - { offset: 0x14493C, size: 0x8, addend: 0x0, symName: '__ZNSt3__116__variant_detail12__visitation6__base12__dispatcherIJLm4EEE10__dispatchB8fe200100IONS1_9__variant15__value_visitorIZN12_GLOBAL__N_112alGetEffectfEN3gsl8not_nullIPN2al7ContextEEEjiPfE3$_0EEJRNS0_6__baseILNS0_6_TraitE0EJ17NullEffectHandler19ReverbEffectHandler22StdReverbEffectHandler20AutowahEffectHandler19ChorusEffectHandler23CompressorEffectHandler23DistortionEffectHandler17EchoEffectHandler22EqualizerEffectHandler20FlangerEffectHandler21FshifterEffectHandler22ModulatorEffectHandler21PshifterEffectHandler21VmorpherEffectHandler28DedicatedDialogEffectHandler25DedicatedLfeEffectHandler24ConvolutionEffectHandlerEEEEEEDcT_DpT0_', symObjAddr: 0x3CA0, symBinAddr: 0x16870, symSize: 0x30 }
  - { offset: 0x144970, size: 0x8, addend: 0x0, symName: '__ZNSt3__116__variant_detail12__visitation6__base12__dispatcherIJLm4EEE10__dispatchB8fe200100IONS1_9__variant15__value_visitorIZN12_GLOBAL__N_112alGetEffectfEN3gsl8not_nullIPN2al7ContextEEEjiPfE3$_0EEJRNS0_6__baseILNS0_6_TraitE0EJ17NullEffectHandler19ReverbEffectHandler22StdReverbEffectHandler20AutowahEffectHandler19ChorusEffectHandler23CompressorEffectHandler23DistortionEffectHandler17EchoEffectHandler22EqualizerEffectHandler20FlangerEffectHandler21FshifterEffectHandler22ModulatorEffectHandler21PshifterEffectHandler21VmorpherEffectHandler28DedicatedDialogEffectHandler25DedicatedLfeEffectHandler24ConvolutionEffectHandlerEEEEEEDcT_DpT0_', symObjAddr: 0x3CA0, symBinAddr: 0x16870, symSize: 0x30 }
  - { offset: 0x14498E, size: 0x8, addend: 0x0, symName: '__ZNSt3__116__variant_detail12__visitation6__base12__dispatcherIJLm4EEE10__dispatchB8fe200100IONS1_9__variant15__value_visitorIZN12_GLOBAL__N_112alGetEffectfEN3gsl8not_nullIPN2al7ContextEEEjiPfE3$_0EEJRNS0_6__baseILNS0_6_TraitE0EJ17NullEffectHandler19ReverbEffectHandler22StdReverbEffectHandler20AutowahEffectHandler19ChorusEffectHandler23CompressorEffectHandler23DistortionEffectHandler17EchoEffectHandler22EqualizerEffectHandler20FlangerEffectHandler21FshifterEffectHandler22ModulatorEffectHandler21PshifterEffectHandler21VmorpherEffectHandler28DedicatedDialogEffectHandler25DedicatedLfeEffectHandler24ConvolutionEffectHandlerEEEEEEDcT_DpT0_', symObjAddr: 0x3CA0, symBinAddr: 0x16870, symSize: 0x30 }
  - { offset: 0x144B3E, size: 0x8, addend: 0x0, symName: '__ZNSt3__116__variant_detail12__visitation6__base12__dispatcherIJLm5EEE10__dispatchB8fe200100IONS1_9__variant15__value_visitorIZN12_GLOBAL__N_112alGetEffectfEN3gsl8not_nullIPN2al7ContextEEEjiPfE3$_0EEJRNS0_6__baseILNS0_6_TraitE0EJ17NullEffectHandler19ReverbEffectHandler22StdReverbEffectHandler20AutowahEffectHandler19ChorusEffectHandler23CompressorEffectHandler23DistortionEffectHandler17EchoEffectHandler22EqualizerEffectHandler20FlangerEffectHandler21FshifterEffectHandler22ModulatorEffectHandler21PshifterEffectHandler21VmorpherEffectHandler28DedicatedDialogEffectHandler25DedicatedLfeEffectHandler24ConvolutionEffectHandlerEEEEEEDcT_DpT0_', symObjAddr: 0x3CD0, symBinAddr: 0x168A0, symSize: 0x30 }
  - { offset: 0x144B72, size: 0x8, addend: 0x0, symName: '__ZNSt3__116__variant_detail12__visitation6__base12__dispatcherIJLm5EEE10__dispatchB8fe200100IONS1_9__variant15__value_visitorIZN12_GLOBAL__N_112alGetEffectfEN3gsl8not_nullIPN2al7ContextEEEjiPfE3$_0EEJRNS0_6__baseILNS0_6_TraitE0EJ17NullEffectHandler19ReverbEffectHandler22StdReverbEffectHandler20AutowahEffectHandler19ChorusEffectHandler23CompressorEffectHandler23DistortionEffectHandler17EchoEffectHandler22EqualizerEffectHandler20FlangerEffectHandler21FshifterEffectHandler22ModulatorEffectHandler21PshifterEffectHandler21VmorpherEffectHandler28DedicatedDialogEffectHandler25DedicatedLfeEffectHandler24ConvolutionEffectHandlerEEEEEEDcT_DpT0_', symObjAddr: 0x3CD0, symBinAddr: 0x168A0, symSize: 0x30 }
  - { offset: 0x144B90, size: 0x8, addend: 0x0, symName: '__ZNSt3__116__variant_detail12__visitation6__base12__dispatcherIJLm5EEE10__dispatchB8fe200100IONS1_9__variant15__value_visitorIZN12_GLOBAL__N_112alGetEffectfEN3gsl8not_nullIPN2al7ContextEEEjiPfE3$_0EEJRNS0_6__baseILNS0_6_TraitE0EJ17NullEffectHandler19ReverbEffectHandler22StdReverbEffectHandler20AutowahEffectHandler19ChorusEffectHandler23CompressorEffectHandler23DistortionEffectHandler17EchoEffectHandler22EqualizerEffectHandler20FlangerEffectHandler21FshifterEffectHandler22ModulatorEffectHandler21PshifterEffectHandler21VmorpherEffectHandler28DedicatedDialogEffectHandler25DedicatedLfeEffectHandler24ConvolutionEffectHandlerEEEEEEDcT_DpT0_', symObjAddr: 0x3CD0, symBinAddr: 0x168A0, symSize: 0x30 }
  - { offset: 0x144D40, size: 0x8, addend: 0x0, symName: '__ZNSt3__116__variant_detail12__visitation6__base12__dispatcherIJLm6EEE10__dispatchB8fe200100IONS1_9__variant15__value_visitorIZN12_GLOBAL__N_112alGetEffectfEN3gsl8not_nullIPN2al7ContextEEEjiPfE3$_0EEJRNS0_6__baseILNS0_6_TraitE0EJ17NullEffectHandler19ReverbEffectHandler22StdReverbEffectHandler20AutowahEffectHandler19ChorusEffectHandler23CompressorEffectHandler23DistortionEffectHandler17EchoEffectHandler22EqualizerEffectHandler20FlangerEffectHandler21FshifterEffectHandler22ModulatorEffectHandler21PshifterEffectHandler21VmorpherEffectHandler28DedicatedDialogEffectHandler25DedicatedLfeEffectHandler24ConvolutionEffectHandlerEEEEEEDcT_DpT0_', symObjAddr: 0x3D00, symBinAddr: 0x168D0, symSize: 0x30 }
  - { offset: 0x144D74, size: 0x8, addend: 0x0, symName: '__ZNSt3__116__variant_detail12__visitation6__base12__dispatcherIJLm6EEE10__dispatchB8fe200100IONS1_9__variant15__value_visitorIZN12_GLOBAL__N_112alGetEffectfEN3gsl8not_nullIPN2al7ContextEEEjiPfE3$_0EEJRNS0_6__baseILNS0_6_TraitE0EJ17NullEffectHandler19ReverbEffectHandler22StdReverbEffectHandler20AutowahEffectHandler19ChorusEffectHandler23CompressorEffectHandler23DistortionEffectHandler17EchoEffectHandler22EqualizerEffectHandler20FlangerEffectHandler21FshifterEffectHandler22ModulatorEffectHandler21PshifterEffectHandler21VmorpherEffectHandler28DedicatedDialogEffectHandler25DedicatedLfeEffectHandler24ConvolutionEffectHandlerEEEEEEDcT_DpT0_', symObjAddr: 0x3D00, symBinAddr: 0x168D0, symSize: 0x30 }
  - { offset: 0x144D92, size: 0x8, addend: 0x0, symName: '__ZNSt3__116__variant_detail12__visitation6__base12__dispatcherIJLm6EEE10__dispatchB8fe200100IONS1_9__variant15__value_visitorIZN12_GLOBAL__N_112alGetEffectfEN3gsl8not_nullIPN2al7ContextEEEjiPfE3$_0EEJRNS0_6__baseILNS0_6_TraitE0EJ17NullEffectHandler19ReverbEffectHandler22StdReverbEffectHandler20AutowahEffectHandler19ChorusEffectHandler23CompressorEffectHandler23DistortionEffectHandler17EchoEffectHandler22EqualizerEffectHandler20FlangerEffectHandler21FshifterEffectHandler22ModulatorEffectHandler21PshifterEffectHandler21VmorpherEffectHandler28DedicatedDialogEffectHandler25DedicatedLfeEffectHandler24ConvolutionEffectHandlerEEEEEEDcT_DpT0_', symObjAddr: 0x3D00, symBinAddr: 0x168D0, symSize: 0x30 }
  - { offset: 0x144F42, size: 0x8, addend: 0x0, symName: '__ZNSt3__116__variant_detail12__visitation6__base12__dispatcherIJLm7EEE10__dispatchB8fe200100IONS1_9__variant15__value_visitorIZN12_GLOBAL__N_112alGetEffectfEN3gsl8not_nullIPN2al7ContextEEEjiPfE3$_0EEJRNS0_6__baseILNS0_6_TraitE0EJ17NullEffectHandler19ReverbEffectHandler22StdReverbEffectHandler20AutowahEffectHandler19ChorusEffectHandler23CompressorEffectHandler23DistortionEffectHandler17EchoEffectHandler22EqualizerEffectHandler20FlangerEffectHandler21FshifterEffectHandler22ModulatorEffectHandler21PshifterEffectHandler21VmorpherEffectHandler28DedicatedDialogEffectHandler25DedicatedLfeEffectHandler24ConvolutionEffectHandlerEEEEEEDcT_DpT0_', symObjAddr: 0x3D30, symBinAddr: 0x16900, symSize: 0x30 }
  - { offset: 0x144F76, size: 0x8, addend: 0x0, symName: '__ZNSt3__116__variant_detail12__visitation6__base12__dispatcherIJLm7EEE10__dispatchB8fe200100IONS1_9__variant15__value_visitorIZN12_GLOBAL__N_112alGetEffectfEN3gsl8not_nullIPN2al7ContextEEEjiPfE3$_0EEJRNS0_6__baseILNS0_6_TraitE0EJ17NullEffectHandler19ReverbEffectHandler22StdReverbEffectHandler20AutowahEffectHandler19ChorusEffectHandler23CompressorEffectHandler23DistortionEffectHandler17EchoEffectHandler22EqualizerEffectHandler20FlangerEffectHandler21FshifterEffectHandler22ModulatorEffectHandler21PshifterEffectHandler21VmorpherEffectHandler28DedicatedDialogEffectHandler25DedicatedLfeEffectHandler24ConvolutionEffectHandlerEEEEEEDcT_DpT0_', symObjAddr: 0x3D30, symBinAddr: 0x16900, symSize: 0x30 }
  - { offset: 0x144F94, size: 0x8, addend: 0x0, symName: '__ZNSt3__116__variant_detail12__visitation6__base12__dispatcherIJLm7EEE10__dispatchB8fe200100IONS1_9__variant15__value_visitorIZN12_GLOBAL__N_112alGetEffectfEN3gsl8not_nullIPN2al7ContextEEEjiPfE3$_0EEJRNS0_6__baseILNS0_6_TraitE0EJ17NullEffectHandler19ReverbEffectHandler22StdReverbEffectHandler20AutowahEffectHandler19ChorusEffectHandler23CompressorEffectHandler23DistortionEffectHandler17EchoEffectHandler22EqualizerEffectHandler20FlangerEffectHandler21FshifterEffectHandler22ModulatorEffectHandler21PshifterEffectHandler21VmorpherEffectHandler28DedicatedDialogEffectHandler25DedicatedLfeEffectHandler24ConvolutionEffectHandlerEEEEEEDcT_DpT0_', symObjAddr: 0x3D30, symBinAddr: 0x16900, symSize: 0x30 }
  - { offset: 0x145144, size: 0x8, addend: 0x0, symName: '__ZNSt3__116__variant_detail12__visitation6__base12__dispatcherIJLm8EEE10__dispatchB8fe200100IONS1_9__variant15__value_visitorIZN12_GLOBAL__N_112alGetEffectfEN3gsl8not_nullIPN2al7ContextEEEjiPfE3$_0EEJRNS0_6__baseILNS0_6_TraitE0EJ17NullEffectHandler19ReverbEffectHandler22StdReverbEffectHandler20AutowahEffectHandler19ChorusEffectHandler23CompressorEffectHandler23DistortionEffectHandler17EchoEffectHandler22EqualizerEffectHandler20FlangerEffectHandler21FshifterEffectHandler22ModulatorEffectHandler21PshifterEffectHandler21VmorpherEffectHandler28DedicatedDialogEffectHandler25DedicatedLfeEffectHandler24ConvolutionEffectHandlerEEEEEEDcT_DpT0_', symObjAddr: 0x3D60, symBinAddr: 0x16930, symSize: 0x30 }
  - { offset: 0x145178, size: 0x8, addend: 0x0, symName: '__ZNSt3__116__variant_detail12__visitation6__base12__dispatcherIJLm8EEE10__dispatchB8fe200100IONS1_9__variant15__value_visitorIZN12_GLOBAL__N_112alGetEffectfEN3gsl8not_nullIPN2al7ContextEEEjiPfE3$_0EEJRNS0_6__baseILNS0_6_TraitE0EJ17NullEffectHandler19ReverbEffectHandler22StdReverbEffectHandler20AutowahEffectHandler19ChorusEffectHandler23CompressorEffectHandler23DistortionEffectHandler17EchoEffectHandler22EqualizerEffectHandler20FlangerEffectHandler21FshifterEffectHandler22ModulatorEffectHandler21PshifterEffectHandler21VmorpherEffectHandler28DedicatedDialogEffectHandler25DedicatedLfeEffectHandler24ConvolutionEffectHandlerEEEEEEDcT_DpT0_', symObjAddr: 0x3D60, symBinAddr: 0x16930, symSize: 0x30 }
  - { offset: 0x145196, size: 0x8, addend: 0x0, symName: '__ZNSt3__116__variant_detail12__visitation6__base12__dispatcherIJLm8EEE10__dispatchB8fe200100IONS1_9__variant15__value_visitorIZN12_GLOBAL__N_112alGetEffectfEN3gsl8not_nullIPN2al7ContextEEEjiPfE3$_0EEJRNS0_6__baseILNS0_6_TraitE0EJ17NullEffectHandler19ReverbEffectHandler22StdReverbEffectHandler20AutowahEffectHandler19ChorusEffectHandler23CompressorEffectHandler23DistortionEffectHandler17EchoEffectHandler22EqualizerEffectHandler20FlangerEffectHandler21FshifterEffectHandler22ModulatorEffectHandler21PshifterEffectHandler21VmorpherEffectHandler28DedicatedDialogEffectHandler25DedicatedLfeEffectHandler24ConvolutionEffectHandlerEEEEEEDcT_DpT0_', symObjAddr: 0x3D60, symBinAddr: 0x16930, symSize: 0x30 }
  - { offset: 0x145346, size: 0x8, addend: 0x0, symName: '__ZNSt3__116__variant_detail12__visitation6__base12__dispatcherIJLm9EEE10__dispatchB8fe200100IONS1_9__variant15__value_visitorIZN12_GLOBAL__N_112alGetEffectfEN3gsl8not_nullIPN2al7ContextEEEjiPfE3$_0EEJRNS0_6__baseILNS0_6_TraitE0EJ17NullEffectHandler19ReverbEffectHandler22StdReverbEffectHandler20AutowahEffectHandler19ChorusEffectHandler23CompressorEffectHandler23DistortionEffectHandler17EchoEffectHandler22EqualizerEffectHandler20FlangerEffectHandler21FshifterEffectHandler22ModulatorEffectHandler21PshifterEffectHandler21VmorpherEffectHandler28DedicatedDialogEffectHandler25DedicatedLfeEffectHandler24ConvolutionEffectHandlerEEEEEEDcT_DpT0_', symObjAddr: 0x3D90, symBinAddr: 0x16960, symSize: 0x30 }
  - { offset: 0x14537A, size: 0x8, addend: 0x0, symName: '__ZNSt3__116__variant_detail12__visitation6__base12__dispatcherIJLm9EEE10__dispatchB8fe200100IONS1_9__variant15__value_visitorIZN12_GLOBAL__N_112alGetEffectfEN3gsl8not_nullIPN2al7ContextEEEjiPfE3$_0EEJRNS0_6__baseILNS0_6_TraitE0EJ17NullEffectHandler19ReverbEffectHandler22StdReverbEffectHandler20AutowahEffectHandler19ChorusEffectHandler23CompressorEffectHandler23DistortionEffectHandler17EchoEffectHandler22EqualizerEffectHandler20FlangerEffectHandler21FshifterEffectHandler22ModulatorEffectHandler21PshifterEffectHandler21VmorpherEffectHandler28DedicatedDialogEffectHandler25DedicatedLfeEffectHandler24ConvolutionEffectHandlerEEEEEEDcT_DpT0_', symObjAddr: 0x3D90, symBinAddr: 0x16960, symSize: 0x30 }
  - { offset: 0x145398, size: 0x8, addend: 0x0, symName: '__ZNSt3__116__variant_detail12__visitation6__base12__dispatcherIJLm9EEE10__dispatchB8fe200100IONS1_9__variant15__value_visitorIZN12_GLOBAL__N_112alGetEffectfEN3gsl8not_nullIPN2al7ContextEEEjiPfE3$_0EEJRNS0_6__baseILNS0_6_TraitE0EJ17NullEffectHandler19ReverbEffectHandler22StdReverbEffectHandler20AutowahEffectHandler19ChorusEffectHandler23CompressorEffectHandler23DistortionEffectHandler17EchoEffectHandler22EqualizerEffectHandler20FlangerEffectHandler21FshifterEffectHandler22ModulatorEffectHandler21PshifterEffectHandler21VmorpherEffectHandler28DedicatedDialogEffectHandler25DedicatedLfeEffectHandler24ConvolutionEffectHandlerEEEEEEDcT_DpT0_', symObjAddr: 0x3D90, symBinAddr: 0x16960, symSize: 0x30 }
  - { offset: 0x145548, size: 0x8, addend: 0x0, symName: '__ZNSt3__116__variant_detail12__visitation6__base12__dispatcherIJLm10EEE10__dispatchB8fe200100IONS1_9__variant15__value_visitorIZN12_GLOBAL__N_112alGetEffectfEN3gsl8not_nullIPN2al7ContextEEEjiPfE3$_0EEJRNS0_6__baseILNS0_6_TraitE0EJ17NullEffectHandler19ReverbEffectHandler22StdReverbEffectHandler20AutowahEffectHandler19ChorusEffectHandler23CompressorEffectHandler23DistortionEffectHandler17EchoEffectHandler22EqualizerEffectHandler20FlangerEffectHandler21FshifterEffectHandler22ModulatorEffectHandler21PshifterEffectHandler21VmorpherEffectHandler28DedicatedDialogEffectHandler25DedicatedLfeEffectHandler24ConvolutionEffectHandlerEEEEEEDcT_DpT0_', symObjAddr: 0x3DC0, symBinAddr: 0x16990, symSize: 0x30 }
  - { offset: 0x14557C, size: 0x8, addend: 0x0, symName: '__ZNSt3__116__variant_detail12__visitation6__base12__dispatcherIJLm10EEE10__dispatchB8fe200100IONS1_9__variant15__value_visitorIZN12_GLOBAL__N_112alGetEffectfEN3gsl8not_nullIPN2al7ContextEEEjiPfE3$_0EEJRNS0_6__baseILNS0_6_TraitE0EJ17NullEffectHandler19ReverbEffectHandler22StdReverbEffectHandler20AutowahEffectHandler19ChorusEffectHandler23CompressorEffectHandler23DistortionEffectHandler17EchoEffectHandler22EqualizerEffectHandler20FlangerEffectHandler21FshifterEffectHandler22ModulatorEffectHandler21PshifterEffectHandler21VmorpherEffectHandler28DedicatedDialogEffectHandler25DedicatedLfeEffectHandler24ConvolutionEffectHandlerEEEEEEDcT_DpT0_', symObjAddr: 0x3DC0, symBinAddr: 0x16990, symSize: 0x30 }
  - { offset: 0x14559A, size: 0x8, addend: 0x0, symName: '__ZNSt3__116__variant_detail12__visitation6__base12__dispatcherIJLm10EEE10__dispatchB8fe200100IONS1_9__variant15__value_visitorIZN12_GLOBAL__N_112alGetEffectfEN3gsl8not_nullIPN2al7ContextEEEjiPfE3$_0EEJRNS0_6__baseILNS0_6_TraitE0EJ17NullEffectHandler19ReverbEffectHandler22StdReverbEffectHandler20AutowahEffectHandler19ChorusEffectHandler23CompressorEffectHandler23DistortionEffectHandler17EchoEffectHandler22EqualizerEffectHandler20FlangerEffectHandler21FshifterEffectHandler22ModulatorEffectHandler21PshifterEffectHandler21VmorpherEffectHandler28DedicatedDialogEffectHandler25DedicatedLfeEffectHandler24ConvolutionEffectHandlerEEEEEEDcT_DpT0_', symObjAddr: 0x3DC0, symBinAddr: 0x16990, symSize: 0x30 }
  - { offset: 0x14574A, size: 0x8, addend: 0x0, symName: '__ZNSt3__116__variant_detail12__visitation6__base12__dispatcherIJLm11EEE10__dispatchB8fe200100IONS1_9__variant15__value_visitorIZN12_GLOBAL__N_112alGetEffectfEN3gsl8not_nullIPN2al7ContextEEEjiPfE3$_0EEJRNS0_6__baseILNS0_6_TraitE0EJ17NullEffectHandler19ReverbEffectHandler22StdReverbEffectHandler20AutowahEffectHandler19ChorusEffectHandler23CompressorEffectHandler23DistortionEffectHandler17EchoEffectHandler22EqualizerEffectHandler20FlangerEffectHandler21FshifterEffectHandler22ModulatorEffectHandler21PshifterEffectHandler21VmorpherEffectHandler28DedicatedDialogEffectHandler25DedicatedLfeEffectHandler24ConvolutionEffectHandlerEEEEEEDcT_DpT0_', symObjAddr: 0x3DF0, symBinAddr: 0x169C0, symSize: 0x30 }
  - { offset: 0x14577E, size: 0x8, addend: 0x0, symName: '__ZNSt3__116__variant_detail12__visitation6__base12__dispatcherIJLm11EEE10__dispatchB8fe200100IONS1_9__variant15__value_visitorIZN12_GLOBAL__N_112alGetEffectfEN3gsl8not_nullIPN2al7ContextEEEjiPfE3$_0EEJRNS0_6__baseILNS0_6_TraitE0EJ17NullEffectHandler19ReverbEffectHandler22StdReverbEffectHandler20AutowahEffectHandler19ChorusEffectHandler23CompressorEffectHandler23DistortionEffectHandler17EchoEffectHandler22EqualizerEffectHandler20FlangerEffectHandler21FshifterEffectHandler22ModulatorEffectHandler21PshifterEffectHandler21VmorpherEffectHandler28DedicatedDialogEffectHandler25DedicatedLfeEffectHandler24ConvolutionEffectHandlerEEEEEEDcT_DpT0_', symObjAddr: 0x3DF0, symBinAddr: 0x169C0, symSize: 0x30 }
  - { offset: 0x14579C, size: 0x8, addend: 0x0, symName: '__ZNSt3__116__variant_detail12__visitation6__base12__dispatcherIJLm11EEE10__dispatchB8fe200100IONS1_9__variant15__value_visitorIZN12_GLOBAL__N_112alGetEffectfEN3gsl8not_nullIPN2al7ContextEEEjiPfE3$_0EEJRNS0_6__baseILNS0_6_TraitE0EJ17NullEffectHandler19ReverbEffectHandler22StdReverbEffectHandler20AutowahEffectHandler19ChorusEffectHandler23CompressorEffectHandler23DistortionEffectHandler17EchoEffectHandler22EqualizerEffectHandler20FlangerEffectHandler21FshifterEffectHandler22ModulatorEffectHandler21PshifterEffectHandler21VmorpherEffectHandler28DedicatedDialogEffectHandler25DedicatedLfeEffectHandler24ConvolutionEffectHandlerEEEEEEDcT_DpT0_', symObjAddr: 0x3DF0, symBinAddr: 0x169C0, symSize: 0x30 }
  - { offset: 0x14594C, size: 0x8, addend: 0x0, symName: '__ZNSt3__116__variant_detail12__visitation6__base12__dispatcherIJLm12EEE10__dispatchB8fe200100IONS1_9__variant15__value_visitorIZN12_GLOBAL__N_112alGetEffectfEN3gsl8not_nullIPN2al7ContextEEEjiPfE3$_0EEJRNS0_6__baseILNS0_6_TraitE0EJ17NullEffectHandler19ReverbEffectHandler22StdReverbEffectHandler20AutowahEffectHandler19ChorusEffectHandler23CompressorEffectHandler23DistortionEffectHandler17EchoEffectHandler22EqualizerEffectHandler20FlangerEffectHandler21FshifterEffectHandler22ModulatorEffectHandler21PshifterEffectHandler21VmorpherEffectHandler28DedicatedDialogEffectHandler25DedicatedLfeEffectHandler24ConvolutionEffectHandlerEEEEEEDcT_DpT0_', symObjAddr: 0x3E20, symBinAddr: 0x169F0, symSize: 0x30 }
  - { offset: 0x145980, size: 0x8, addend: 0x0, symName: '__ZNSt3__116__variant_detail12__visitation6__base12__dispatcherIJLm12EEE10__dispatchB8fe200100IONS1_9__variant15__value_visitorIZN12_GLOBAL__N_112alGetEffectfEN3gsl8not_nullIPN2al7ContextEEEjiPfE3$_0EEJRNS0_6__baseILNS0_6_TraitE0EJ17NullEffectHandler19ReverbEffectHandler22StdReverbEffectHandler20AutowahEffectHandler19ChorusEffectHandler23CompressorEffectHandler23DistortionEffectHandler17EchoEffectHandler22EqualizerEffectHandler20FlangerEffectHandler21FshifterEffectHandler22ModulatorEffectHandler21PshifterEffectHandler21VmorpherEffectHandler28DedicatedDialogEffectHandler25DedicatedLfeEffectHandler24ConvolutionEffectHandlerEEEEEEDcT_DpT0_', symObjAddr: 0x3E20, symBinAddr: 0x169F0, symSize: 0x30 }
  - { offset: 0x14599E, size: 0x8, addend: 0x0, symName: '__ZNSt3__116__variant_detail12__visitation6__base12__dispatcherIJLm12EEE10__dispatchB8fe200100IONS1_9__variant15__value_visitorIZN12_GLOBAL__N_112alGetEffectfEN3gsl8not_nullIPN2al7ContextEEEjiPfE3$_0EEJRNS0_6__baseILNS0_6_TraitE0EJ17NullEffectHandler19ReverbEffectHandler22StdReverbEffectHandler20AutowahEffectHandler19ChorusEffectHandler23CompressorEffectHandler23DistortionEffectHandler17EchoEffectHandler22EqualizerEffectHandler20FlangerEffectHandler21FshifterEffectHandler22ModulatorEffectHandler21PshifterEffectHandler21VmorpherEffectHandler28DedicatedDialogEffectHandler25DedicatedLfeEffectHandler24ConvolutionEffectHandlerEEEEEEDcT_DpT0_', symObjAddr: 0x3E20, symBinAddr: 0x169F0, symSize: 0x30 }
  - { offset: 0x145B4E, size: 0x8, addend: 0x0, symName: '__ZNSt3__116__variant_detail12__visitation6__base12__dispatcherIJLm13EEE10__dispatchB8fe200100IONS1_9__variant15__value_visitorIZN12_GLOBAL__N_112alGetEffectfEN3gsl8not_nullIPN2al7ContextEEEjiPfE3$_0EEJRNS0_6__baseILNS0_6_TraitE0EJ17NullEffectHandler19ReverbEffectHandler22StdReverbEffectHandler20AutowahEffectHandler19ChorusEffectHandler23CompressorEffectHandler23DistortionEffectHandler17EchoEffectHandler22EqualizerEffectHandler20FlangerEffectHandler21FshifterEffectHandler22ModulatorEffectHandler21PshifterEffectHandler21VmorpherEffectHandler28DedicatedDialogEffectHandler25DedicatedLfeEffectHandler24ConvolutionEffectHandlerEEEEEEDcT_DpT0_', symObjAddr: 0x3E50, symBinAddr: 0x16A20, symSize: 0x30 }
  - { offset: 0x145B82, size: 0x8, addend: 0x0, symName: '__ZNSt3__116__variant_detail12__visitation6__base12__dispatcherIJLm13EEE10__dispatchB8fe200100IONS1_9__variant15__value_visitorIZN12_GLOBAL__N_112alGetEffectfEN3gsl8not_nullIPN2al7ContextEEEjiPfE3$_0EEJRNS0_6__baseILNS0_6_TraitE0EJ17NullEffectHandler19ReverbEffectHandler22StdReverbEffectHandler20AutowahEffectHandler19ChorusEffectHandler23CompressorEffectHandler23DistortionEffectHandler17EchoEffectHandler22EqualizerEffectHandler20FlangerEffectHandler21FshifterEffectHandler22ModulatorEffectHandler21PshifterEffectHandler21VmorpherEffectHandler28DedicatedDialogEffectHandler25DedicatedLfeEffectHandler24ConvolutionEffectHandlerEEEEEEDcT_DpT0_', symObjAddr: 0x3E50, symBinAddr: 0x16A20, symSize: 0x30 }
  - { offset: 0x145BA0, size: 0x8, addend: 0x0, symName: '__ZNSt3__116__variant_detail12__visitation6__base12__dispatcherIJLm13EEE10__dispatchB8fe200100IONS1_9__variant15__value_visitorIZN12_GLOBAL__N_112alGetEffectfEN3gsl8not_nullIPN2al7ContextEEEjiPfE3$_0EEJRNS0_6__baseILNS0_6_TraitE0EJ17NullEffectHandler19ReverbEffectHandler22StdReverbEffectHandler20AutowahEffectHandler19ChorusEffectHandler23CompressorEffectHandler23DistortionEffectHandler17EchoEffectHandler22EqualizerEffectHandler20FlangerEffectHandler21FshifterEffectHandler22ModulatorEffectHandler21PshifterEffectHandler21VmorpherEffectHandler28DedicatedDialogEffectHandler25DedicatedLfeEffectHandler24ConvolutionEffectHandlerEEEEEEDcT_DpT0_', symObjAddr: 0x3E50, symBinAddr: 0x16A20, symSize: 0x30 }
  - { offset: 0x145D50, size: 0x8, addend: 0x0, symName: '__ZNSt3__116__variant_detail12__visitation6__base12__dispatcherIJLm14EEE10__dispatchB8fe200100IONS1_9__variant15__value_visitorIZN12_GLOBAL__N_112alGetEffectfEN3gsl8not_nullIPN2al7ContextEEEjiPfE3$_0EEJRNS0_6__baseILNS0_6_TraitE0EJ17NullEffectHandler19ReverbEffectHandler22StdReverbEffectHandler20AutowahEffectHandler19ChorusEffectHandler23CompressorEffectHandler23DistortionEffectHandler17EchoEffectHandler22EqualizerEffectHandler20FlangerEffectHandler21FshifterEffectHandler22ModulatorEffectHandler21PshifterEffectHandler21VmorpherEffectHandler28DedicatedDialogEffectHandler25DedicatedLfeEffectHandler24ConvolutionEffectHandlerEEEEEEDcT_DpT0_', symObjAddr: 0x3E80, symBinAddr: 0x16A50, symSize: 0x30 }
  - { offset: 0x145D84, size: 0x8, addend: 0x0, symName: '__ZNSt3__116__variant_detail12__visitation6__base12__dispatcherIJLm14EEE10__dispatchB8fe200100IONS1_9__variant15__value_visitorIZN12_GLOBAL__N_112alGetEffectfEN3gsl8not_nullIPN2al7ContextEEEjiPfE3$_0EEJRNS0_6__baseILNS0_6_TraitE0EJ17NullEffectHandler19ReverbEffectHandler22StdReverbEffectHandler20AutowahEffectHandler19ChorusEffectHandler23CompressorEffectHandler23DistortionEffectHandler17EchoEffectHandler22EqualizerEffectHandler20FlangerEffectHandler21FshifterEffectHandler22ModulatorEffectHandler21PshifterEffectHandler21VmorpherEffectHandler28DedicatedDialogEffectHandler25DedicatedLfeEffectHandler24ConvolutionEffectHandlerEEEEEEDcT_DpT0_', symObjAddr: 0x3E80, symBinAddr: 0x16A50, symSize: 0x30 }
  - { offset: 0x145DA2, size: 0x8, addend: 0x0, symName: '__ZNSt3__116__variant_detail12__visitation6__base12__dispatcherIJLm14EEE10__dispatchB8fe200100IONS1_9__variant15__value_visitorIZN12_GLOBAL__N_112alGetEffectfEN3gsl8not_nullIPN2al7ContextEEEjiPfE3$_0EEJRNS0_6__baseILNS0_6_TraitE0EJ17NullEffectHandler19ReverbEffectHandler22StdReverbEffectHandler20AutowahEffectHandler19ChorusEffectHandler23CompressorEffectHandler23DistortionEffectHandler17EchoEffectHandler22EqualizerEffectHandler20FlangerEffectHandler21FshifterEffectHandler22ModulatorEffectHandler21PshifterEffectHandler21VmorpherEffectHandler28DedicatedDialogEffectHandler25DedicatedLfeEffectHandler24ConvolutionEffectHandlerEEEEEEDcT_DpT0_', symObjAddr: 0x3E80, symBinAddr: 0x16A50, symSize: 0x30 }
  - { offset: 0x145F52, size: 0x8, addend: 0x0, symName: '__ZNSt3__116__variant_detail12__visitation6__base12__dispatcherIJLm15EEE10__dispatchB8fe200100IONS1_9__variant15__value_visitorIZN12_GLOBAL__N_112alGetEffectfEN3gsl8not_nullIPN2al7ContextEEEjiPfE3$_0EEJRNS0_6__baseILNS0_6_TraitE0EJ17NullEffectHandler19ReverbEffectHandler22StdReverbEffectHandler20AutowahEffectHandler19ChorusEffectHandler23CompressorEffectHandler23DistortionEffectHandler17EchoEffectHandler22EqualizerEffectHandler20FlangerEffectHandler21FshifterEffectHandler22ModulatorEffectHandler21PshifterEffectHandler21VmorpherEffectHandler28DedicatedDialogEffectHandler25DedicatedLfeEffectHandler24ConvolutionEffectHandlerEEEEEEDcT_DpT0_', symObjAddr: 0x3EB0, symBinAddr: 0x16A80, symSize: 0x30 }
  - { offset: 0x145F86, size: 0x8, addend: 0x0, symName: '__ZNSt3__116__variant_detail12__visitation6__base12__dispatcherIJLm15EEE10__dispatchB8fe200100IONS1_9__variant15__value_visitorIZN12_GLOBAL__N_112alGetEffectfEN3gsl8not_nullIPN2al7ContextEEEjiPfE3$_0EEJRNS0_6__baseILNS0_6_TraitE0EJ17NullEffectHandler19ReverbEffectHandler22StdReverbEffectHandler20AutowahEffectHandler19ChorusEffectHandler23CompressorEffectHandler23DistortionEffectHandler17EchoEffectHandler22EqualizerEffectHandler20FlangerEffectHandler21FshifterEffectHandler22ModulatorEffectHandler21PshifterEffectHandler21VmorpherEffectHandler28DedicatedDialogEffectHandler25DedicatedLfeEffectHandler24ConvolutionEffectHandlerEEEEEEDcT_DpT0_', symObjAddr: 0x3EB0, symBinAddr: 0x16A80, symSize: 0x30 }
  - { offset: 0x145FA4, size: 0x8, addend: 0x0, symName: '__ZNSt3__116__variant_detail12__visitation6__base12__dispatcherIJLm15EEE10__dispatchB8fe200100IONS1_9__variant15__value_visitorIZN12_GLOBAL__N_112alGetEffectfEN3gsl8not_nullIPN2al7ContextEEEjiPfE3$_0EEJRNS0_6__baseILNS0_6_TraitE0EJ17NullEffectHandler19ReverbEffectHandler22StdReverbEffectHandler20AutowahEffectHandler19ChorusEffectHandler23CompressorEffectHandler23DistortionEffectHandler17EchoEffectHandler22EqualizerEffectHandler20FlangerEffectHandler21FshifterEffectHandler22ModulatorEffectHandler21PshifterEffectHandler21VmorpherEffectHandler28DedicatedDialogEffectHandler25DedicatedLfeEffectHandler24ConvolutionEffectHandlerEEEEEEDcT_DpT0_', symObjAddr: 0x3EB0, symBinAddr: 0x16A80, symSize: 0x30 }
  - { offset: 0x146154, size: 0x8, addend: 0x0, symName: '__ZNSt3__116__variant_detail12__visitation6__base12__dispatcherIJLm16EEE10__dispatchB8fe200100IONS1_9__variant15__value_visitorIZN12_GLOBAL__N_112alGetEffectfEN3gsl8not_nullIPN2al7ContextEEEjiPfE3$_0EEJRNS0_6__baseILNS0_6_TraitE0EJ17NullEffectHandler19ReverbEffectHandler22StdReverbEffectHandler20AutowahEffectHandler19ChorusEffectHandler23CompressorEffectHandler23DistortionEffectHandler17EchoEffectHandler22EqualizerEffectHandler20FlangerEffectHandler21FshifterEffectHandler22ModulatorEffectHandler21PshifterEffectHandler21VmorpherEffectHandler28DedicatedDialogEffectHandler25DedicatedLfeEffectHandler24ConvolutionEffectHandlerEEEEEEDcT_DpT0_', symObjAddr: 0x3EE0, symBinAddr: 0x16AB0, symSize: 0x30 }
  - { offset: 0x146188, size: 0x8, addend: 0x0, symName: '__ZNSt3__116__variant_detail12__visitation6__base12__dispatcherIJLm16EEE10__dispatchB8fe200100IONS1_9__variant15__value_visitorIZN12_GLOBAL__N_112alGetEffectfEN3gsl8not_nullIPN2al7ContextEEEjiPfE3$_0EEJRNS0_6__baseILNS0_6_TraitE0EJ17NullEffectHandler19ReverbEffectHandler22StdReverbEffectHandler20AutowahEffectHandler19ChorusEffectHandler23CompressorEffectHandler23DistortionEffectHandler17EchoEffectHandler22EqualizerEffectHandler20FlangerEffectHandler21FshifterEffectHandler22ModulatorEffectHandler21PshifterEffectHandler21VmorpherEffectHandler28DedicatedDialogEffectHandler25DedicatedLfeEffectHandler24ConvolutionEffectHandlerEEEEEEDcT_DpT0_', symObjAddr: 0x3EE0, symBinAddr: 0x16AB0, symSize: 0x30 }
  - { offset: 0x1461A6, size: 0x8, addend: 0x0, symName: '__ZNSt3__116__variant_detail12__visitation6__base12__dispatcherIJLm16EEE10__dispatchB8fe200100IONS1_9__variant15__value_visitorIZN12_GLOBAL__N_112alGetEffectfEN3gsl8not_nullIPN2al7ContextEEEjiPfE3$_0EEJRNS0_6__baseILNS0_6_TraitE0EJ17NullEffectHandler19ReverbEffectHandler22StdReverbEffectHandler20AutowahEffectHandler19ChorusEffectHandler23CompressorEffectHandler23DistortionEffectHandler17EchoEffectHandler22EqualizerEffectHandler20FlangerEffectHandler21FshifterEffectHandler22ModulatorEffectHandler21PshifterEffectHandler21VmorpherEffectHandler28DedicatedDialogEffectHandler25DedicatedLfeEffectHandler24ConvolutionEffectHandlerEEEEEEDcT_DpT0_', symObjAddr: 0x3EE0, symBinAddr: 0x16AB0, symSize: 0x30 }
  - { offset: 0x14637A, size: 0x8, addend: 0x0, symName: '__ZNSt3__116__variant_detail12__visitation6__base12__dispatcherIJLm0EEE10__dispatchB8fe200100IONS1_9__variant15__value_visitorIZN12_GLOBAL__N_113alGetEffectfvEN3gsl8not_nullIPN2al7ContextEEEjiPfE3$_0EEJRNS0_6__baseILNS0_6_TraitE0EJ17NullEffectHandler19ReverbEffectHandler22StdReverbEffectHandler20AutowahEffectHandler19ChorusEffectHandler23CompressorEffectHandler23DistortionEffectHandler17EchoEffectHandler22EqualizerEffectHandler20FlangerEffectHandler21FshifterEffectHandler22ModulatorEffectHandler21PshifterEffectHandler21VmorpherEffectHandler28DedicatedDialogEffectHandler25DedicatedLfeEffectHandler24ConvolutionEffectHandlerEEEEEEDcT_DpT0_', symObjAddr: 0x3F10, symBinAddr: 0x16AE0, symSize: 0x30 }
  - { offset: 0x1463AE, size: 0x8, addend: 0x0, symName: '__ZNSt3__116__variant_detail12__visitation6__base12__dispatcherIJLm0EEE10__dispatchB8fe200100IONS1_9__variant15__value_visitorIZN12_GLOBAL__N_113alGetEffectfvEN3gsl8not_nullIPN2al7ContextEEEjiPfE3$_0EEJRNS0_6__baseILNS0_6_TraitE0EJ17NullEffectHandler19ReverbEffectHandler22StdReverbEffectHandler20AutowahEffectHandler19ChorusEffectHandler23CompressorEffectHandler23DistortionEffectHandler17EchoEffectHandler22EqualizerEffectHandler20FlangerEffectHandler21FshifterEffectHandler22ModulatorEffectHandler21PshifterEffectHandler21VmorpherEffectHandler28DedicatedDialogEffectHandler25DedicatedLfeEffectHandler24ConvolutionEffectHandlerEEEEEEDcT_DpT0_', symObjAddr: 0x3F10, symBinAddr: 0x16AE0, symSize: 0x30 }
  - { offset: 0x1463CC, size: 0x8, addend: 0x0, symName: '__ZNSt3__116__variant_detail12__visitation6__base12__dispatcherIJLm0EEE10__dispatchB8fe200100IONS1_9__variant15__value_visitorIZN12_GLOBAL__N_113alGetEffectfvEN3gsl8not_nullIPN2al7ContextEEEjiPfE3$_0EEJRNS0_6__baseILNS0_6_TraitE0EJ17NullEffectHandler19ReverbEffectHandler22StdReverbEffectHandler20AutowahEffectHandler19ChorusEffectHandler23CompressorEffectHandler23DistortionEffectHandler17EchoEffectHandler22EqualizerEffectHandler20FlangerEffectHandler21FshifterEffectHandler22ModulatorEffectHandler21PshifterEffectHandler21VmorpherEffectHandler28DedicatedDialogEffectHandler25DedicatedLfeEffectHandler24ConvolutionEffectHandlerEEEEEEDcT_DpT0_', symObjAddr: 0x3F10, symBinAddr: 0x16AE0, symSize: 0x30 }
  - { offset: 0x14657C, size: 0x8, addend: 0x0, symName: '__ZNSt3__116__variant_detail12__visitation6__base12__dispatcherIJLm1EEE10__dispatchB8fe200100IONS1_9__variant15__value_visitorIZN12_GLOBAL__N_113alGetEffectfvEN3gsl8not_nullIPN2al7ContextEEEjiPfE3$_0EEJRNS0_6__baseILNS0_6_TraitE0EJ17NullEffectHandler19ReverbEffectHandler22StdReverbEffectHandler20AutowahEffectHandler19ChorusEffectHandler23CompressorEffectHandler23DistortionEffectHandler17EchoEffectHandler22EqualizerEffectHandler20FlangerEffectHandler21FshifterEffectHandler22ModulatorEffectHandler21PshifterEffectHandler21VmorpherEffectHandler28DedicatedDialogEffectHandler25DedicatedLfeEffectHandler24ConvolutionEffectHandlerEEEEEEDcT_DpT0_', symObjAddr: 0x3F40, symBinAddr: 0x16B10, symSize: 0x30 }
  - { offset: 0x1465B0, size: 0x8, addend: 0x0, symName: '__ZNSt3__116__variant_detail12__visitation6__base12__dispatcherIJLm1EEE10__dispatchB8fe200100IONS1_9__variant15__value_visitorIZN12_GLOBAL__N_113alGetEffectfvEN3gsl8not_nullIPN2al7ContextEEEjiPfE3$_0EEJRNS0_6__baseILNS0_6_TraitE0EJ17NullEffectHandler19ReverbEffectHandler22StdReverbEffectHandler20AutowahEffectHandler19ChorusEffectHandler23CompressorEffectHandler23DistortionEffectHandler17EchoEffectHandler22EqualizerEffectHandler20FlangerEffectHandler21FshifterEffectHandler22ModulatorEffectHandler21PshifterEffectHandler21VmorpherEffectHandler28DedicatedDialogEffectHandler25DedicatedLfeEffectHandler24ConvolutionEffectHandlerEEEEEEDcT_DpT0_', symObjAddr: 0x3F40, symBinAddr: 0x16B10, symSize: 0x30 }
  - { offset: 0x1465CE, size: 0x8, addend: 0x0, symName: '__ZNSt3__116__variant_detail12__visitation6__base12__dispatcherIJLm1EEE10__dispatchB8fe200100IONS1_9__variant15__value_visitorIZN12_GLOBAL__N_113alGetEffectfvEN3gsl8not_nullIPN2al7ContextEEEjiPfE3$_0EEJRNS0_6__baseILNS0_6_TraitE0EJ17NullEffectHandler19ReverbEffectHandler22StdReverbEffectHandler20AutowahEffectHandler19ChorusEffectHandler23CompressorEffectHandler23DistortionEffectHandler17EchoEffectHandler22EqualizerEffectHandler20FlangerEffectHandler21FshifterEffectHandler22ModulatorEffectHandler21PshifterEffectHandler21VmorpherEffectHandler28DedicatedDialogEffectHandler25DedicatedLfeEffectHandler24ConvolutionEffectHandlerEEEEEEDcT_DpT0_', symObjAddr: 0x3F40, symBinAddr: 0x16B10, symSize: 0x30 }
  - { offset: 0x14677E, size: 0x8, addend: 0x0, symName: '__ZNSt3__116__variant_detail12__visitation6__base12__dispatcherIJLm2EEE10__dispatchB8fe200100IONS1_9__variant15__value_visitorIZN12_GLOBAL__N_113alGetEffectfvEN3gsl8not_nullIPN2al7ContextEEEjiPfE3$_0EEJRNS0_6__baseILNS0_6_TraitE0EJ17NullEffectHandler19ReverbEffectHandler22StdReverbEffectHandler20AutowahEffectHandler19ChorusEffectHandler23CompressorEffectHandler23DistortionEffectHandler17EchoEffectHandler22EqualizerEffectHandler20FlangerEffectHandler21FshifterEffectHandler22ModulatorEffectHandler21PshifterEffectHandler21VmorpherEffectHandler28DedicatedDialogEffectHandler25DedicatedLfeEffectHandler24ConvolutionEffectHandlerEEEEEEDcT_DpT0_', symObjAddr: 0x3F70, symBinAddr: 0x16B40, symSize: 0x30 }
  - { offset: 0x1467B2, size: 0x8, addend: 0x0, symName: '__ZNSt3__116__variant_detail12__visitation6__base12__dispatcherIJLm2EEE10__dispatchB8fe200100IONS1_9__variant15__value_visitorIZN12_GLOBAL__N_113alGetEffectfvEN3gsl8not_nullIPN2al7ContextEEEjiPfE3$_0EEJRNS0_6__baseILNS0_6_TraitE0EJ17NullEffectHandler19ReverbEffectHandler22StdReverbEffectHandler20AutowahEffectHandler19ChorusEffectHandler23CompressorEffectHandler23DistortionEffectHandler17EchoEffectHandler22EqualizerEffectHandler20FlangerEffectHandler21FshifterEffectHandler22ModulatorEffectHandler21PshifterEffectHandler21VmorpherEffectHandler28DedicatedDialogEffectHandler25DedicatedLfeEffectHandler24ConvolutionEffectHandlerEEEEEEDcT_DpT0_', symObjAddr: 0x3F70, symBinAddr: 0x16B40, symSize: 0x30 }
  - { offset: 0x1467D0, size: 0x8, addend: 0x0, symName: '__ZNSt3__116__variant_detail12__visitation6__base12__dispatcherIJLm2EEE10__dispatchB8fe200100IONS1_9__variant15__value_visitorIZN12_GLOBAL__N_113alGetEffectfvEN3gsl8not_nullIPN2al7ContextEEEjiPfE3$_0EEJRNS0_6__baseILNS0_6_TraitE0EJ17NullEffectHandler19ReverbEffectHandler22StdReverbEffectHandler20AutowahEffectHandler19ChorusEffectHandler23CompressorEffectHandler23DistortionEffectHandler17EchoEffectHandler22EqualizerEffectHandler20FlangerEffectHandler21FshifterEffectHandler22ModulatorEffectHandler21PshifterEffectHandler21VmorpherEffectHandler28DedicatedDialogEffectHandler25DedicatedLfeEffectHandler24ConvolutionEffectHandlerEEEEEEDcT_DpT0_', symObjAddr: 0x3F70, symBinAddr: 0x16B40, symSize: 0x30 }
  - { offset: 0x146980, size: 0x8, addend: 0x0, symName: '__ZNSt3__116__variant_detail12__visitation6__base12__dispatcherIJLm3EEE10__dispatchB8fe200100IONS1_9__variant15__value_visitorIZN12_GLOBAL__N_113alGetEffectfvEN3gsl8not_nullIPN2al7ContextEEEjiPfE3$_0EEJRNS0_6__baseILNS0_6_TraitE0EJ17NullEffectHandler19ReverbEffectHandler22StdReverbEffectHandler20AutowahEffectHandler19ChorusEffectHandler23CompressorEffectHandler23DistortionEffectHandler17EchoEffectHandler22EqualizerEffectHandler20FlangerEffectHandler21FshifterEffectHandler22ModulatorEffectHandler21PshifterEffectHandler21VmorpherEffectHandler28DedicatedDialogEffectHandler25DedicatedLfeEffectHandler24ConvolutionEffectHandlerEEEEEEDcT_DpT0_', symObjAddr: 0x3FA0, symBinAddr: 0x16B70, symSize: 0x30 }
  - { offset: 0x1469B4, size: 0x8, addend: 0x0, symName: '__ZNSt3__116__variant_detail12__visitation6__base12__dispatcherIJLm3EEE10__dispatchB8fe200100IONS1_9__variant15__value_visitorIZN12_GLOBAL__N_113alGetEffectfvEN3gsl8not_nullIPN2al7ContextEEEjiPfE3$_0EEJRNS0_6__baseILNS0_6_TraitE0EJ17NullEffectHandler19ReverbEffectHandler22StdReverbEffectHandler20AutowahEffectHandler19ChorusEffectHandler23CompressorEffectHandler23DistortionEffectHandler17EchoEffectHandler22EqualizerEffectHandler20FlangerEffectHandler21FshifterEffectHandler22ModulatorEffectHandler21PshifterEffectHandler21VmorpherEffectHandler28DedicatedDialogEffectHandler25DedicatedLfeEffectHandler24ConvolutionEffectHandlerEEEEEEDcT_DpT0_', symObjAddr: 0x3FA0, symBinAddr: 0x16B70, symSize: 0x30 }
  - { offset: 0x1469D2, size: 0x8, addend: 0x0, symName: '__ZNSt3__116__variant_detail12__visitation6__base12__dispatcherIJLm3EEE10__dispatchB8fe200100IONS1_9__variant15__value_visitorIZN12_GLOBAL__N_113alGetEffectfvEN3gsl8not_nullIPN2al7ContextEEEjiPfE3$_0EEJRNS0_6__baseILNS0_6_TraitE0EJ17NullEffectHandler19ReverbEffectHandler22StdReverbEffectHandler20AutowahEffectHandler19ChorusEffectHandler23CompressorEffectHandler23DistortionEffectHandler17EchoEffectHandler22EqualizerEffectHandler20FlangerEffectHandler21FshifterEffectHandler22ModulatorEffectHandler21PshifterEffectHandler21VmorpherEffectHandler28DedicatedDialogEffectHandler25DedicatedLfeEffectHandler24ConvolutionEffectHandlerEEEEEEDcT_DpT0_', symObjAddr: 0x3FA0, symBinAddr: 0x16B70, symSize: 0x30 }
  - { offset: 0x146B82, size: 0x8, addend: 0x0, symName: '__ZNSt3__116__variant_detail12__visitation6__base12__dispatcherIJLm4EEE10__dispatchB8fe200100IONS1_9__variant15__value_visitorIZN12_GLOBAL__N_113alGetEffectfvEN3gsl8not_nullIPN2al7ContextEEEjiPfE3$_0EEJRNS0_6__baseILNS0_6_TraitE0EJ17NullEffectHandler19ReverbEffectHandler22StdReverbEffectHandler20AutowahEffectHandler19ChorusEffectHandler23CompressorEffectHandler23DistortionEffectHandler17EchoEffectHandler22EqualizerEffectHandler20FlangerEffectHandler21FshifterEffectHandler22ModulatorEffectHandler21PshifterEffectHandler21VmorpherEffectHandler28DedicatedDialogEffectHandler25DedicatedLfeEffectHandler24ConvolutionEffectHandlerEEEEEEDcT_DpT0_', symObjAddr: 0x3FD0, symBinAddr: 0x16BA0, symSize: 0x30 }
  - { offset: 0x146BB6, size: 0x8, addend: 0x0, symName: '__ZNSt3__116__variant_detail12__visitation6__base12__dispatcherIJLm4EEE10__dispatchB8fe200100IONS1_9__variant15__value_visitorIZN12_GLOBAL__N_113alGetEffectfvEN3gsl8not_nullIPN2al7ContextEEEjiPfE3$_0EEJRNS0_6__baseILNS0_6_TraitE0EJ17NullEffectHandler19ReverbEffectHandler22StdReverbEffectHandler20AutowahEffectHandler19ChorusEffectHandler23CompressorEffectHandler23DistortionEffectHandler17EchoEffectHandler22EqualizerEffectHandler20FlangerEffectHandler21FshifterEffectHandler22ModulatorEffectHandler21PshifterEffectHandler21VmorpherEffectHandler28DedicatedDialogEffectHandler25DedicatedLfeEffectHandler24ConvolutionEffectHandlerEEEEEEDcT_DpT0_', symObjAddr: 0x3FD0, symBinAddr: 0x16BA0, symSize: 0x30 }
  - { offset: 0x146BD4, size: 0x8, addend: 0x0, symName: '__ZNSt3__116__variant_detail12__visitation6__base12__dispatcherIJLm4EEE10__dispatchB8fe200100IONS1_9__variant15__value_visitorIZN12_GLOBAL__N_113alGetEffectfvEN3gsl8not_nullIPN2al7ContextEEEjiPfE3$_0EEJRNS0_6__baseILNS0_6_TraitE0EJ17NullEffectHandler19ReverbEffectHandler22StdReverbEffectHandler20AutowahEffectHandler19ChorusEffectHandler23CompressorEffectHandler23DistortionEffectHandler17EchoEffectHandler22EqualizerEffectHandler20FlangerEffectHandler21FshifterEffectHandler22ModulatorEffectHandler21PshifterEffectHandler21VmorpherEffectHandler28DedicatedDialogEffectHandler25DedicatedLfeEffectHandler24ConvolutionEffectHandlerEEEEEEDcT_DpT0_', symObjAddr: 0x3FD0, symBinAddr: 0x16BA0, symSize: 0x30 }
  - { offset: 0x146D84, size: 0x8, addend: 0x0, symName: '__ZNSt3__116__variant_detail12__visitation6__base12__dispatcherIJLm5EEE10__dispatchB8fe200100IONS1_9__variant15__value_visitorIZN12_GLOBAL__N_113alGetEffectfvEN3gsl8not_nullIPN2al7ContextEEEjiPfE3$_0EEJRNS0_6__baseILNS0_6_TraitE0EJ17NullEffectHandler19ReverbEffectHandler22StdReverbEffectHandler20AutowahEffectHandler19ChorusEffectHandler23CompressorEffectHandler23DistortionEffectHandler17EchoEffectHandler22EqualizerEffectHandler20FlangerEffectHandler21FshifterEffectHandler22ModulatorEffectHandler21PshifterEffectHandler21VmorpherEffectHandler28DedicatedDialogEffectHandler25DedicatedLfeEffectHandler24ConvolutionEffectHandlerEEEEEEDcT_DpT0_', symObjAddr: 0x4000, symBinAddr: 0x16BD0, symSize: 0x30 }
  - { offset: 0x146DB8, size: 0x8, addend: 0x0, symName: '__ZNSt3__116__variant_detail12__visitation6__base12__dispatcherIJLm5EEE10__dispatchB8fe200100IONS1_9__variant15__value_visitorIZN12_GLOBAL__N_113alGetEffectfvEN3gsl8not_nullIPN2al7ContextEEEjiPfE3$_0EEJRNS0_6__baseILNS0_6_TraitE0EJ17NullEffectHandler19ReverbEffectHandler22StdReverbEffectHandler20AutowahEffectHandler19ChorusEffectHandler23CompressorEffectHandler23DistortionEffectHandler17EchoEffectHandler22EqualizerEffectHandler20FlangerEffectHandler21FshifterEffectHandler22ModulatorEffectHandler21PshifterEffectHandler21VmorpherEffectHandler28DedicatedDialogEffectHandler25DedicatedLfeEffectHandler24ConvolutionEffectHandlerEEEEEEDcT_DpT0_', symObjAddr: 0x4000, symBinAddr: 0x16BD0, symSize: 0x30 }
  - { offset: 0x146DD6, size: 0x8, addend: 0x0, symName: '__ZNSt3__116__variant_detail12__visitation6__base12__dispatcherIJLm5EEE10__dispatchB8fe200100IONS1_9__variant15__value_visitorIZN12_GLOBAL__N_113alGetEffectfvEN3gsl8not_nullIPN2al7ContextEEEjiPfE3$_0EEJRNS0_6__baseILNS0_6_TraitE0EJ17NullEffectHandler19ReverbEffectHandler22StdReverbEffectHandler20AutowahEffectHandler19ChorusEffectHandler23CompressorEffectHandler23DistortionEffectHandler17EchoEffectHandler22EqualizerEffectHandler20FlangerEffectHandler21FshifterEffectHandler22ModulatorEffectHandler21PshifterEffectHandler21VmorpherEffectHandler28DedicatedDialogEffectHandler25DedicatedLfeEffectHandler24ConvolutionEffectHandlerEEEEEEDcT_DpT0_', symObjAddr: 0x4000, symBinAddr: 0x16BD0, symSize: 0x30 }
  - { offset: 0x146F86, size: 0x8, addend: 0x0, symName: '__ZNSt3__116__variant_detail12__visitation6__base12__dispatcherIJLm6EEE10__dispatchB8fe200100IONS1_9__variant15__value_visitorIZN12_GLOBAL__N_113alGetEffectfvEN3gsl8not_nullIPN2al7ContextEEEjiPfE3$_0EEJRNS0_6__baseILNS0_6_TraitE0EJ17NullEffectHandler19ReverbEffectHandler22StdReverbEffectHandler20AutowahEffectHandler19ChorusEffectHandler23CompressorEffectHandler23DistortionEffectHandler17EchoEffectHandler22EqualizerEffectHandler20FlangerEffectHandler21FshifterEffectHandler22ModulatorEffectHandler21PshifterEffectHandler21VmorpherEffectHandler28DedicatedDialogEffectHandler25DedicatedLfeEffectHandler24ConvolutionEffectHandlerEEEEEEDcT_DpT0_', symObjAddr: 0x4030, symBinAddr: 0x16C00, symSize: 0x30 }
  - { offset: 0x146FBA, size: 0x8, addend: 0x0, symName: '__ZNSt3__116__variant_detail12__visitation6__base12__dispatcherIJLm6EEE10__dispatchB8fe200100IONS1_9__variant15__value_visitorIZN12_GLOBAL__N_113alGetEffectfvEN3gsl8not_nullIPN2al7ContextEEEjiPfE3$_0EEJRNS0_6__baseILNS0_6_TraitE0EJ17NullEffectHandler19ReverbEffectHandler22StdReverbEffectHandler20AutowahEffectHandler19ChorusEffectHandler23CompressorEffectHandler23DistortionEffectHandler17EchoEffectHandler22EqualizerEffectHandler20FlangerEffectHandler21FshifterEffectHandler22ModulatorEffectHandler21PshifterEffectHandler21VmorpherEffectHandler28DedicatedDialogEffectHandler25DedicatedLfeEffectHandler24ConvolutionEffectHandlerEEEEEEDcT_DpT0_', symObjAddr: 0x4030, symBinAddr: 0x16C00, symSize: 0x30 }
  - { offset: 0x146FD8, size: 0x8, addend: 0x0, symName: '__ZNSt3__116__variant_detail12__visitation6__base12__dispatcherIJLm6EEE10__dispatchB8fe200100IONS1_9__variant15__value_visitorIZN12_GLOBAL__N_113alGetEffectfvEN3gsl8not_nullIPN2al7ContextEEEjiPfE3$_0EEJRNS0_6__baseILNS0_6_TraitE0EJ17NullEffectHandler19ReverbEffectHandler22StdReverbEffectHandler20AutowahEffectHandler19ChorusEffectHandler23CompressorEffectHandler23DistortionEffectHandler17EchoEffectHandler22EqualizerEffectHandler20FlangerEffectHandler21FshifterEffectHandler22ModulatorEffectHandler21PshifterEffectHandler21VmorpherEffectHandler28DedicatedDialogEffectHandler25DedicatedLfeEffectHandler24ConvolutionEffectHandlerEEEEEEDcT_DpT0_', symObjAddr: 0x4030, symBinAddr: 0x16C00, symSize: 0x30 }
  - { offset: 0x147188, size: 0x8, addend: 0x0, symName: '__ZNSt3__116__variant_detail12__visitation6__base12__dispatcherIJLm7EEE10__dispatchB8fe200100IONS1_9__variant15__value_visitorIZN12_GLOBAL__N_113alGetEffectfvEN3gsl8not_nullIPN2al7ContextEEEjiPfE3$_0EEJRNS0_6__baseILNS0_6_TraitE0EJ17NullEffectHandler19ReverbEffectHandler22StdReverbEffectHandler20AutowahEffectHandler19ChorusEffectHandler23CompressorEffectHandler23DistortionEffectHandler17EchoEffectHandler22EqualizerEffectHandler20FlangerEffectHandler21FshifterEffectHandler22ModulatorEffectHandler21PshifterEffectHandler21VmorpherEffectHandler28DedicatedDialogEffectHandler25DedicatedLfeEffectHandler24ConvolutionEffectHandlerEEEEEEDcT_DpT0_', symObjAddr: 0x4060, symBinAddr: 0x16C30, symSize: 0x30 }
  - { offset: 0x1471BC, size: 0x8, addend: 0x0, symName: '__ZNSt3__116__variant_detail12__visitation6__base12__dispatcherIJLm7EEE10__dispatchB8fe200100IONS1_9__variant15__value_visitorIZN12_GLOBAL__N_113alGetEffectfvEN3gsl8not_nullIPN2al7ContextEEEjiPfE3$_0EEJRNS0_6__baseILNS0_6_TraitE0EJ17NullEffectHandler19ReverbEffectHandler22StdReverbEffectHandler20AutowahEffectHandler19ChorusEffectHandler23CompressorEffectHandler23DistortionEffectHandler17EchoEffectHandler22EqualizerEffectHandler20FlangerEffectHandler21FshifterEffectHandler22ModulatorEffectHandler21PshifterEffectHandler21VmorpherEffectHandler28DedicatedDialogEffectHandler25DedicatedLfeEffectHandler24ConvolutionEffectHandlerEEEEEEDcT_DpT0_', symObjAddr: 0x4060, symBinAddr: 0x16C30, symSize: 0x30 }
  - { offset: 0x1471DA, size: 0x8, addend: 0x0, symName: '__ZNSt3__116__variant_detail12__visitation6__base12__dispatcherIJLm7EEE10__dispatchB8fe200100IONS1_9__variant15__value_visitorIZN12_GLOBAL__N_113alGetEffectfvEN3gsl8not_nullIPN2al7ContextEEEjiPfE3$_0EEJRNS0_6__baseILNS0_6_TraitE0EJ17NullEffectHandler19ReverbEffectHandler22StdReverbEffectHandler20AutowahEffectHandler19ChorusEffectHandler23CompressorEffectHandler23DistortionEffectHandler17EchoEffectHandler22EqualizerEffectHandler20FlangerEffectHandler21FshifterEffectHandler22ModulatorEffectHandler21PshifterEffectHandler21VmorpherEffectHandler28DedicatedDialogEffectHandler25DedicatedLfeEffectHandler24ConvolutionEffectHandlerEEEEEEDcT_DpT0_', symObjAddr: 0x4060, symBinAddr: 0x16C30, symSize: 0x30 }
  - { offset: 0x14738A, size: 0x8, addend: 0x0, symName: '__ZNSt3__116__variant_detail12__visitation6__base12__dispatcherIJLm8EEE10__dispatchB8fe200100IONS1_9__variant15__value_visitorIZN12_GLOBAL__N_113alGetEffectfvEN3gsl8not_nullIPN2al7ContextEEEjiPfE3$_0EEJRNS0_6__baseILNS0_6_TraitE0EJ17NullEffectHandler19ReverbEffectHandler22StdReverbEffectHandler20AutowahEffectHandler19ChorusEffectHandler23CompressorEffectHandler23DistortionEffectHandler17EchoEffectHandler22EqualizerEffectHandler20FlangerEffectHandler21FshifterEffectHandler22ModulatorEffectHandler21PshifterEffectHandler21VmorpherEffectHandler28DedicatedDialogEffectHandler25DedicatedLfeEffectHandler24ConvolutionEffectHandlerEEEEEEDcT_DpT0_', symObjAddr: 0x4090, symBinAddr: 0x16C60, symSize: 0x30 }
  - { offset: 0x1473BE, size: 0x8, addend: 0x0, symName: '__ZNSt3__116__variant_detail12__visitation6__base12__dispatcherIJLm8EEE10__dispatchB8fe200100IONS1_9__variant15__value_visitorIZN12_GLOBAL__N_113alGetEffectfvEN3gsl8not_nullIPN2al7ContextEEEjiPfE3$_0EEJRNS0_6__baseILNS0_6_TraitE0EJ17NullEffectHandler19ReverbEffectHandler22StdReverbEffectHandler20AutowahEffectHandler19ChorusEffectHandler23CompressorEffectHandler23DistortionEffectHandler17EchoEffectHandler22EqualizerEffectHandler20FlangerEffectHandler21FshifterEffectHandler22ModulatorEffectHandler21PshifterEffectHandler21VmorpherEffectHandler28DedicatedDialogEffectHandler25DedicatedLfeEffectHandler24ConvolutionEffectHandlerEEEEEEDcT_DpT0_', symObjAddr: 0x4090, symBinAddr: 0x16C60, symSize: 0x30 }
  - { offset: 0x1473DC, size: 0x8, addend: 0x0, symName: '__ZNSt3__116__variant_detail12__visitation6__base12__dispatcherIJLm8EEE10__dispatchB8fe200100IONS1_9__variant15__value_visitorIZN12_GLOBAL__N_113alGetEffectfvEN3gsl8not_nullIPN2al7ContextEEEjiPfE3$_0EEJRNS0_6__baseILNS0_6_TraitE0EJ17NullEffectHandler19ReverbEffectHandler22StdReverbEffectHandler20AutowahEffectHandler19ChorusEffectHandler23CompressorEffectHandler23DistortionEffectHandler17EchoEffectHandler22EqualizerEffectHandler20FlangerEffectHandler21FshifterEffectHandler22ModulatorEffectHandler21PshifterEffectHandler21VmorpherEffectHandler28DedicatedDialogEffectHandler25DedicatedLfeEffectHandler24ConvolutionEffectHandlerEEEEEEDcT_DpT0_', symObjAddr: 0x4090, symBinAddr: 0x16C60, symSize: 0x30 }
  - { offset: 0x14758C, size: 0x8, addend: 0x0, symName: '__ZNSt3__116__variant_detail12__visitation6__base12__dispatcherIJLm9EEE10__dispatchB8fe200100IONS1_9__variant15__value_visitorIZN12_GLOBAL__N_113alGetEffectfvEN3gsl8not_nullIPN2al7ContextEEEjiPfE3$_0EEJRNS0_6__baseILNS0_6_TraitE0EJ17NullEffectHandler19ReverbEffectHandler22StdReverbEffectHandler20AutowahEffectHandler19ChorusEffectHandler23CompressorEffectHandler23DistortionEffectHandler17EchoEffectHandler22EqualizerEffectHandler20FlangerEffectHandler21FshifterEffectHandler22ModulatorEffectHandler21PshifterEffectHandler21VmorpherEffectHandler28DedicatedDialogEffectHandler25DedicatedLfeEffectHandler24ConvolutionEffectHandlerEEEEEEDcT_DpT0_', symObjAddr: 0x40C0, symBinAddr: 0x16C90, symSize: 0x30 }
  - { offset: 0x1475C0, size: 0x8, addend: 0x0, symName: '__ZNSt3__116__variant_detail12__visitation6__base12__dispatcherIJLm9EEE10__dispatchB8fe200100IONS1_9__variant15__value_visitorIZN12_GLOBAL__N_113alGetEffectfvEN3gsl8not_nullIPN2al7ContextEEEjiPfE3$_0EEJRNS0_6__baseILNS0_6_TraitE0EJ17NullEffectHandler19ReverbEffectHandler22StdReverbEffectHandler20AutowahEffectHandler19ChorusEffectHandler23CompressorEffectHandler23DistortionEffectHandler17EchoEffectHandler22EqualizerEffectHandler20FlangerEffectHandler21FshifterEffectHandler22ModulatorEffectHandler21PshifterEffectHandler21VmorpherEffectHandler28DedicatedDialogEffectHandler25DedicatedLfeEffectHandler24ConvolutionEffectHandlerEEEEEEDcT_DpT0_', symObjAddr: 0x40C0, symBinAddr: 0x16C90, symSize: 0x30 }
  - { offset: 0x1475DE, size: 0x8, addend: 0x0, symName: '__ZNSt3__116__variant_detail12__visitation6__base12__dispatcherIJLm9EEE10__dispatchB8fe200100IONS1_9__variant15__value_visitorIZN12_GLOBAL__N_113alGetEffectfvEN3gsl8not_nullIPN2al7ContextEEEjiPfE3$_0EEJRNS0_6__baseILNS0_6_TraitE0EJ17NullEffectHandler19ReverbEffectHandler22StdReverbEffectHandler20AutowahEffectHandler19ChorusEffectHandler23CompressorEffectHandler23DistortionEffectHandler17EchoEffectHandler22EqualizerEffectHandler20FlangerEffectHandler21FshifterEffectHandler22ModulatorEffectHandler21PshifterEffectHandler21VmorpherEffectHandler28DedicatedDialogEffectHandler25DedicatedLfeEffectHandler24ConvolutionEffectHandlerEEEEEEDcT_DpT0_', symObjAddr: 0x40C0, symBinAddr: 0x16C90, symSize: 0x30 }
  - { offset: 0x14778E, size: 0x8, addend: 0x0, symName: '__ZNSt3__116__variant_detail12__visitation6__base12__dispatcherIJLm10EEE10__dispatchB8fe200100IONS1_9__variant15__value_visitorIZN12_GLOBAL__N_113alGetEffectfvEN3gsl8not_nullIPN2al7ContextEEEjiPfE3$_0EEJRNS0_6__baseILNS0_6_TraitE0EJ17NullEffectHandler19ReverbEffectHandler22StdReverbEffectHandler20AutowahEffectHandler19ChorusEffectHandler23CompressorEffectHandler23DistortionEffectHandler17EchoEffectHandler22EqualizerEffectHandler20FlangerEffectHandler21FshifterEffectHandler22ModulatorEffectHandler21PshifterEffectHandler21VmorpherEffectHandler28DedicatedDialogEffectHandler25DedicatedLfeEffectHandler24ConvolutionEffectHandlerEEEEEEDcT_DpT0_', symObjAddr: 0x40F0, symBinAddr: 0x16CC0, symSize: 0x30 }
  - { offset: 0x1477C2, size: 0x8, addend: 0x0, symName: '__ZNSt3__116__variant_detail12__visitation6__base12__dispatcherIJLm10EEE10__dispatchB8fe200100IONS1_9__variant15__value_visitorIZN12_GLOBAL__N_113alGetEffectfvEN3gsl8not_nullIPN2al7ContextEEEjiPfE3$_0EEJRNS0_6__baseILNS0_6_TraitE0EJ17NullEffectHandler19ReverbEffectHandler22StdReverbEffectHandler20AutowahEffectHandler19ChorusEffectHandler23CompressorEffectHandler23DistortionEffectHandler17EchoEffectHandler22EqualizerEffectHandler20FlangerEffectHandler21FshifterEffectHandler22ModulatorEffectHandler21PshifterEffectHandler21VmorpherEffectHandler28DedicatedDialogEffectHandler25DedicatedLfeEffectHandler24ConvolutionEffectHandlerEEEEEEDcT_DpT0_', symObjAddr: 0x40F0, symBinAddr: 0x16CC0, symSize: 0x30 }
  - { offset: 0x1477E0, size: 0x8, addend: 0x0, symName: '__ZNSt3__116__variant_detail12__visitation6__base12__dispatcherIJLm10EEE10__dispatchB8fe200100IONS1_9__variant15__value_visitorIZN12_GLOBAL__N_113alGetEffectfvEN3gsl8not_nullIPN2al7ContextEEEjiPfE3$_0EEJRNS0_6__baseILNS0_6_TraitE0EJ17NullEffectHandler19ReverbEffectHandler22StdReverbEffectHandler20AutowahEffectHandler19ChorusEffectHandler23CompressorEffectHandler23DistortionEffectHandler17EchoEffectHandler22EqualizerEffectHandler20FlangerEffectHandler21FshifterEffectHandler22ModulatorEffectHandler21PshifterEffectHandler21VmorpherEffectHandler28DedicatedDialogEffectHandler25DedicatedLfeEffectHandler24ConvolutionEffectHandlerEEEEEEDcT_DpT0_', symObjAddr: 0x40F0, symBinAddr: 0x16CC0, symSize: 0x30 }
  - { offset: 0x147990, size: 0x8, addend: 0x0, symName: '__ZNSt3__116__variant_detail12__visitation6__base12__dispatcherIJLm11EEE10__dispatchB8fe200100IONS1_9__variant15__value_visitorIZN12_GLOBAL__N_113alGetEffectfvEN3gsl8not_nullIPN2al7ContextEEEjiPfE3$_0EEJRNS0_6__baseILNS0_6_TraitE0EJ17NullEffectHandler19ReverbEffectHandler22StdReverbEffectHandler20AutowahEffectHandler19ChorusEffectHandler23CompressorEffectHandler23DistortionEffectHandler17EchoEffectHandler22EqualizerEffectHandler20FlangerEffectHandler21FshifterEffectHandler22ModulatorEffectHandler21PshifterEffectHandler21VmorpherEffectHandler28DedicatedDialogEffectHandler25DedicatedLfeEffectHandler24ConvolutionEffectHandlerEEEEEEDcT_DpT0_', symObjAddr: 0x4120, symBinAddr: 0x16CF0, symSize: 0x30 }
  - { offset: 0x1479C4, size: 0x8, addend: 0x0, symName: '__ZNSt3__116__variant_detail12__visitation6__base12__dispatcherIJLm11EEE10__dispatchB8fe200100IONS1_9__variant15__value_visitorIZN12_GLOBAL__N_113alGetEffectfvEN3gsl8not_nullIPN2al7ContextEEEjiPfE3$_0EEJRNS0_6__baseILNS0_6_TraitE0EJ17NullEffectHandler19ReverbEffectHandler22StdReverbEffectHandler20AutowahEffectHandler19ChorusEffectHandler23CompressorEffectHandler23DistortionEffectHandler17EchoEffectHandler22EqualizerEffectHandler20FlangerEffectHandler21FshifterEffectHandler22ModulatorEffectHandler21PshifterEffectHandler21VmorpherEffectHandler28DedicatedDialogEffectHandler25DedicatedLfeEffectHandler24ConvolutionEffectHandlerEEEEEEDcT_DpT0_', symObjAddr: 0x4120, symBinAddr: 0x16CF0, symSize: 0x30 }
  - { offset: 0x1479E2, size: 0x8, addend: 0x0, symName: '__ZNSt3__116__variant_detail12__visitation6__base12__dispatcherIJLm11EEE10__dispatchB8fe200100IONS1_9__variant15__value_visitorIZN12_GLOBAL__N_113alGetEffectfvEN3gsl8not_nullIPN2al7ContextEEEjiPfE3$_0EEJRNS0_6__baseILNS0_6_TraitE0EJ17NullEffectHandler19ReverbEffectHandler22StdReverbEffectHandler20AutowahEffectHandler19ChorusEffectHandler23CompressorEffectHandler23DistortionEffectHandler17EchoEffectHandler22EqualizerEffectHandler20FlangerEffectHandler21FshifterEffectHandler22ModulatorEffectHandler21PshifterEffectHandler21VmorpherEffectHandler28DedicatedDialogEffectHandler25DedicatedLfeEffectHandler24ConvolutionEffectHandlerEEEEEEDcT_DpT0_', symObjAddr: 0x4120, symBinAddr: 0x16CF0, symSize: 0x30 }
  - { offset: 0x147B92, size: 0x8, addend: 0x0, symName: '__ZNSt3__116__variant_detail12__visitation6__base12__dispatcherIJLm12EEE10__dispatchB8fe200100IONS1_9__variant15__value_visitorIZN12_GLOBAL__N_113alGetEffectfvEN3gsl8not_nullIPN2al7ContextEEEjiPfE3$_0EEJRNS0_6__baseILNS0_6_TraitE0EJ17NullEffectHandler19ReverbEffectHandler22StdReverbEffectHandler20AutowahEffectHandler19ChorusEffectHandler23CompressorEffectHandler23DistortionEffectHandler17EchoEffectHandler22EqualizerEffectHandler20FlangerEffectHandler21FshifterEffectHandler22ModulatorEffectHandler21PshifterEffectHandler21VmorpherEffectHandler28DedicatedDialogEffectHandler25DedicatedLfeEffectHandler24ConvolutionEffectHandlerEEEEEEDcT_DpT0_', symObjAddr: 0x4150, symBinAddr: 0x16D20, symSize: 0x30 }
  - { offset: 0x147BC6, size: 0x8, addend: 0x0, symName: '__ZNSt3__116__variant_detail12__visitation6__base12__dispatcherIJLm12EEE10__dispatchB8fe200100IONS1_9__variant15__value_visitorIZN12_GLOBAL__N_113alGetEffectfvEN3gsl8not_nullIPN2al7ContextEEEjiPfE3$_0EEJRNS0_6__baseILNS0_6_TraitE0EJ17NullEffectHandler19ReverbEffectHandler22StdReverbEffectHandler20AutowahEffectHandler19ChorusEffectHandler23CompressorEffectHandler23DistortionEffectHandler17EchoEffectHandler22EqualizerEffectHandler20FlangerEffectHandler21FshifterEffectHandler22ModulatorEffectHandler21PshifterEffectHandler21VmorpherEffectHandler28DedicatedDialogEffectHandler25DedicatedLfeEffectHandler24ConvolutionEffectHandlerEEEEEEDcT_DpT0_', symObjAddr: 0x4150, symBinAddr: 0x16D20, symSize: 0x30 }
  - { offset: 0x147BE4, size: 0x8, addend: 0x0, symName: '__ZNSt3__116__variant_detail12__visitation6__base12__dispatcherIJLm12EEE10__dispatchB8fe200100IONS1_9__variant15__value_visitorIZN12_GLOBAL__N_113alGetEffectfvEN3gsl8not_nullIPN2al7ContextEEEjiPfE3$_0EEJRNS0_6__baseILNS0_6_TraitE0EJ17NullEffectHandler19ReverbEffectHandler22StdReverbEffectHandler20AutowahEffectHandler19ChorusEffectHandler23CompressorEffectHandler23DistortionEffectHandler17EchoEffectHandler22EqualizerEffectHandler20FlangerEffectHandler21FshifterEffectHandler22ModulatorEffectHandler21PshifterEffectHandler21VmorpherEffectHandler28DedicatedDialogEffectHandler25DedicatedLfeEffectHandler24ConvolutionEffectHandlerEEEEEEDcT_DpT0_', symObjAddr: 0x4150, symBinAddr: 0x16D20, symSize: 0x30 }
  - { offset: 0x147D94, size: 0x8, addend: 0x0, symName: '__ZNSt3__116__variant_detail12__visitation6__base12__dispatcherIJLm13EEE10__dispatchB8fe200100IONS1_9__variant15__value_visitorIZN12_GLOBAL__N_113alGetEffectfvEN3gsl8not_nullIPN2al7ContextEEEjiPfE3$_0EEJRNS0_6__baseILNS0_6_TraitE0EJ17NullEffectHandler19ReverbEffectHandler22StdReverbEffectHandler20AutowahEffectHandler19ChorusEffectHandler23CompressorEffectHandler23DistortionEffectHandler17EchoEffectHandler22EqualizerEffectHandler20FlangerEffectHandler21FshifterEffectHandler22ModulatorEffectHandler21PshifterEffectHandler21VmorpherEffectHandler28DedicatedDialogEffectHandler25DedicatedLfeEffectHandler24ConvolutionEffectHandlerEEEEEEDcT_DpT0_', symObjAddr: 0x4180, symBinAddr: 0x16D50, symSize: 0x30 }
  - { offset: 0x147DC8, size: 0x8, addend: 0x0, symName: '__ZNSt3__116__variant_detail12__visitation6__base12__dispatcherIJLm13EEE10__dispatchB8fe200100IONS1_9__variant15__value_visitorIZN12_GLOBAL__N_113alGetEffectfvEN3gsl8not_nullIPN2al7ContextEEEjiPfE3$_0EEJRNS0_6__baseILNS0_6_TraitE0EJ17NullEffectHandler19ReverbEffectHandler22StdReverbEffectHandler20AutowahEffectHandler19ChorusEffectHandler23CompressorEffectHandler23DistortionEffectHandler17EchoEffectHandler22EqualizerEffectHandler20FlangerEffectHandler21FshifterEffectHandler22ModulatorEffectHandler21PshifterEffectHandler21VmorpherEffectHandler28DedicatedDialogEffectHandler25DedicatedLfeEffectHandler24ConvolutionEffectHandlerEEEEEEDcT_DpT0_', symObjAddr: 0x4180, symBinAddr: 0x16D50, symSize: 0x30 }
  - { offset: 0x147DE6, size: 0x8, addend: 0x0, symName: '__ZNSt3__116__variant_detail12__visitation6__base12__dispatcherIJLm13EEE10__dispatchB8fe200100IONS1_9__variant15__value_visitorIZN12_GLOBAL__N_113alGetEffectfvEN3gsl8not_nullIPN2al7ContextEEEjiPfE3$_0EEJRNS0_6__baseILNS0_6_TraitE0EJ17NullEffectHandler19ReverbEffectHandler22StdReverbEffectHandler20AutowahEffectHandler19ChorusEffectHandler23CompressorEffectHandler23DistortionEffectHandler17EchoEffectHandler22EqualizerEffectHandler20FlangerEffectHandler21FshifterEffectHandler22ModulatorEffectHandler21PshifterEffectHandler21VmorpherEffectHandler28DedicatedDialogEffectHandler25DedicatedLfeEffectHandler24ConvolutionEffectHandlerEEEEEEDcT_DpT0_', symObjAddr: 0x4180, symBinAddr: 0x16D50, symSize: 0x30 }
  - { offset: 0x147F96, size: 0x8, addend: 0x0, symName: '__ZNSt3__116__variant_detail12__visitation6__base12__dispatcherIJLm14EEE10__dispatchB8fe200100IONS1_9__variant15__value_visitorIZN12_GLOBAL__N_113alGetEffectfvEN3gsl8not_nullIPN2al7ContextEEEjiPfE3$_0EEJRNS0_6__baseILNS0_6_TraitE0EJ17NullEffectHandler19ReverbEffectHandler22StdReverbEffectHandler20AutowahEffectHandler19ChorusEffectHandler23CompressorEffectHandler23DistortionEffectHandler17EchoEffectHandler22EqualizerEffectHandler20FlangerEffectHandler21FshifterEffectHandler22ModulatorEffectHandler21PshifterEffectHandler21VmorpherEffectHandler28DedicatedDialogEffectHandler25DedicatedLfeEffectHandler24ConvolutionEffectHandlerEEEEEEDcT_DpT0_', symObjAddr: 0x41B0, symBinAddr: 0x16D80, symSize: 0x30 }
  - { offset: 0x147FCA, size: 0x8, addend: 0x0, symName: '__ZNSt3__116__variant_detail12__visitation6__base12__dispatcherIJLm14EEE10__dispatchB8fe200100IONS1_9__variant15__value_visitorIZN12_GLOBAL__N_113alGetEffectfvEN3gsl8not_nullIPN2al7ContextEEEjiPfE3$_0EEJRNS0_6__baseILNS0_6_TraitE0EJ17NullEffectHandler19ReverbEffectHandler22StdReverbEffectHandler20AutowahEffectHandler19ChorusEffectHandler23CompressorEffectHandler23DistortionEffectHandler17EchoEffectHandler22EqualizerEffectHandler20FlangerEffectHandler21FshifterEffectHandler22ModulatorEffectHandler21PshifterEffectHandler21VmorpherEffectHandler28DedicatedDialogEffectHandler25DedicatedLfeEffectHandler24ConvolutionEffectHandlerEEEEEEDcT_DpT0_', symObjAddr: 0x41B0, symBinAddr: 0x16D80, symSize: 0x30 }
  - { offset: 0x147FE8, size: 0x8, addend: 0x0, symName: '__ZNSt3__116__variant_detail12__visitation6__base12__dispatcherIJLm14EEE10__dispatchB8fe200100IONS1_9__variant15__value_visitorIZN12_GLOBAL__N_113alGetEffectfvEN3gsl8not_nullIPN2al7ContextEEEjiPfE3$_0EEJRNS0_6__baseILNS0_6_TraitE0EJ17NullEffectHandler19ReverbEffectHandler22StdReverbEffectHandler20AutowahEffectHandler19ChorusEffectHandler23CompressorEffectHandler23DistortionEffectHandler17EchoEffectHandler22EqualizerEffectHandler20FlangerEffectHandler21FshifterEffectHandler22ModulatorEffectHandler21PshifterEffectHandler21VmorpherEffectHandler28DedicatedDialogEffectHandler25DedicatedLfeEffectHandler24ConvolutionEffectHandlerEEEEEEDcT_DpT0_', symObjAddr: 0x41B0, symBinAddr: 0x16D80, symSize: 0x30 }
  - { offset: 0x148198, size: 0x8, addend: 0x0, symName: '__ZNSt3__116__variant_detail12__visitation6__base12__dispatcherIJLm15EEE10__dispatchB8fe200100IONS1_9__variant15__value_visitorIZN12_GLOBAL__N_113alGetEffectfvEN3gsl8not_nullIPN2al7ContextEEEjiPfE3$_0EEJRNS0_6__baseILNS0_6_TraitE0EJ17NullEffectHandler19ReverbEffectHandler22StdReverbEffectHandler20AutowahEffectHandler19ChorusEffectHandler23CompressorEffectHandler23DistortionEffectHandler17EchoEffectHandler22EqualizerEffectHandler20FlangerEffectHandler21FshifterEffectHandler22ModulatorEffectHandler21PshifterEffectHandler21VmorpherEffectHandler28DedicatedDialogEffectHandler25DedicatedLfeEffectHandler24ConvolutionEffectHandlerEEEEEEDcT_DpT0_', symObjAddr: 0x41E0, symBinAddr: 0x16DB0, symSize: 0x30 }
  - { offset: 0x1481CC, size: 0x8, addend: 0x0, symName: '__ZNSt3__116__variant_detail12__visitation6__base12__dispatcherIJLm15EEE10__dispatchB8fe200100IONS1_9__variant15__value_visitorIZN12_GLOBAL__N_113alGetEffectfvEN3gsl8not_nullIPN2al7ContextEEEjiPfE3$_0EEJRNS0_6__baseILNS0_6_TraitE0EJ17NullEffectHandler19ReverbEffectHandler22StdReverbEffectHandler20AutowahEffectHandler19ChorusEffectHandler23CompressorEffectHandler23DistortionEffectHandler17EchoEffectHandler22EqualizerEffectHandler20FlangerEffectHandler21FshifterEffectHandler22ModulatorEffectHandler21PshifterEffectHandler21VmorpherEffectHandler28DedicatedDialogEffectHandler25DedicatedLfeEffectHandler24ConvolutionEffectHandlerEEEEEEDcT_DpT0_', symObjAddr: 0x41E0, symBinAddr: 0x16DB0, symSize: 0x30 }
  - { offset: 0x1481EA, size: 0x8, addend: 0x0, symName: '__ZNSt3__116__variant_detail12__visitation6__base12__dispatcherIJLm15EEE10__dispatchB8fe200100IONS1_9__variant15__value_visitorIZN12_GLOBAL__N_113alGetEffectfvEN3gsl8not_nullIPN2al7ContextEEEjiPfE3$_0EEJRNS0_6__baseILNS0_6_TraitE0EJ17NullEffectHandler19ReverbEffectHandler22StdReverbEffectHandler20AutowahEffectHandler19ChorusEffectHandler23CompressorEffectHandler23DistortionEffectHandler17EchoEffectHandler22EqualizerEffectHandler20FlangerEffectHandler21FshifterEffectHandler22ModulatorEffectHandler21PshifterEffectHandler21VmorpherEffectHandler28DedicatedDialogEffectHandler25DedicatedLfeEffectHandler24ConvolutionEffectHandlerEEEEEEDcT_DpT0_', symObjAddr: 0x41E0, symBinAddr: 0x16DB0, symSize: 0x30 }
  - { offset: 0x14839A, size: 0x8, addend: 0x0, symName: '__ZNSt3__116__variant_detail12__visitation6__base12__dispatcherIJLm16EEE10__dispatchB8fe200100IONS1_9__variant15__value_visitorIZN12_GLOBAL__N_113alGetEffectfvEN3gsl8not_nullIPN2al7ContextEEEjiPfE3$_0EEJRNS0_6__baseILNS0_6_TraitE0EJ17NullEffectHandler19ReverbEffectHandler22StdReverbEffectHandler20AutowahEffectHandler19ChorusEffectHandler23CompressorEffectHandler23DistortionEffectHandler17EchoEffectHandler22EqualizerEffectHandler20FlangerEffectHandler21FshifterEffectHandler22ModulatorEffectHandler21PshifterEffectHandler21VmorpherEffectHandler28DedicatedDialogEffectHandler25DedicatedLfeEffectHandler24ConvolutionEffectHandlerEEEEEEDcT_DpT0_', symObjAddr: 0x4210, symBinAddr: 0x16DE0, symSize: 0x30 }
  - { offset: 0x1483CE, size: 0x8, addend: 0x0, symName: '__ZNSt3__116__variant_detail12__visitation6__base12__dispatcherIJLm16EEE10__dispatchB8fe200100IONS1_9__variant15__value_visitorIZN12_GLOBAL__N_113alGetEffectfvEN3gsl8not_nullIPN2al7ContextEEEjiPfE3$_0EEJRNS0_6__baseILNS0_6_TraitE0EJ17NullEffectHandler19ReverbEffectHandler22StdReverbEffectHandler20AutowahEffectHandler19ChorusEffectHandler23CompressorEffectHandler23DistortionEffectHandler17EchoEffectHandler22EqualizerEffectHandler20FlangerEffectHandler21FshifterEffectHandler22ModulatorEffectHandler21PshifterEffectHandler21VmorpherEffectHandler28DedicatedDialogEffectHandler25DedicatedLfeEffectHandler24ConvolutionEffectHandlerEEEEEEDcT_DpT0_', symObjAddr: 0x4210, symBinAddr: 0x16DE0, symSize: 0x30 }
  - { offset: 0x1483EC, size: 0x8, addend: 0x0, symName: '__ZNSt3__116__variant_detail12__visitation6__base12__dispatcherIJLm16EEE10__dispatchB8fe200100IONS1_9__variant15__value_visitorIZN12_GLOBAL__N_113alGetEffectfvEN3gsl8not_nullIPN2al7ContextEEEjiPfE3$_0EEJRNS0_6__baseILNS0_6_TraitE0EJ17NullEffectHandler19ReverbEffectHandler22StdReverbEffectHandler20AutowahEffectHandler19ChorusEffectHandler23CompressorEffectHandler23DistortionEffectHandler17EchoEffectHandler22EqualizerEffectHandler20FlangerEffectHandler21FshifterEffectHandler22ModulatorEffectHandler21PshifterEffectHandler21VmorpherEffectHandler28DedicatedDialogEffectHandler25DedicatedLfeEffectHandler24ConvolutionEffectHandlerEEEEEEDcT_DpT0_', symObjAddr: 0x4210, symBinAddr: 0x16DE0, symSize: 0x30 }
  - { offset: 0x14853E, size: 0x8, addend: 0x0, symName: __ZNSt12out_of_rangeC1B8fe200100EPKc, symObjAddr: 0x42B0, symBinAddr: 0x16E60, symSize: 0x30 }
  - { offset: 0x14B44F, size: 0x8, addend: 0x0, symName: __ZN20AutowahEffectHandler9SetParamiEPN2al7ContextER12AutowahPropsii, symObjAddr: 0x0, symBinAddr: 0x16E90, symSize: 0x30 }
  - { offset: 0x14B469, size: 0x8, addend: 0x0, symName: _AutowahEffectProps, symObjAddr: 0x310, symBinAddr: 0xCB4F4, symSize: 0x0 }
  - { offset: 0x15A466, size: 0x8, addend: 0x0, symName: __ZN20AutowahEffectHandler9SetParamiEPN2al7ContextER12AutowahPropsii, symObjAddr: 0x0, symBinAddr: 0x16E90, symSize: 0x30 }
  - { offset: 0x15A541, size: 0x8, addend: 0x0, symName: __ZN20AutowahEffectHandler10SetParamivEPN2al7ContextER12AutowahPropsiPKi, symObjAddr: 0x50, symBinAddr: 0x16EC0, symSize: 0x30 }
  - { offset: 0x15A5B9, size: 0x8, addend: 0x0, symName: __ZN20AutowahEffectHandler9SetParamfEPN2al7ContextER12AutowahPropsif, symObjAddr: 0x80, symBinAddr: 0x16EF0, symSize: 0x110 }
  - { offset: 0x15A6BB, size: 0x8, addend: 0x0, symName: __ZN20AutowahEffectHandler10SetParamfvEPN2al7ContextER12AutowahPropsiPKf, symObjAddr: 0x1B0, symBinAddr: 0x17000, symSize: 0x10 }
  - { offset: 0x15A72E, size: 0x8, addend: 0x0, symName: __ZN20AutowahEffectHandler9GetParamiEPN2al7ContextERK12AutowahPropsiPi, symObjAddr: 0x1C0, symBinAddr: 0x17010, symSize: 0x30 }
  - { offset: 0x15A7A6, size: 0x8, addend: 0x0, symName: __ZN20AutowahEffectHandler10GetParamivEPN2al7ContextERK12AutowahPropsiPi, symObjAddr: 0x1F0, symBinAddr: 0x17040, symSize: 0x30 }
  - { offset: 0x15A81E, size: 0x8, addend: 0x0, symName: __ZN20AutowahEffectHandler9GetParamfEPN2al7ContextERK12AutowahPropsiPf, symObjAddr: 0x220, symBinAddr: 0x17070, symSize: 0x70 }
  - { offset: 0x15A8BB, size: 0x8, addend: 0x0, symName: __ZN20AutowahEffectHandler10GetParamfvEPN2al7ContextERK12AutowahPropsiPf, symObjAddr: 0x290, symBinAddr: 0x170E0, symSize: 0x68 }
  - { offset: 0x15C832, size: 0x8, addend: 0x0, symName: __ZN19ChorusEffectHandler9SetParamiEPN2al7ContextER11ChorusPropsii, symObjAddr: 0x0, symBinAddr: 0x17150, symSize: 0x90 }
  - { offset: 0x15C84C, size: 0x8, addend: 0x0, symName: _ChorusEffectProps, symObjAddr: 0x8B8, symBinAddr: 0xCB580, symSize: 0x0 }
  - { offset: 0x169B69, size: 0x8, addend: 0x0, symName: _FlangerEffectProps, symObjAddr: 0x928, symBinAddr: 0xCB5F0, symSize: 0x0 }
  - { offset: 0x169F5C, size: 0x8, addend: 0x0, symName: __ZN12_GLOBAL__N_116EnumFromWaveformE14ChorusWaveform, symObjAddr: 0x320, symBinAddr: 0x17410, symSize: 0xC0 }
  - { offset: 0x16BFBC, size: 0x8, addend: 0x0, symName: __ZN19ChorusEffectHandler9SetParamiEPN2al7ContextER11ChorusPropsii, symObjAddr: 0x0, symBinAddr: 0x17150, symSize: 0x90 }
  - { offset: 0x16C198, size: 0x8, addend: 0x0, symName: __ZN19ChorusEffectHandler10SetParamivEPN2al7ContextER11ChorusPropsiPKi, symObjAddr: 0xD0, symBinAddr: 0x171E0, symSize: 0x90 }
  - { offset: 0x16C2A6, size: 0x8, addend: 0x0, symName: __ZN19ChorusEffectHandler9SetParamfEPN2al7ContextER11ChorusPropsif, symObjAddr: 0x160, symBinAddr: 0x17270, symSize: 0x130 }
  - { offset: 0x16C3DA, size: 0x8, addend: 0x0, symName: __ZN19ChorusEffectHandler10SetParamfvEPN2al7ContextER11ChorusPropsiPKf, symObjAddr: 0x2B0, symBinAddr: 0x173A0, symSize: 0x10 }
  - { offset: 0x16C44D, size: 0x8, addend: 0x0, symName: __ZN19ChorusEffectHandler9GetParamiEPN2al7ContextERK11ChorusPropsiPi, symObjAddr: 0x2C0, symBinAddr: 0x173B0, symSize: 0x60 }
  - { offset: 0x16C631, size: 0x8, addend: 0x0, symName: __ZN19ChorusEffectHandler10GetParamivEPN2al7ContextERK11ChorusPropsiPi, symObjAddr: 0x3E0, symBinAddr: 0x174D0, symSize: 0x60 }
  - { offset: 0x16C6D4, size: 0x8, addend: 0x0, symName: __ZN19ChorusEffectHandler9GetParamfEPN2al7ContextERK11ChorusPropsiPf, symObjAddr: 0x440, symBinAddr: 0x17530, symSize: 0x40 }
  - { offset: 0x16C765, size: 0x8, addend: 0x0, symName: __ZN19ChorusEffectHandler10GetParamfvEPN2al7ContextERK11ChorusPropsiPf, symObjAddr: 0x480, symBinAddr: 0x17570, symSize: 0x40 }
  - { offset: 0x16C7F4, size: 0x8, addend: 0x0, symName: __ZN20FlangerEffectHandler9SetParamiEPN2al7ContextER11ChorusPropsii, symObjAddr: 0x4C0, symBinAddr: 0x175B0, symSize: 0x90 }
  - { offset: 0x16C90A, size: 0x8, addend: 0x0, symName: __ZN20FlangerEffectHandler10SetParamivEPN2al7ContextER11ChorusPropsiPKi, symObjAddr: 0x550, symBinAddr: 0x17640, symSize: 0x90 }
  - { offset: 0x16CA18, size: 0x8, addend: 0x0, symName: __ZN20FlangerEffectHandler9SetParamfEPN2al7ContextER11ChorusPropsif, symObjAddr: 0x5E0, symBinAddr: 0x176D0, symSize: 0x130 }
  - { offset: 0x16CAF5, size: 0x8, addend: 0x0, symName: __ZN20FlangerEffectHandler10SetParamfvEPN2al7ContextER11ChorusPropsiPKf, symObjAddr: 0x710, symBinAddr: 0x17800, symSize: 0x10 }
  - { offset: 0x16CB68, size: 0x8, addend: 0x0, symName: __ZN20FlangerEffectHandler9GetParamiEPN2al7ContextERK11ChorusPropsiPi, symObjAddr: 0x720, symBinAddr: 0x17810, symSize: 0x60 }
  - { offset: 0x16CC0D, size: 0x8, addend: 0x0, symName: __ZN20FlangerEffectHandler10GetParamivEPN2al7ContextERK11ChorusPropsiPi, symObjAddr: 0x780, symBinAddr: 0x17870, symSize: 0x60 }
  - { offset: 0x16CCB0, size: 0x8, addend: 0x0, symName: __ZN20FlangerEffectHandler9GetParamfEPN2al7ContextERK11ChorusPropsiPf, symObjAddr: 0x7E0, symBinAddr: 0x178D0, symSize: 0x40 }
  - { offset: 0x16CD41, size: 0x8, addend: 0x0, symName: __ZN20FlangerEffectHandler10GetParamfvEPN2al7ContextERK11ChorusPropsiPf, symObjAddr: 0x820, symBinAddr: 0x17910, symSize: 0x3A }
  - { offset: 0x16ECC1, size: 0x8, addend: 0x0, symName: __ZN23CompressorEffectHandler9SetParamiEPN2al7ContextER15CompressorPropsii, symObjAddr: 0x0, symBinAddr: 0x17950, symSize: 0x50 }
  - { offset: 0x16ECDB, size: 0x8, addend: 0x0, symName: _CompressorEffectProps, symObjAddr: 0x1F8, symBinAddr: 0xCB660, symSize: 0x0 }
  - { offset: 0x17DC97, size: 0x8, addend: 0x0, symName: __ZN23CompressorEffectHandler9SetParamiEPN2al7ContextER15CompressorPropsii, symObjAddr: 0x0, symBinAddr: 0x17950, symSize: 0x50 }
  - { offset: 0x17DDE2, size: 0x8, addend: 0x0, symName: __ZN23CompressorEffectHandler10SetParamivEPN2al7ContextER15CompressorPropsiPKi, symObjAddr: 0x90, symBinAddr: 0x179A0, symSize: 0x50 }
  - { offset: 0x17DE95, size: 0x8, addend: 0x0, symName: __ZN23CompressorEffectHandler9SetParamfEPN2al7ContextER15CompressorPropsif, symObjAddr: 0xE0, symBinAddr: 0x179F0, symSize: 0x30 }
  - { offset: 0x17DF0D, size: 0x8, addend: 0x0, symName: __ZN23CompressorEffectHandler10SetParamfvEPN2al7ContextER15CompressorPropsiPKf, symObjAddr: 0x110, symBinAddr: 0x17A20, symSize: 0x30 }
  - { offset: 0x17DF85, size: 0x8, addend: 0x0, symName: __ZN23CompressorEffectHandler9GetParamiEPN2al7ContextERK15CompressorPropsiPi, symObjAddr: 0x140, symBinAddr: 0x17A50, symSize: 0x30 }
  - { offset: 0x17DFC0, size: 0x8, addend: 0x0, symName: __ZN23CompressorEffectHandler10GetParamivEPN2al7ContextERK15CompressorPropsiPi, symObjAddr: 0x170, symBinAddr: 0x17A80, symSize: 0x30 }
  - { offset: 0x17E022, size: 0x8, addend: 0x0, symName: __ZN23CompressorEffectHandler10GetParamivEPN2al7ContextERK15CompressorPropsiPi, symObjAddr: 0x170, symBinAddr: 0x17A80, symSize: 0x30 }
  - { offset: 0x17E091, size: 0x8, addend: 0x0, symName: __ZN23CompressorEffectHandler9GetParamfEPN2al7ContextERK15CompressorPropsiPf, symObjAddr: 0x1A0, symBinAddr: 0x17AB0, symSize: 0x30 }
  - { offset: 0x17E0B1, size: 0x8, addend: 0x0, symName: __ZN23CompressorEffectHandler9GetParamfEPN2al7ContextERK15CompressorPropsiPf, symObjAddr: 0x1A0, symBinAddr: 0x17AB0, symSize: 0x30 }
  - { offset: 0x17E129, size: 0x8, addend: 0x0, symName: __ZN23CompressorEffectHandler10GetParamfvEPN2al7ContextERK15CompressorPropsiPf, symObjAddr: 0x1D0, symBinAddr: 0x17AE0, symSize: 0x25 }
  - { offset: 0x180083, size: 0x8, addend: 0x0, symName: __ZN24ConvolutionEffectHandler9SetParamiEPN2al7ContextER16ConvolutionPropsii, symObjAddr: 0x0, symBinAddr: 0x17B10, symSize: 0x30 }
  - { offset: 0x18009D, size: 0x8, addend: 0x0, symName: _ConvolutionEffectProps, symObjAddr: 0x278, symBinAddr: 0xCB6D0, symSize: 0x0 }
  - { offset: 0x18FCA9, size: 0x8, addend: 0x0, symName: __ZN24ConvolutionEffectHandler10SetParamfvEPN2al7ContextER16ConvolutionPropsiPKf, symObjAddr: 0xB0, symBinAddr: 0x17BA0, symSize: 0xD0 }
  - { offset: 0x190153, size: 0x8, addend: 0x0, symName: __ZN24ConvolutionEffectHandler9SetParamiEPN2al7ContextER16ConvolutionPropsii, symObjAddr: 0x0, symBinAddr: 0x17B10, symSize: 0x30 }
  - { offset: 0x19024E, size: 0x8, addend: 0x0, symName: __ZN24ConvolutionEffectHandler10SetParamivEPN2al7ContextER16ConvolutionPropsiPKi, symObjAddr: 0x50, symBinAddr: 0x17B40, symSize: 0x30 }
  - { offset: 0x1902F3, size: 0x8, addend: 0x0, symName: __ZN24ConvolutionEffectHandler9SetParamfEPN2al7ContextER16ConvolutionPropsif, symObjAddr: 0x80, symBinAddr: 0x17B70, symSize: 0x30 }
  - { offset: 0x190532, size: 0x8, addend: 0x0, symName: __ZN24ConvolutionEffectHandler9GetParamiEPN2al7ContextERK16ConvolutionPropsiPi, symObjAddr: 0x1A0, symBinAddr: 0x17C70, symSize: 0x30 }
  - { offset: 0x1905D0, size: 0x8, addend: 0x0, symName: __ZN24ConvolutionEffectHandler10GetParamivEPN2al7ContextERK16ConvolutionPropsiPi, symObjAddr: 0x1D0, symBinAddr: 0x17CA0, symSize: 0x30 }
  - { offset: 0x190675, size: 0x8, addend: 0x0, symName: __ZN24ConvolutionEffectHandler9GetParamfEPN2al7ContextERK16ConvolutionPropsiPf, symObjAddr: 0x200, symBinAddr: 0x17CD0, symSize: 0x30 }
  - { offset: 0x190781, size: 0x8, addend: 0x0, symName: __ZN24ConvolutionEffectHandler10GetParamfvEPN2al7ContextERK16ConvolutionPropsiPf, symObjAddr: 0x230, symBinAddr: 0x17D00, symSize: 0x48 }
  - { offset: 0x190AAB, size: 0x8, addend: 0x0, symName: _ConvolutionEffectProps, symObjAddr: 0x278, symBinAddr: 0xCB6D0, symSize: 0x0 }
  - { offset: 0x1929AD, size: 0x8, addend: 0x0, symName: __ZN28DedicatedDialogEffectHandler9SetParamiEPN2al7ContextER14DedicatedPropsii, symObjAddr: 0x0, symBinAddr: 0x17D50, symSize: 0x30 }
  - { offset: 0x1929C7, size: 0x8, addend: 0x0, symName: _DedicatedDialogEffectProps, symObjAddr: 0x4F4, symBinAddr: 0xCB740, symSize: 0x0 }
  - { offset: 0x19F8BC, size: 0x8, addend: 0x0, symName: _DedicatedLfeEffectProps, symObjAddr: 0x564, symBinAddr: 0xCB7B0, symSize: 0x0 }
  - { offset: 0x1A1999, size: 0x8, addend: 0x0, symName: __ZN28DedicatedDialogEffectHandler9SetParamiEPN2al7ContextER14DedicatedPropsii, symObjAddr: 0x0, symBinAddr: 0x17D50, symSize: 0x30 }
  - { offset: 0x1A1A74, size: 0x8, addend: 0x0, symName: __ZN28DedicatedDialogEffectHandler10SetParamivEPN2al7ContextER14DedicatedPropsiPKi, symObjAddr: 0x50, symBinAddr: 0x17D80, symSize: 0x30 }
  - { offset: 0x1A1AEC, size: 0x8, addend: 0x0, symName: __ZN28DedicatedDialogEffectHandler9SetParamfEPN2al7ContextER14DedicatedPropsif, symObjAddr: 0x80, symBinAddr: 0x17DB0, symSize: 0x90 }
  - { offset: 0x1A1BD4, size: 0x8, addend: 0x0, symName: __ZN28DedicatedDialogEffectHandler10SetParamfvEPN2al7ContextER14DedicatedPropsiPKf, symObjAddr: 0x130, symBinAddr: 0x17E40, symSize: 0x90 }
  - { offset: 0x1A1C87, size: 0x8, addend: 0x0, symName: __ZN28DedicatedDialogEffectHandler9GetParamiEPN2al7ContextERK14DedicatedPropsiPi, symObjAddr: 0x1C0, symBinAddr: 0x17ED0, symSize: 0x30 }
  - { offset: 0x1A1CFF, size: 0x8, addend: 0x0, symName: __ZN28DedicatedDialogEffectHandler10GetParamivEPN2al7ContextERK14DedicatedPropsiPi, symObjAddr: 0x1F0, symBinAddr: 0x17F00, symSize: 0x30 }
  - { offset: 0x1A1D77, size: 0x8, addend: 0x0, symName: __ZN28DedicatedDialogEffectHandler9GetParamfEPN2al7ContextERK14DedicatedPropsiPf, symObjAddr: 0x220, symBinAddr: 0x17F30, symSize: 0x40 }
  - { offset: 0x1A1E14, size: 0x8, addend: 0x0, symName: __ZN28DedicatedDialogEffectHandler10GetParamfvEPN2al7ContextERK14DedicatedPropsiPf, symObjAddr: 0x260, symBinAddr: 0x17F70, symSize: 0x40 }
  - { offset: 0x1A1EA3, size: 0x8, addend: 0x0, symName: __ZN25DedicatedLfeEffectHandler9SetParamiEPN2al7ContextER14DedicatedPropsii, symObjAddr: 0x2A0, symBinAddr: 0x17FB0, symSize: 0x30 }
  - { offset: 0x1A1F1B, size: 0x8, addend: 0x0, symName: __ZN25DedicatedLfeEffectHandler10SetParamivEPN2al7ContextER14DedicatedPropsiPKi, symObjAddr: 0x2D0, symBinAddr: 0x17FE0, symSize: 0x30 }
  - { offset: 0x1A1F93, size: 0x8, addend: 0x0, symName: __ZN25DedicatedLfeEffectHandler9SetParamfEPN2al7ContextER14DedicatedPropsif, symObjAddr: 0x300, symBinAddr: 0x18010, symSize: 0x90 }
  - { offset: 0x1A203F, size: 0x8, addend: 0x0, symName: __ZN25DedicatedLfeEffectHandler10SetParamfvEPN2al7ContextER14DedicatedPropsiPKf, symObjAddr: 0x390, symBinAddr: 0x180A0, symSize: 0x90 }
  - { offset: 0x1A20F2, size: 0x8, addend: 0x0, symName: __ZN25DedicatedLfeEffectHandler9GetParamiEPN2al7ContextERK14DedicatedPropsiPi, symObjAddr: 0x420, symBinAddr: 0x18130, symSize: 0x30 }
  - { offset: 0x1A216A, size: 0x8, addend: 0x0, symName: __ZN25DedicatedLfeEffectHandler10GetParamivEPN2al7ContextERK14DedicatedPropsiPi, symObjAddr: 0x450, symBinAddr: 0x18160, symSize: 0x30 }
  - { offset: 0x1A21E2, size: 0x8, addend: 0x0, symName: __ZN25DedicatedLfeEffectHandler9GetParamfEPN2al7ContextERK14DedicatedPropsiPf, symObjAddr: 0x480, symBinAddr: 0x18190, symSize: 0x40 }
  - { offset: 0x1A2273, size: 0x8, addend: 0x0, symName: __ZN25DedicatedLfeEffectHandler10GetParamfvEPN2al7ContextERK14DedicatedPropsiPf, symObjAddr: 0x4C0, symBinAddr: 0x181D0, symSize: 0x34 }
  - { offset: 0x1A22E2, size: 0x8, addend: 0x0, symName: _DedicatedDialogEffectProps, symObjAddr: 0x4F4, symBinAddr: 0xCB740, symSize: 0x0 }
  - { offset: 0x1A41E4, size: 0x8, addend: 0x0, symName: __ZN23DistortionEffectHandler9SetParamiEPN2al7ContextER15DistortionPropsii, symObjAddr: 0x0, symBinAddr: 0x18210, symSize: 0x30 }
  - { offset: 0x1A41FE, size: 0x8, addend: 0x0, symName: _DistortionEffectProps, symObjAddr: 0x350, symBinAddr: 0xCB82C, symSize: 0x0 }
  - { offset: 0x1B31BA, size: 0x8, addend: 0x0, symName: __ZN23DistortionEffectHandler9SetParamiEPN2al7ContextER15DistortionPropsii, symObjAddr: 0x0, symBinAddr: 0x18210, symSize: 0x30 }
  - { offset: 0x1B3295, size: 0x8, addend: 0x0, symName: __ZN23DistortionEffectHandler10SetParamivEPN2al7ContextER15DistortionPropsiPKi, symObjAddr: 0x50, symBinAddr: 0x18240, symSize: 0x30 }
  - { offset: 0x1B330D, size: 0x8, addend: 0x0, symName: __ZN23DistortionEffectHandler9SetParamfEPN2al7ContextER15DistortionPropsif, symObjAddr: 0x80, symBinAddr: 0x18270, symSize: 0x150 }
  - { offset: 0x1B342B, size: 0x8, addend: 0x0, symName: __ZN23DistortionEffectHandler10SetParamfvEPN2al7ContextER15DistortionPropsiPKf, symObjAddr: 0x1F0, symBinAddr: 0x183C0, symSize: 0x10 }
  - { offset: 0x1B349E, size: 0x8, addend: 0x0, symName: __ZN23DistortionEffectHandler9GetParamiEPN2al7ContextERK15DistortionPropsiPi, symObjAddr: 0x200, symBinAddr: 0x183D0, symSize: 0x30 }
  - { offset: 0x1B3516, size: 0x8, addend: 0x0, symName: __ZN23DistortionEffectHandler10GetParamivEPN2al7ContextERK15DistortionPropsiPi, symObjAddr: 0x230, symBinAddr: 0x18400, symSize: 0x30 }
  - { offset: 0x1B358E, size: 0x8, addend: 0x0, symName: __ZN23DistortionEffectHandler9GetParamfEPN2al7ContextERK15DistortionPropsiPf, symObjAddr: 0x260, symBinAddr: 0x18430, symSize: 0x70 }
  - { offset: 0x1B362B, size: 0x8, addend: 0x0, symName: __ZN23DistortionEffectHandler10GetParamfvEPN2al7ContextERK15DistortionPropsiPf, symObjAddr: 0x2D0, symBinAddr: 0x184A0, symSize: 0x70 }
  - { offset: 0x1B55A2, size: 0x8, addend: 0x0, symName: __ZN17EchoEffectHandler9SetParamiEPN2al7ContextER9EchoPropsii, symObjAddr: 0x0, symBinAddr: 0x18510, symSize: 0x30 }
  - { offset: 0x1B55BC, size: 0x8, addend: 0x0, symName: _EchoEffectProps, symObjAddr: 0x360, symBinAddr: 0xCB8A8, symSize: 0x0 }
  - { offset: 0x1C4578, size: 0x8, addend: 0x0, symName: __ZN17EchoEffectHandler9SetParamiEPN2al7ContextER9EchoPropsii, symObjAddr: 0x0, symBinAddr: 0x18510, symSize: 0x30 }
  - { offset: 0x1C4653, size: 0x8, addend: 0x0, symName: __ZN17EchoEffectHandler10SetParamivEPN2al7ContextER9EchoPropsiPKi, symObjAddr: 0x50, symBinAddr: 0x18540, symSize: 0x30 }
  - { offset: 0x1C46CB, size: 0x8, addend: 0x0, symName: __ZN17EchoEffectHandler9SetParamfEPN2al7ContextER9EchoPropsif, symObjAddr: 0x80, symBinAddr: 0x18570, symSize: 0x150 }
  - { offset: 0x1C47E6, size: 0x8, addend: 0x0, symName: __ZN17EchoEffectHandler10SetParamfvEPN2al7ContextER9EchoPropsiPKf, symObjAddr: 0x1F0, symBinAddr: 0x186C0, symSize: 0x10 }
  - { offset: 0x1C4859, size: 0x8, addend: 0x0, symName: __ZN17EchoEffectHandler9GetParamiEPN2al7ContextERK9EchoPropsiPi, symObjAddr: 0x200, symBinAddr: 0x186D0, symSize: 0x30 }
  - { offset: 0x1C48D1, size: 0x8, addend: 0x0, symName: __ZN17EchoEffectHandler10GetParamivEPN2al7ContextERK9EchoPropsiPi, symObjAddr: 0x230, symBinAddr: 0x18700, symSize: 0x30 }
  - { offset: 0x1C4949, size: 0x8, addend: 0x0, symName: __ZN17EchoEffectHandler9GetParamfEPN2al7ContextERK9EchoPropsiPf, symObjAddr: 0x260, symBinAddr: 0x18730, symSize: 0x70 }
  - { offset: 0x1C49E6, size: 0x8, addend: 0x0, symName: __ZN17EchoEffectHandler10GetParamfvEPN2al7ContextERK9EchoPropsiPf, symObjAddr: 0x2D0, symBinAddr: 0x187A0, symSize: 0x70 }
  - { offset: 0x1C695D, size: 0x8, addend: 0x0, symName: __ZN22EqualizerEffectHandler9SetParamiEPN2al7ContextER14EqualizerPropsii, symObjAddr: 0x0, symBinAddr: 0x18810, symSize: 0x30 }
  - { offset: 0x1C6977, size: 0x8, addend: 0x0, symName: _EqualizerEffectProps, symObjAddr: 0x504, symBinAddr: 0xCB93C, symSize: 0x0 }
  - { offset: 0x1D5933, size: 0x8, addend: 0x0, symName: __ZN22EqualizerEffectHandler9SetParamiEPN2al7ContextER14EqualizerPropsii, symObjAddr: 0x0, symBinAddr: 0x18810, symSize: 0x30 }
  - { offset: 0x1D5A0E, size: 0x8, addend: 0x0, symName: __ZN22EqualizerEffectHandler10SetParamivEPN2al7ContextER14EqualizerPropsiPKi, symObjAddr: 0x50, symBinAddr: 0x18840, symSize: 0x30 }
  - { offset: 0x1D5A86, size: 0x8, addend: 0x0, symName: __ZN22EqualizerEffectHandler9SetParamfEPN2al7ContextER14EqualizerPropsif, symObjAddr: 0x80, symBinAddr: 0x18870, symSize: 0x270 }
  - { offset: 0x1D5BA5, size: 0x8, addend: 0x0, symName: __ZN22EqualizerEffectHandler10SetParamfvEPN2al7ContextER14EqualizerPropsiPKf, symObjAddr: 0x310, symBinAddr: 0x18AE0, symSize: 0x10 }
  - { offset: 0x1D5C18, size: 0x8, addend: 0x0, symName: __ZN22EqualizerEffectHandler9GetParamiEPN2al7ContextERK14EqualizerPropsiPi, symObjAddr: 0x320, symBinAddr: 0x18AF0, symSize: 0x30 }
  - { offset: 0x1D5C90, size: 0x8, addend: 0x0, symName: __ZN22EqualizerEffectHandler10GetParamivEPN2al7ContextERK14EqualizerPropsiPi, symObjAddr: 0x350, symBinAddr: 0x18B20, symSize: 0x30 }
  - { offset: 0x1D5D08, size: 0x8, addend: 0x0, symName: __ZN22EqualizerEffectHandler9GetParamfEPN2al7ContextERK14EqualizerPropsiPf, symObjAddr: 0x380, symBinAddr: 0x18B50, symSize: 0xB0 }
  - { offset: 0x1D5DA5, size: 0x8, addend: 0x0, symName: __ZN22EqualizerEffectHandler10GetParamfvEPN2al7ContextERK14EqualizerPropsiPf, symObjAddr: 0x430, symBinAddr: 0x18C00, symSize: 0xA4 }
  - { offset: 0x1D7D1C, size: 0x8, addend: 0x0, symName: __ZN21FshifterEffectHandler9SetParamiEPN2al7ContextER13FshifterPropsii, symObjAddr: 0x0, symBinAddr: 0x18CB0, symSize: 0x90 }
  - { offset: 0x1D7D36, size: 0x8, addend: 0x0, symName: _FshifterEffectProps, symObjAddr: 0x3C4, symBinAddr: 0xCB9AC, symSize: 0x0 }
  - { offset: 0x1E535A, size: 0x8, addend: 0x0, symName: __ZN12_GLOBAL__N_117EnumFromDirectionE17FShifterDirection, symObjAddr: 0x210, symBinAddr: 0x18E80, symSize: 0xC0 }
  - { offset: 0x1E7371, size: 0x8, addend: 0x0, symName: __ZN21FshifterEffectHandler9SetParamiEPN2al7ContextER13FshifterPropsii, symObjAddr: 0x0, symBinAddr: 0x18CB0, symSize: 0x90 }
  - { offset: 0x1E74FD, size: 0x8, addend: 0x0, symName: __ZN21FshifterEffectHandler10SetParamivEPN2al7ContextER13FshifterPropsiPKi, symObjAddr: 0xB0, symBinAddr: 0x18D40, symSize: 0x10 }
  - { offset: 0x1E7572, size: 0x8, addend: 0x0, symName: __ZN21FshifterEffectHandler9SetParamfEPN2al7ContextER13FshifterPropsif, symObjAddr: 0xC0, symBinAddr: 0x18D50, symSize: 0x60 }
  - { offset: 0x1E765B, size: 0x8, addend: 0x0, symName: __ZN21FshifterEffectHandler10SetParamfvEPN2al7ContextER13FshifterPropsiPKf, symObjAddr: 0x140, symBinAddr: 0x18DB0, symSize: 0x70 }
  - { offset: 0x1E770F, size: 0x8, addend: 0x0, symName: __ZN21FshifterEffectHandler9GetParamiEPN2al7ContextERK13FshifterPropsiPi, symObjAddr: 0x1B0, symBinAddr: 0x18E20, symSize: 0x60 }
  - { offset: 0x1E78F3, size: 0x8, addend: 0x0, symName: __ZN21FshifterEffectHandler10GetParamivEPN2al7ContextERK13FshifterPropsiPi, symObjAddr: 0x2D0, symBinAddr: 0x18F40, symSize: 0x60 }
  - { offset: 0x1E7996, size: 0x8, addend: 0x0, symName: __ZN21FshifterEffectHandler9GetParamfEPN2al7ContextERK13FshifterPropsiPf, symObjAddr: 0x330, symBinAddr: 0x18FA0, symSize: 0x40 }
  - { offset: 0x1E7A27, size: 0x8, addend: 0x0, symName: __ZN21FshifterEffectHandler10GetParamfvEPN2al7ContextERK13FshifterPropsiPf, symObjAddr: 0x370, symBinAddr: 0x18FE0, symSize: 0x33 }
  - { offset: 0x1E9998, size: 0x8, addend: 0x0, symName: __ZN22ModulatorEffectHandler9SetParamiEPN2al7ContextER14ModulatorPropsii, symObjAddr: 0x0, symBinAddr: 0x19020, symSize: 0xC0 }
  - { offset: 0x1E99B2, size: 0x8, addend: 0x0, symName: _ModulatorEffectProps, symObjAddr: 0x414, symBinAddr: 0xCBA1C, symSize: 0x0 }
  - { offset: 0x1F8F52, size: 0x8, addend: 0x0, symName: __ZN22ModulatorEffectHandler9SetParamiEPN2al7ContextER14ModulatorPropsii, symObjAddr: 0x0, symBinAddr: 0x19020, symSize: 0xC0 }
  - { offset: 0x1F9162, size: 0x8, addend: 0x0, symName: __ZN22ModulatorEffectHandler9SetParamfEPN2al7ContextER14ModulatorPropsif, symObjAddr: 0xC0, symBinAddr: 0x190E0, symSize: 0xA0 }
  - { offset: 0x1F9201, size: 0x8, addend: 0x0, symName: __ZN22ModulatorEffectHandler10SetParamivEPN2al7ContextER14ModulatorPropsiPKi, symObjAddr: 0x180, symBinAddr: 0x19180, symSize: 0x10 }
  - { offset: 0x1F9276, size: 0x8, addend: 0x0, symName: __ZN22ModulatorEffectHandler10SetParamfvEPN2al7ContextER14ModulatorPropsiPKf, symObjAddr: 0x1B0, symBinAddr: 0x19190, symSize: 0xB0 }
  - { offset: 0x1F948B, size: 0x8, addend: 0x0, symName: __ZN22ModulatorEffectHandler9GetParamiEPN2al7ContextERK14ModulatorPropsiPi, symObjAddr: 0x260, symBinAddr: 0x19240, symSize: 0x100 }
  - { offset: 0x1F96D8, size: 0x8, addend: 0x0, symName: __ZN22ModulatorEffectHandler10GetParamivEPN2al7ContextERK14ModulatorPropsiPi, symObjAddr: 0x360, symBinAddr: 0x19340, symSize: 0x10 }
  - { offset: 0x1F9752, size: 0x8, addend: 0x0, symName: __ZN22ModulatorEffectHandler9GetParamfEPN2al7ContextERK14ModulatorPropsiPf, symObjAddr: 0x370, symBinAddr: 0x19350, symSize: 0x40 }
  - { offset: 0x1F97EF, size: 0x8, addend: 0x0, symName: __ZN22ModulatorEffectHandler10GetParamfvEPN2al7ContextERK14ModulatorPropsiPf, symObjAddr: 0x3B0, symBinAddr: 0x19390, symSize: 0x3C }
  - { offset: 0x1FB760, size: 0x8, addend: 0x0, symName: __ZN17NullEffectHandler9SetParamiEPN2al7ContextERNSt3__19monostateEii, symObjAddr: 0x0, symBinAddr: 0x193D0, symSize: 0x30 }
  - { offset: 0x1FB77A, size: 0x8, addend: 0x0, symName: _NullEffectProps, symObjAddr: 0x198, symBinAddr: 0xCBA8C, symSize: 0x0 }
  - { offset: 0x20A715, size: 0x8, addend: 0x0, symName: __ZN17NullEffectHandler9SetParamiEPN2al7ContextERNSt3__19monostateEii, symObjAddr: 0x0, symBinAddr: 0x193D0, symSize: 0x30 }
  - { offset: 0x20A80F, size: 0x8, addend: 0x0, symName: __ZN17NullEffectHandler10SetParamivEPN2al7ContextERNSt3__19monostateEiPKi, symObjAddr: 0x50, symBinAddr: 0x19400, symSize: 0x30 }
  - { offset: 0x20A8B4, size: 0x8, addend: 0x0, symName: __ZN17NullEffectHandler9SetParamfEPN2al7ContextERNSt3__19monostateEif, symObjAddr: 0x80, symBinAddr: 0x19430, symSize: 0x30 }
  - { offset: 0x20A946, size: 0x8, addend: 0x0, symName: __ZN17NullEffectHandler10SetParamfvEPN2al7ContextERNSt3__19monostateEiPKf, symObjAddr: 0xB0, symBinAddr: 0x19460, symSize: 0x30 }
  - { offset: 0x20A9EB, size: 0x8, addend: 0x0, symName: __ZN17NullEffectHandler9GetParamiEPN2al7ContextERKNSt3__19monostateEiPi, symObjAddr: 0xE0, symBinAddr: 0x19490, symSize: 0x30 }
  - { offset: 0x20AA89, size: 0x8, addend: 0x0, symName: __ZN17NullEffectHandler10GetParamivEPN2al7ContextERKNSt3__19monostateEiPi, symObjAddr: 0x110, symBinAddr: 0x194C0, symSize: 0x30 }
  - { offset: 0x20AB2E, size: 0x8, addend: 0x0, symName: __ZN17NullEffectHandler9GetParamfEPN2al7ContextERKNSt3__19monostateEiPf, symObjAddr: 0x140, symBinAddr: 0x194F0, symSize: 0x30 }
  - { offset: 0x20ABC0, size: 0x8, addend: 0x0, symName: __ZN17NullEffectHandler10GetParamfvEPN2al7ContextERKNSt3__19monostateEiPf, symObjAddr: 0x170, symBinAddr: 0x19520, symSize: 0x25 }
  - { offset: 0x20CB47, size: 0x8, addend: 0x0, symName: __ZN21PshifterEffectHandler9SetParamiEPN2al7ContextER13PshifterPropsii, symObjAddr: 0x0, symBinAddr: 0x19550, symSize: 0x80 }
  - { offset: 0x20CB61, size: 0x8, addend: 0x0, symName: _PshifterEffectProps, symObjAddr: 0x278, symBinAddr: 0xCBAFC, symSize: 0x0 }
  - { offset: 0x21BB1D, size: 0x8, addend: 0x0, symName: __ZN21PshifterEffectHandler9SetParamiEPN2al7ContextER13PshifterPropsii, symObjAddr: 0x0, symBinAddr: 0x19550, symSize: 0x80 }
  - { offset: 0x21BC85, size: 0x8, addend: 0x0, symName: __ZN21PshifterEffectHandler10SetParamivEPN2al7ContextER13PshifterPropsiPKi, symObjAddr: 0xC0, symBinAddr: 0x195D0, symSize: 0x80 }
  - { offset: 0x21BD53, size: 0x8, addend: 0x0, symName: __ZN21PshifterEffectHandler9SetParamfEPN2al7ContextER13PshifterPropsif, symObjAddr: 0x140, symBinAddr: 0x19650, symSize: 0x30 }
  - { offset: 0x21BDE5, size: 0x8, addend: 0x0, symName: __ZN21PshifterEffectHandler10SetParamfvEPN2al7ContextER13PshifterPropsiPKf, symObjAddr: 0x170, symBinAddr: 0x19680, symSize: 0x30 }
  - { offset: 0x21BE8A, size: 0x8, addend: 0x0, symName: __ZN21PshifterEffectHandler9GetParamiEPN2al7ContextERK13PshifterPropsiPi, symObjAddr: 0x1A0, symBinAddr: 0x196B0, symSize: 0x40 }
  - { offset: 0x21BF27, size: 0x8, addend: 0x0, symName: __ZN21PshifterEffectHandler10GetParamivEPN2al7ContextERK13PshifterPropsiPi, symObjAddr: 0x1E0, symBinAddr: 0x196F0, symSize: 0x40 }
  - { offset: 0x21BFB6, size: 0x8, addend: 0x0, symName: __ZN21PshifterEffectHandler9GetParamfEPN2al7ContextERK13PshifterPropsiPf, symObjAddr: 0x220, symBinAddr: 0x19730, symSize: 0x30 }
  - { offset: 0x21C048, size: 0x8, addend: 0x0, symName: __ZN21PshifterEffectHandler10GetParamfvEPN2al7ContextERK13PshifterPropsiPf, symObjAddr: 0x250, symBinAddr: 0x19760, symSize: 0x25 }
  - { offset: 0x21DFCF, size: 0x8, addend: 0x0, symName: __ZN19ReverbEffectHandler9SetParamiEPN2al7ContextER11ReverbPropsii, symObjAddr: 0x0, symBinAddr: 0x19790, symSize: 0x50 }
  - { offset: 0x21DFE9, size: 0x8, addend: 0x0, symName: _ReverbEffectProps, symObjAddr: 0xF60, symBinAddr: 0xCBB94, symSize: 0x0 }
  - { offset: 0x22D95E, size: 0x8, addend: 0x0, symName: __ZN19ReverbEffectHandler10SetParamfvEPN2al7ContextER11ReverbPropsiPKf, symObjAddr: 0x5C0, symBinAddr: 0x19D10, symSize: 0xB0 }
  - { offset: 0x22DD99, size: 0x8, addend: 0x0, symName: _StdReverbEffectProps, symObjAddr: 0xFD0, symBinAddr: 0xCBC04, symSize: 0x0 }
  - { offset: 0x22DDF1, size: 0x8, addend: 0x0, symName: __ZN19ReverbEffectHandler9SetParamiEPN2al7ContextER11ReverbPropsii, symObjAddr: 0x0, symBinAddr: 0x19790, symSize: 0x50 }
  - { offset: 0x22DF3D, size: 0x8, addend: 0x0, symName: __ZN19ReverbEffectHandler10SetParamivEPN2al7ContextER11ReverbPropsiPKi, symObjAddr: 0x90, symBinAddr: 0x197E0, symSize: 0x50 }
  - { offset: 0x22DFD7, size: 0x8, addend: 0x0, symName: __ZN19ReverbEffectHandler9SetParamfEPN2al7ContextER11ReverbPropsif, symObjAddr: 0xE0, symBinAddr: 0x19830, symSize: 0x4E0 }
  - { offset: 0x22DFF1, size: 0x8, addend: 0x0, symName: __ZN19ReverbEffectHandler9SetParamfEPN2al7ContextER11ReverbPropsif, symObjAddr: 0xE0, symBinAddr: 0x19830, symSize: 0x4E0 }
  - { offset: 0x22E2FD, size: 0x8, addend: 0x0, symName: __ZN19ReverbEffectHandler9GetParamiEPN2al7ContextERK11ReverbPropsiPi, symObjAddr: 0x670, symBinAddr: 0x19DC0, symSize: 0x40 }
  - { offset: 0x22E3A3, size: 0x8, addend: 0x0, symName: __ZN19ReverbEffectHandler10GetParamivEPN2al7ContextERK11ReverbPropsiPi, symObjAddr: 0x6B0, symBinAddr: 0x19E00, symSize: 0x40 }
  - { offset: 0x22E434, size: 0x8, addend: 0x0, symName: __ZN19ReverbEffectHandler9GetParamfEPN2al7ContextERK11ReverbPropsiPf, symObjAddr: 0x6F0, symBinAddr: 0x19E40, symSize: 0x120 }
  - { offset: 0x22E51E, size: 0x8, addend: 0x0, symName: __ZN19ReverbEffectHandler10GetParamfvEPN2al7ContextERK11ReverbPropsiPf, symObjAddr: 0x810, symBinAddr: 0x19F60, symSize: 0x130 }
  - { offset: 0x22E8B9, size: 0x8, addend: 0x0, symName: __ZN22StdReverbEffectHandler9SetParamiEPN2al7ContextER11ReverbPropsii, symObjAddr: 0x940, symBinAddr: 0x1A090, symSize: 0x50 }
  - { offset: 0x22E96F, size: 0x8, addend: 0x0, symName: __ZN22StdReverbEffectHandler10SetParamivEPN2al7ContextER11ReverbPropsiPKi, symObjAddr: 0x990, symBinAddr: 0x1A0E0, symSize: 0x50 }
  - { offset: 0x22EA0B, size: 0x8, addend: 0x0, symName: __ZN22StdReverbEffectHandler9SetParamfEPN2al7ContextER11ReverbPropsif, symObjAddr: 0x9E0, symBinAddr: 0x1A130, symSize: 0x320 }
  - { offset: 0x22EA25, size: 0x8, addend: 0x0, symName: __ZN22StdReverbEffectHandler9SetParamfEPN2al7ContextER11ReverbPropsif, symObjAddr: 0x9E0, symBinAddr: 0x1A130, symSize: 0x320 }
  - { offset: 0x22EBB4, size: 0x8, addend: 0x0, symName: __ZN22StdReverbEffectHandler10SetParamfvEPN2al7ContextER11ReverbPropsiPKf, symObjAddr: 0xD00, symBinAddr: 0x1A450, symSize: 0x10 }
  - { offset: 0x22EC2C, size: 0x8, addend: 0x0, symName: __ZN22StdReverbEffectHandler9GetParamiEPN2al7ContextERK11ReverbPropsiPi, symObjAddr: 0xD10, symBinAddr: 0x1A460, symSize: 0x40 }
  - { offset: 0x22ECC6, size: 0x8, addend: 0x0, symName: __ZN22StdReverbEffectHandler10GetParamivEPN2al7ContextERK11ReverbPropsiPi, symObjAddr: 0xD50, symBinAddr: 0x1A4A0, symSize: 0x40 }
  - { offset: 0x22ED57, size: 0x8, addend: 0x0, symName: __ZN22StdReverbEffectHandler9GetParamfEPN2al7ContextERK11ReverbPropsiPf, symObjAddr: 0xD90, symBinAddr: 0x1A4E0, symSize: 0xC0 }
  - { offset: 0x22EDF1, size: 0x8, addend: 0x0, symName: __ZN22StdReverbEffectHandler10GetParamfvEPN2al7ContextERK11ReverbPropsiPf, symObjAddr: 0xE50, symBinAddr: 0x1A5A0, symSize: 0xB8 }
  - { offset: 0x230D71, size: 0x8, addend: 0x0, symName: __ZN21VmorpherEffectHandler9SetParamiEPN2al7ContextER13VmorpherPropsii, symObjAddr: 0x0, symBinAddr: 0x1A660, symSize: 0x100 }
  - { offset: 0x230D8B, size: 0x8, addend: 0x0, symName: _VmorpherEffectProps, symObjAddr: 0x4CC, symBinAddr: 0xCBC74, symSize: 0x0 }
  - { offset: 0x23E7AA, size: 0x8, addend: 0x0, symName: __ZN12_GLOBAL__N_115EnumFromPhenomeE15VMorpherPhenome, symObjAddr: 0x350, symBinAddr: 0x1A970, symSize: 0xC0 }
  - { offset: 0x24085D, size: 0x8, addend: 0x0, symName: __ZN21VmorpherEffectHandler9SetParamiEPN2al7ContextER13VmorpherPropsii, symObjAddr: 0x0, symBinAddr: 0x1A660, symSize: 0x100 }
  - { offset: 0x240A7D, size: 0x8, addend: 0x0, symName: __ZN21VmorpherEffectHandler10SetParamivEPN2al7ContextER13VmorpherPropsiPKi, symObjAddr: 0x140, symBinAddr: 0x1A760, symSize: 0x10 }
  - { offset: 0x240AF2, size: 0x8, addend: 0x0, symName: __ZN21VmorpherEffectHandler9SetParamfEPN2al7ContextER13VmorpherPropsif, symObjAddr: 0x150, symBinAddr: 0x1A770, symSize: 0x60 }
  - { offset: 0x240BA4, size: 0x8, addend: 0x0, symName: __ZN21VmorpherEffectHandler10SetParamfvEPN2al7ContextER13VmorpherPropsiPKf, symObjAddr: 0x1B0, symBinAddr: 0x1A7D0, symSize: 0x70 }
  - { offset: 0x240D8A, size: 0x8, addend: 0x0, symName: __ZN21VmorpherEffectHandler9GetParamiEPN2al7ContextERK13VmorpherPropsiPi, symObjAddr: 0x220, symBinAddr: 0x1A840, symSize: 0x130 }
  - { offset: 0x240FB2, size: 0x8, addend: 0x0, symName: __ZN21VmorpherEffectHandler10GetParamivEPN2al7ContextERK13VmorpherPropsiPi, symObjAddr: 0x410, symBinAddr: 0x1AA30, symSize: 0x10 }
  - { offset: 0x24102C, size: 0x8, addend: 0x0, symName: __ZN21VmorpherEffectHandler9GetParamfEPN2al7ContextERK13VmorpherPropsiPf, symObjAddr: 0x420, symBinAddr: 0x1AA40, symSize: 0x40 }
  - { offset: 0x2410C9, size: 0x8, addend: 0x0, symName: __ZN21VmorpherEffectHandler10GetParamfvEPN2al7ContextERK13VmorpherPropsiPf, symObjAddr: 0x460, symBinAddr: 0x1AA80, symSize: 0x33 }
  - { offset: 0x24305D, size: 0x8, addend: 0x0, symName: _alGetError, symObjAddr: 0x2C0, symBinAddr: 0x1AD80, symSize: 0x160 }
  - { offset: 0x2430B3, size: 0x8, addend: 0x0, symName: __ZZ10alGetErrorE8deferror, symObjAddr: 0x7A118, symBinAddr: 0x123DA0, symSize: 0x0 }
  - { offset: 0x251FB7, size: 0x8, addend: 0x0, symName: _TrapALError, symObjAddr: 0x94F, symBinAddr: 0x121008, symSize: 0x0 }
  - { offset: 0x255025, size: 0x8, addend: 0x0, symName: __ZN2al7Context12setErrorImplEiN3fmt10alsoft_v1117basic_string_viewIcEENS2_17basic_format_argsINS2_7contextEEE, symObjAddr: 0x0, symBinAddr: 0x1AAC0, symSize: 0x200 }
  - { offset: 0x2557CF, size: 0x8, addend: 0x0, symName: __ZNK2al3tssIiE3setERKi, symObjAddr: 0x200, symBinAddr: 0x1ACC0, symSize: 0x60 }
  - { offset: 0x2558C5, size: 0x8, addend: 0x0, symName: __ZN2al7Context16throw_error_implEiN3fmt10alsoft_v1117basic_string_viewIcEENS2_17basic_format_argsINS2_7contextEEE, symObjAddr: 0x260, symBinAddr: 0x1AD20, symSize: 0x50 }
  - { offset: 0x2559CB, size: 0x8, addend: 0x0, symName: __ZN2al14base_exceptionD1Ev, symObjAddr: 0x2B0, symBinAddr: 0x1AD70, symSize: 0x10 }
  - { offset: 0x255A0A, size: 0x8, addend: 0x0, symName: __ZN2al14base_exceptionD2Ev, symObjAddr: 0x730, symBinAddr: 0x1B1E0, symSize: 0x40 }
  - { offset: 0x255D64, size: 0x8, addend: 0x0, symName: '__ZZ10alGetErrorENK3$_0clEPKcNSt3__117basic_string_viewIcNS2_11char_traitsIcEEEE', symObjAddr: 0x420, symBinAddr: 0x1AEE0, symSize: 0x250 }
  - { offset: 0x257192, size: 0x8, addend: 0x0, symName: _alGetErrorDirect, symObjAddr: 0x680, symBinAddr: 0x1B130, symSize: 0x70 }
  - { offset: 0x25726E, size: 0x8, addend: 0x0, symName: __ZN2al14base_exceptionD0Ev, symObjAddr: 0x6F0, symBinAddr: 0x1B1A0, symSize: 0x20 }
  - { offset: 0x2572F0, size: 0x8, addend: 0x0, symName: __ZNK2al14base_exception4whatEv, symObjAddr: 0x710, symBinAddr: 0x1B1C0, symSize: 0x20 }
  - { offset: 0x268DC4, size: 0x8, addend: 0x0, symName: __ZNSt3__133__libcpp_thread_poll_with_backoffB8fe200100IZNS_20__atomic_wait_unlessB8fe200100INS_13__atomic_baseIjLb0EEEZNS_13__atomic_waitB8fe200100IKS3_jEEvRT_T0_NS_12memory_orderEEUlRKjE_EEvRKS6_S9_OS8_EUlvE_RNS_26__atomic_wait_backoff_implIS3_SC_EEEEbOS6_SF_NS_6chrono8durationIxNS_5ratioILl1ELl1000000000EEEEE, symObjAddr: 0xA90, symBinAddr: 0x1BB70, symSize: 0xE0 }
  - { offset: 0x269FFE, size: 0x8, addend: 0x0, symName: __ZNSt3__114__thread_proxyB8fe200100INS_5tupleIJNS_10unique_ptrINS_15__thread_structENS_14default_deleteIS3_EEEEPFvN3gsl8not_nullIPN2al7ContextEEEESB_EEEEEPvSG_, symObjAddr: 0xFF0, symBinAddr: 0x1C010, symSize: 0x80 }
  - { offset: 0x26DC9F, size: 0x8, addend: 0x0, symName: __ZN12_GLOBAL__N_111EventThreadEN3gsl8not_nullIPN2al7ContextEEE, symObjAddr: 0x80, symBinAddr: 0x1B2A0, symSize: 0x230 }
  - { offset: 0x26E314, size: 0x8, addend: 0x0, symName: __ZN12_GLOBAL__N_118alEventControlSOFTEN3gsl8not_nullIPN2al7ContextEEEiPKic, symObjAddr: 0x540, symBinAddr: 0x1B690, symSize: 0x180 }
  - { offset: 0x26E7A3, size: 0x8, addend: 0x0, symName: __ZN12_GLOBAL__N_119alEventCallbackSOFTEN3gsl8not_nullIPN2al7ContextEEEPDoFvijjiPKcPvES8_, symObjAddr: 0x750, symBinAddr: 0x1B830, symSize: 0xB0 }
  - { offset: 0x26F0C2, size: 0x8, addend: 0x0, symName: __Z14StartEventThrdPN2al7ContextE, symObjAddr: 0x0, symBinAddr: 0x1B220, symSize: 0x80 }
  - { offset: 0x26F1AB, size: 0x8, addend: 0x0, symName: __ZNSt3__16threadC2IRFvN3gsl8not_nullIPN2al7ContextEEEEJRS6_ELi0EEEOT_DpOT0_, symObjAddr: 0xF30, symBinAddr: 0x1BF50, symSize: 0xC0 }
  - { offset: 0x26F504, size: 0x8, addend: 0x0, symName: __Z14StartEventThrdPN2al7ContextE.cold.1, symObjAddr: 0x1100, symBinAddr: 0xC6AC0, symSize: 0x30 }
  - { offset: 0x26F51C, size: 0x8, addend: 0x0, symName: __Z14StartEventThrdPN2al7ContextE.cold.2, symObjAddr: 0x1130, symBinAddr: 0xC6AF0, symSize: 0x1A }
  - { offset: 0x26F95D, size: 0x8, addend: 0x0, symName: __ZN10FifoBufferINSt3__17variantIJNS0_9monostateE21AsyncSourceStateEvent24AsyncBufferCompleteEvent23AsyncEffectReleaseEvent20AsyncDisconnectEventEEEE13getReadVectorEv, symObjAddr: 0x820, symBinAddr: 0x1B900, symSize: 0xA0 }
  - { offset: 0x26FBCB, size: 0x8, addend: 0x0, symName: __ZN10FifoBufferINSt3__17variantIJNS0_9monostateE21AsyncSourceStateEvent24AsyncBufferCompleteEvent23AsyncEffectReleaseEvent20AsyncDisconnectEventEEEE11readAdvanceEm, symObjAddr: 0x8C0, symBinAddr: 0x1B9A0, symSize: 0x1D0 }
  - { offset: 0x2702D0, size: 0x8, addend: 0x0, symName: __Z3ERRIJEEvN3fmt10alsoft_v117fstringIJDpT_EE1tEDpOS3_, symObjAddr: 0x2B0, symBinAddr: 0x1B4D0, symSize: 0x50 }
  - { offset: 0x2708AD, size: 0x8, addend: 0x0, symName: __Z13StopEventThrdPN2al7ContextE, symObjAddr: 0x360, symBinAddr: 0x1B520, symSize: 0xD0 }
  - { offset: 0x270D4B, size: 0x8, addend: 0x0, symName: __ZN10FifoBufferINSt3__17variantIJNS0_9monostateE21AsyncSourceStateEvent24AsyncBufferCompleteEvent23AsyncEffectReleaseEvent20AsyncDisconnectEventEEEE14getWriteVectorEv, symObjAddr: 0x430, symBinAddr: 0x1B5F0, symSize: 0xA0 }
  - { offset: 0x2711A8, size: 0x8, addend: 0x0, symName: _alEventControlSOFT, symObjAddr: 0x4D0, symBinAddr: 0xC69F0, symSize: 0x70 }
  - { offset: 0x271764, size: 0x8, addend: 0x0, symName: _alEventControlDirectSOFT, symObjAddr: 0x6C0, symBinAddr: 0x1B810, symSize: 0x20 }
  - { offset: 0x271826, size: 0x8, addend: 0x0, symName: _alEventCallbackSOFT, symObjAddr: 0x6F0, symBinAddr: 0xC6A60, symSize: 0x60 }
  - { offset: 0x27194E, size: 0x8, addend: 0x0, symName: _alEventCallbackDirectSOFT, symObjAddr: 0x800, symBinAddr: 0x1B8E0, symSize: 0x20 }
  - { offset: 0x271997, size: 0x8, addend: 0x0, symName: _alEventCallbackDirectSOFT, symObjAddr: 0x800, symBinAddr: 0x1B8E0, symSize: 0x20 }
  - { offset: 0x2719B4, size: 0x8, addend: 0x0, symName: _alEventCallbackDirectSOFT, symObjAddr: 0x800, symBinAddr: 0x1B8E0, symSize: 0x20 }
  - { offset: 0x2719C8, size: 0x8, addend: 0x0, symName: _alEventCallbackDirectSOFT, symObjAddr: 0x800, symBinAddr: 0x1B8E0, symSize: 0x20 }
  - { offset: 0x2719E5, size: 0x8, addend: 0x0, symName: _alEventCallbackDirectSOFT, symObjAddr: 0x800, symBinAddr: 0x1B8E0, symSize: 0x20 }
  - { offset: 0x271E27, size: 0x8, addend: 0x0, symName: '__ZNSt3__116__variant_detail12__visitation6__base12__dispatcherIJLm0EEE10__dispatchB8fe200100IONS1_9__variant15__value_visitorIN12_GLOBAL__N_110overloadedIJZNS8_11EventThreadEN3gsl8not_nullIPN2al7ContextEEEE3$_0ZNS8_11EventThreadESF_E3$_1ZNS8_11EventThreadESF_E3$_2ZNS8_11EventThreadESF_E3$_3ZNS8_11EventThreadESF_E3$_4EEEEEJRNS0_6__baseILNS0_6_TraitE1EJNS_9monostateE21AsyncSourceStateEvent24AsyncBufferCompleteEvent23AsyncEffectReleaseEvent20AsyncDisconnectEventEEEEEEDcT_DpT0_', symObjAddr: 0xBC0, symBinAddr: 0x1BC50, symSize: 0x10 }
  - { offset: 0x272212, size: 0x8, addend: 0x0, symName: '__ZNSt3__116__variant_detail12__visitation6__base12__dispatcherIJLm1EEE10__dispatchB8fe200100IONS1_9__variant15__value_visitorIN12_GLOBAL__N_110overloadedIJZNS8_11EventThreadEN3gsl8not_nullIPN2al7ContextEEEE3$_0ZNS8_11EventThreadESF_E3$_1ZNS8_11EventThreadESF_E3$_2ZNS8_11EventThreadESF_E3$_3ZNS8_11EventThreadESF_E3$_4EEEEEJRNS0_6__baseILNS0_6_TraitE1EJNS_9monostateE21AsyncSourceStateEvent24AsyncBufferCompleteEvent23AsyncEffectReleaseEvent20AsyncDisconnectEventEEEEEEDcT_DpT0_', symObjAddr: 0xBD0, symBinAddr: 0x1BC60, symSize: 0x120 }
  - { offset: 0x272791, size: 0x8, addend: 0x0, symName: '__ZNSt3__116__variant_detail12__visitation6__base12__dispatcherIJLm2EEE10__dispatchB8fe200100IONS1_9__variant15__value_visitorIN12_GLOBAL__N_110overloadedIJZNS8_11EventThreadEN3gsl8not_nullIPN2al7ContextEEEE3$_0ZNS8_11EventThreadESF_E3$_1ZNS8_11EventThreadESF_E3$_2ZNS8_11EventThreadESF_E3$_3ZNS8_11EventThreadESF_E3$_4EEEEEJRNS0_6__baseILNS0_6_TraitE1EJNS_9monostateE21AsyncSourceStateEvent24AsyncBufferCompleteEvent23AsyncEffectReleaseEvent20AsyncDisconnectEventEEEEEEDcT_DpT0_', symObjAddr: 0xCF0, symBinAddr: 0x1BD80, symSize: 0xF0 }
  - { offset: 0x272D14, size: 0x8, addend: 0x0, symName: '__ZNSt3__116__variant_detail12__visitation6__base12__dispatcherIJLm3EEE10__dispatchB8fe200100IONS1_9__variant15__value_visitorIN12_GLOBAL__N_110overloadedIJZNS8_11EventThreadEN3gsl8not_nullIPN2al7ContextEEEE3$_0ZNS8_11EventThreadESF_E3$_1ZNS8_11EventThreadESF_E3$_2ZNS8_11EventThreadESF_E3$_3ZNS8_11EventThreadESF_E3$_4EEEEEJRNS0_6__baseILNS0_6_TraitE1EJNS_9monostateE21AsyncSourceStateEvent24AsyncBufferCompleteEvent23AsyncEffectReleaseEvent20AsyncDisconnectEventEEEEEEDcT_DpT0_', symObjAddr: 0xDE0, symBinAddr: 0x1BE70, symSize: 0x20 }
  - { offset: 0x272EE9, size: 0x8, addend: 0x0, symName: '__ZNSt3__116__variant_detail12__visitation6__base12__dispatcherIJLm4EEE10__dispatchB8fe200100IONS1_9__variant15__value_visitorIN12_GLOBAL__N_110overloadedIJZNS8_11EventThreadEN3gsl8not_nullIPN2al7ContextEEEE3$_0ZNS8_11EventThreadESF_E3$_1ZNS8_11EventThreadESF_E3$_2ZNS8_11EventThreadESF_E3$_3ZNS8_11EventThreadESF_E3$_4EEEEEJRNS0_6__baseILNS0_6_TraitE1EJNS_9monostateE21AsyncSourceStateEvent24AsyncBufferCompleteEvent23AsyncEffectReleaseEvent20AsyncDisconnectEventEEEEEEDcT_DpT0_', symObjAddr: 0xE00, symBinAddr: 0x1BE90, symSize: 0x60 }
  - { offset: 0x27313C, size: 0x8, addend: 0x0, symName: __ZNSt3__116__variant_detail12__visitation6__base12__dispatcherIJLm0EEE10__dispatchB8fe200100IOZNS0_6__dtorINS0_8__traitsIJNS_9monostateE21AsyncSourceStateEvent24AsyncBufferCompleteEvent23AsyncEffectReleaseEvent20AsyncDisconnectEventEEELNS0_6_TraitE1EE9__destroyB8fe200100EvEUlRT_E_JRNS0_6__baseILSE_1EJS8_S9_SA_SB_SC_EEEEEEDcSG_DpT0_, symObjAddr: 0xE70, symBinAddr: 0x1BEF0, symSize: 0x10 }
  - { offset: 0x273183, size: 0x8, addend: 0x0, symName: __ZNSt3__116__variant_detail12__visitation6__base12__dispatcherIJLm1EEE10__dispatchB8fe200100IOZNS0_6__dtorINS0_8__traitsIJNS_9monostateE21AsyncSourceStateEvent24AsyncBufferCompleteEvent23AsyncEffectReleaseEvent20AsyncDisconnectEventEEELNS0_6_TraitE1EE9__destroyB8fe200100EvEUlRT_E_JRNS0_6__baseILSE_1EJS8_S9_SA_SB_SC_EEEEEEDcSG_DpT0_, symObjAddr: 0xE80, symBinAddr: 0x1BF00, symSize: 0x10 }
  - { offset: 0x2731CA, size: 0x8, addend: 0x0, symName: __ZNSt3__116__variant_detail12__visitation6__base12__dispatcherIJLm2EEE10__dispatchB8fe200100IOZNS0_6__dtorINS0_8__traitsIJNS_9monostateE21AsyncSourceStateEvent24AsyncBufferCompleteEvent23AsyncEffectReleaseEvent20AsyncDisconnectEventEEELNS0_6_TraitE1EE9__destroyB8fe200100EvEUlRT_E_JRNS0_6__baseILSE_1EJS8_S9_SA_SB_SC_EEEEEEDcSG_DpT0_, symObjAddr: 0xE90, symBinAddr: 0x1BF10, symSize: 0x10 }
  - { offset: 0x273211, size: 0x8, addend: 0x0, symName: __ZNSt3__116__variant_detail12__visitation6__base12__dispatcherIJLm3EEE10__dispatchB8fe200100IOZNS0_6__dtorINS0_8__traitsIJNS_9monostateE21AsyncSourceStateEvent24AsyncBufferCompleteEvent23AsyncEffectReleaseEvent20AsyncDisconnectEventEEELNS0_6_TraitE1EE9__destroyB8fe200100EvEUlRT_E_JRNS0_6__baseILSE_1EJS8_S9_SA_SB_SC_EEEEEEDcSG_DpT0_, symObjAddr: 0xEA0, symBinAddr: 0x1BF20, symSize: 0x10 }
  - { offset: 0x273324, size: 0x8, addend: 0x0, symName: __ZNSt3__116__variant_detail12__visitation6__base12__dispatcherIJLm4EEE10__dispatchB8fe200100IOZNS0_6__dtorINS0_8__traitsIJNS_9monostateE21AsyncSourceStateEvent24AsyncBufferCompleteEvent23AsyncEffectReleaseEvent20AsyncDisconnectEventEEELNS0_6_TraitE1EE9__destroyB8fe200100EvEUlRT_E_JRNS0_6__baseILSE_1EJS8_S9_SA_SB_SC_EEEEEEDcSG_DpT0_, symObjAddr: 0xEB0, symBinAddr: 0x1BF30, symSize: 0x20 }
  - { offset: 0x2739B8, size: 0x8, addend: 0x0, symName: __ZNSt3__110unique_ptrINS_5tupleIJNS0_INS_15__thread_structENS_14default_deleteIS2_EEEEPFvN3gsl8not_nullIPN2al7ContextEEEESA_EEENS3_ISE_EEED1B8fe200100Ev, symObjAddr: 0x1070, symBinAddr: 0x1C090, symSize: 0x50 }
  - { offset: 0x273B62, size: 0x8, addend: 0x0, symName: __ZNSt3__110unique_ptrINS_15__thread_structENS_14default_deleteIS1_EEED1B8fe200100Ev, symObjAddr: 0x10C0, symBinAddr: 0x1C0E0, symSize: 0x40 }
  - { offset: 0x284E55, size: 0x8, addend: 0x0, symName: _alIsExtensionPresent, symObjAddr: 0x0, symBinAddr: 0x1C120, symSize: 0xA0 }
  - { offset: 0x28503B, size: 0x8, addend: 0x0, symName: _alIsExtensionPresent.cold.1, symObjAddr: 0x1F0, symBinAddr: 0xC6B10, symSize: 0x70 }
  - { offset: 0x2853C5, size: 0x8, addend: 0x0, symName: _alIsExtensionPresentDirect, symObjAddr: 0xA0, symBinAddr: 0x1C1C0, symSize: 0xB0 }
  - { offset: 0x2856BD, size: 0x8, addend: 0x0, symName: _alGetProcAddress, symObjAddr: 0x160, symBinAddr: 0x1C270, symSize: 0x20 }
  - { offset: 0x28573E, size: 0x8, addend: 0x0, symName: _alGetProcAddressDirect, symObjAddr: 0x180, symBinAddr: 0x1C290, symSize: 0x20 }
  - { offset: 0x285787, size: 0x8, addend: 0x0, symName: _alGetEnumValue, symObjAddr: 0x1A0, symBinAddr: 0x1C2B0, symSize: 0x20 }
  - { offset: 0x2857DE, size: 0x8, addend: 0x0, symName: _alGetEnumValueDirect, symObjAddr: 0x1C0, symBinAddr: 0x1C2D0, symSize: 0x20 }
  - { offset: 0x2A65A3, size: 0x8, addend: 0x0, symName: __ZN12_GLOBAL__N_19alFilteriEN3gsl8not_nullIPN2al7ContextEEEjii, symObjAddr: 0x1310, symBinAddr: 0x1D480, symSize: 0x200 }
  - { offset: 0x2A6B81, size: 0x8, addend: 0x0, symName: __ZN12_GLOBAL__N_110alFilterivEN3gsl8not_nullIPN2al7ContextEEEjiPKi, symObjAddr: 0x15A0, symBinAddr: 0x1D6A0, symSize: 0x1D0 }
  - { offset: 0x2A714E, size: 0x8, addend: 0x0, symName: __ZN12_GLOBAL__N_19alFilterfEN3gsl8not_nullIPN2al7ContextEEEjif, symObjAddr: 0x1800, symBinAddr: 0x1D890, symSize: 0x1A0 }
  - { offset: 0x2A76E0, size: 0x8, addend: 0x0, symName: __ZN12_GLOBAL__N_110alFilterfvEN3gsl8not_nullIPN2al7ContextEEEjiPKf, symObjAddr: 0x1A30, symBinAddr: 0x1DA50, symSize: 0x1A0 }
  - { offset: 0x2A7C73, size: 0x8, addend: 0x0, symName: __ZN12_GLOBAL__N_112alGetFilteriEN3gsl8not_nullIPN2al7ContextEEEjiPi, symObjAddr: 0x1C60, symBinAddr: 0x1DC10, symSize: 0x1B0 }
  - { offset: 0x2A8206, size: 0x8, addend: 0x0, symName: __ZN12_GLOBAL__N_113alGetFilterivEN3gsl8not_nullIPN2al7ContextEEEjiPi, symObjAddr: 0x1EA0, symBinAddr: 0x1DDE0, symSize: 0x1D0 }
  - { offset: 0x2A87D3, size: 0x8, addend: 0x0, symName: __ZN12_GLOBAL__N_112alGetFilterfEN3gsl8not_nullIPN2al7ContextEEEjiPf, symObjAddr: 0x2100, symBinAddr: 0x1DFD0, symSize: 0x1A0 }
  - { offset: 0x2A8D66, size: 0x8, addend: 0x0, symName: __ZN12_GLOBAL__N_113alGetFilterfvEN3gsl8not_nullIPN2al7ContextEEEjiPf, symObjAddr: 0x2330, symBinAddr: 0x1E190, symSize: 0x1A0 }
  - { offset: 0x2A92F9, size: 0x8, addend: 0x0, symName: __ZN12_GLOBAL__N_112alGenFiltersEN3gsl8not_nullIPN2al7ContextEEEiPj, symObjAddr: 0xAA0, symBinAddr: 0x1CCF0, symSize: 0x3E0 }
  - { offset: 0x2A9A99, size: 0x8, addend: 0x0, symName: __ZN12_GLOBAL__N_115alDeleteFiltersEN3gsl8not_nullIPN2al7ContextEEEiPKj, symObjAddr: 0xF10, symBinAddr: 0x1D0F0, symSize: 0x240 }
  - { offset: 0x2AA3A9, size: 0x8, addend: 0x0, symName: __ZN11FilterTableI15NullFilterTableE9setParamiEN3gsl8not_nullIPN2al7ContextEEENS3_IPNS4_6FilterEEEii, symObjAddr: 0x0, symBinAddr: 0x1C2F0, symSize: 0x30 }
  - { offset: 0x2AA46E, size: 0x8, addend: 0x0, symName: __ZN11FilterTableI15NullFilterTableE10setParamivEN3gsl8not_nullIPN2al7ContextEEENS3_IPNS4_6FilterEEEiPKi, symObjAddr: 0x50, symBinAddr: 0x1C320, symSize: 0x30 }
  - { offset: 0x2AA4D0, size: 0x8, addend: 0x0, symName: __ZN11FilterTableI15NullFilterTableE9setParamfEN3gsl8not_nullIPN2al7ContextEEENS3_IPNS4_6FilterEEEif, symObjAddr: 0x80, symBinAddr: 0x1C350, symSize: 0x30 }
  - { offset: 0x2AA532, size: 0x8, addend: 0x0, symName: __ZN11FilterTableI15NullFilterTableE10setParamfvEN3gsl8not_nullIPN2al7ContextEEENS3_IPNS4_6FilterEEEiPKf, symObjAddr: 0xB0, symBinAddr: 0x1C380, symSize: 0x30 }
  - { offset: 0x2AA594, size: 0x8, addend: 0x0, symName: __ZN11FilterTableI15NullFilterTableE9getParamiEN3gsl8not_nullIPN2al7ContextEEENS3_IPKNS4_6FilterEEEiPi, symObjAddr: 0xE0, symBinAddr: 0x1C3B0, symSize: 0x30 }
  - { offset: 0x2AA5F6, size: 0x8, addend: 0x0, symName: __ZN11FilterTableI15NullFilterTableE10getParamivEN3gsl8not_nullIPN2al7ContextEEENS3_IPKNS4_6FilterEEEiPi, symObjAddr: 0x110, symBinAddr: 0x1C3E0, symSize: 0x30 }
  - { offset: 0x2AA658, size: 0x8, addend: 0x0, symName: __ZN11FilterTableI15NullFilterTableE9getParamfEN3gsl8not_nullIPN2al7ContextEEENS3_IPKNS4_6FilterEEEiPf, symObjAddr: 0x140, symBinAddr: 0x1C410, symSize: 0x30 }
  - { offset: 0x2AA6BA, size: 0x8, addend: 0x0, symName: __ZN11FilterTableI15NullFilterTableE10getParamfvEN3gsl8not_nullIPN2al7ContextEEENS3_IPKNS4_6FilterEEEiPf, symObjAddr: 0x170, symBinAddr: 0x1C440, symSize: 0x30 }
  - { offset: 0x2AA71C, size: 0x8, addend: 0x0, symName: __ZN11FilterTableI18LowpassFilterTableE9setParamiEN3gsl8not_nullIPN2al7ContextEEENS3_IPNS4_6FilterEEEii, symObjAddr: 0x1A0, symBinAddr: 0x1C470, symSize: 0x30 }
  - { offset: 0x2AA876, size: 0x8, addend: 0x0, symName: __ZN11FilterTableI18LowpassFilterTableE10setParamivEN3gsl8not_nullIPN2al7ContextEEENS3_IPNS4_6FilterEEEiPKi, symObjAddr: 0x1D0, symBinAddr: 0x1C4A0, symSize: 0x40 }
  - { offset: 0x2AA956, size: 0x8, addend: 0x0, symName: __ZN11FilterTableI18LowpassFilterTableE9setParamfEN3gsl8not_nullIPN2al7ContextEEENS3_IPNS4_6FilterEEEif, symObjAddr: 0x210, symBinAddr: 0x1C4E0, symSize: 0xB0 }
  - { offset: 0x2AAA80, size: 0x8, addend: 0x0, symName: __ZN11FilterTableI18LowpassFilterTableE10setParamfvEN3gsl8not_nullIPN2al7ContextEEENS3_IPNS4_6FilterEEEiPKf, symObjAddr: 0x2E0, symBinAddr: 0x1C590, symSize: 0xC0 }
  - { offset: 0x2AABCC, size: 0x8, addend: 0x0, symName: __ZN11FilterTableI18LowpassFilterTableE9getParamiEN3gsl8not_nullIPN2al7ContextEEENS3_IPKNS4_6FilterEEEiPi, symObjAddr: 0x3A0, symBinAddr: 0x1C650, symSize: 0x30 }
  - { offset: 0x2AACC2, size: 0x8, addend: 0x0, symName: __ZN11FilterTableI18LowpassFilterTableE10getParamivEN3gsl8not_nullIPN2al7ContextEEENS3_IPKNS4_6FilterEEEiPi, symObjAddr: 0x3D0, symBinAddr: 0x1C680, symSize: 0x40 }
  - { offset: 0x2AADA2, size: 0x8, addend: 0x0, symName: __ZN11FilterTableI18LowpassFilterTableE9getParamfEN3gsl8not_nullIPN2al7ContextEEENS3_IPKNS4_6FilterEEEiPf, symObjAddr: 0x410, symBinAddr: 0x1C6C0, symSize: 0x50 }
  - { offset: 0x2AAE33, size: 0x8, addend: 0x0, symName: __ZN11FilterTableI18LowpassFilterTableE10getParamfvEN3gsl8not_nullIPN2al7ContextEEENS3_IPKNS4_6FilterEEEiPf, symObjAddr: 0x460, symBinAddr: 0x1C710, symSize: 0x60 }
  - { offset: 0x2AAF1F, size: 0x8, addend: 0x0, symName: __ZN11FilterTableI19HighpassFilterTableE9setParamiEN3gsl8not_nullIPN2al7ContextEEENS3_IPNS4_6FilterEEEii, symObjAddr: 0x4C0, symBinAddr: 0x1C770, symSize: 0x30 }
  - { offset: 0x2AAFB1, size: 0x8, addend: 0x0, symName: __ZN11FilterTableI19HighpassFilterTableE10setParamivEN3gsl8not_nullIPN2al7ContextEEENS3_IPNS4_6FilterEEEiPKi, symObjAddr: 0x4F0, symBinAddr: 0x1C7A0, symSize: 0x40 }
  - { offset: 0x2AB091, size: 0x8, addend: 0x0, symName: __ZN11FilterTableI19HighpassFilterTableE9setParamfEN3gsl8not_nullIPN2al7ContextEEENS3_IPNS4_6FilterEEEif, symObjAddr: 0x530, symBinAddr: 0x1C7E0, symSize: 0xB0 }
  - { offset: 0x2AB165, size: 0x8, addend: 0x0, symName: __ZN11FilterTableI19HighpassFilterTableE10setParamfvEN3gsl8not_nullIPN2al7ContextEEENS3_IPNS4_6FilterEEEiPKf, symObjAddr: 0x5E0, symBinAddr: 0x1C890, symSize: 0xC0 }
  - { offset: 0x2AB2B2, size: 0x8, addend: 0x0, symName: __ZN11FilterTableI19HighpassFilterTableE9getParamiEN3gsl8not_nullIPN2al7ContextEEENS3_IPKNS4_6FilterEEEiPi, symObjAddr: 0x6A0, symBinAddr: 0x1C950, symSize: 0x30 }
  - { offset: 0x2AB344, size: 0x8, addend: 0x0, symName: __ZN11FilterTableI19HighpassFilterTableE10getParamivEN3gsl8not_nullIPN2al7ContextEEENS3_IPKNS4_6FilterEEEiPi, symObjAddr: 0x6D0, symBinAddr: 0x1C980, symSize: 0x40 }
  - { offset: 0x2AB424, size: 0x8, addend: 0x0, symName: __ZN11FilterTableI19HighpassFilterTableE9getParamfEN3gsl8not_nullIPN2al7ContextEEENS3_IPKNS4_6FilterEEEiPf, symObjAddr: 0x710, symBinAddr: 0x1C9C0, symSize: 0x50 }
  - { offset: 0x2AB4B5, size: 0x8, addend: 0x0, symName: __ZN11FilterTableI19HighpassFilterTableE10getParamfvEN3gsl8not_nullIPN2al7ContextEEENS3_IPKNS4_6FilterEEEiPf, symObjAddr: 0x760, symBinAddr: 0x1CA10, symSize: 0x60 }
  - { offset: 0x2AB5A1, size: 0x8, addend: 0x0, symName: __ZN11FilterTableI19BandpassFilterTableE9setParamiEN3gsl8not_nullIPN2al7ContextEEENS3_IPNS4_6FilterEEEii, symObjAddr: 0x7C0, symBinAddr: 0x1CA70, symSize: 0x30 }
  - { offset: 0x2AB633, size: 0x8, addend: 0x0, symName: __ZN11FilterTableI19BandpassFilterTableE10setParamivEN3gsl8not_nullIPN2al7ContextEEENS3_IPNS4_6FilterEEEiPKi, symObjAddr: 0x7F0, symBinAddr: 0x1CAA0, symSize: 0x40 }
  - { offset: 0x2AB713, size: 0x8, addend: 0x0, symName: __ZN11FilterTableI19BandpassFilterTableE9setParamfEN3gsl8not_nullIPN2al7ContextEEENS3_IPNS4_6FilterEEEif, symObjAddr: 0x830, symBinAddr: 0x1CAE0, symSize: 0xD0 }
  - { offset: 0x2AB7CF, size: 0x8, addend: 0x0, symName: __ZN11FilterTableI19BandpassFilterTableE10setParamfvEN3gsl8not_nullIPN2al7ContextEEENS3_IPNS4_6FilterEEEiPKf, symObjAddr: 0x900, symBinAddr: 0x1CBB0, symSize: 0x20 }
  - { offset: 0x2AB876, size: 0x8, addend: 0x0, symName: __ZN11FilterTableI19BandpassFilterTableE9getParamiEN3gsl8not_nullIPN2al7ContextEEENS3_IPKNS4_6FilterEEEiPi, symObjAddr: 0x920, symBinAddr: 0x1CBD0, symSize: 0x30 }
  - { offset: 0x2AB908, size: 0x8, addend: 0x0, symName: __ZN11FilterTableI19BandpassFilterTableE10getParamivEN3gsl8not_nullIPN2al7ContextEEENS3_IPKNS4_6FilterEEEiPi, symObjAddr: 0x950, symBinAddr: 0x1CC00, symSize: 0x40 }
  - { offset: 0x2AB9E8, size: 0x8, addend: 0x0, symName: __ZN11FilterTableI19BandpassFilterTableE9getParamfEN3gsl8not_nullIPN2al7ContextEEENS3_IPKNS4_6FilterEEEiPf, symObjAddr: 0x990, symBinAddr: 0x1CC40, symSize: 0x50 }
  - { offset: 0x2ABA79, size: 0x8, addend: 0x0, symName: __ZN11FilterTableI19BandpassFilterTableE10getParamfvEN3gsl8not_nullIPN2al7ContextEEENS3_IPKNS4_6FilterEEEiPf, symObjAddr: 0x9E0, symBinAddr: 0x1CC90, symSize: 0x60 }
  - { offset: 0x2ABC1B, size: 0x8, addend: 0x0, symName: _alGenFilters, symObjAddr: 0xA40, symBinAddr: 0xC6B80, symSize: 0x60 }
  - { offset: 0x2AC243, size: 0x8, addend: 0x0, symName: __ZNSt3__16vectorI13FilterSubListNS_9allocatorIS1_EEE24__emplace_back_slow_pathIJS1_EEEPS1_DpOT_, symObjAddr: 0x2730, symBinAddr: 0x1E450, symSize: 0x190 }
  - { offset: 0x2AC883, size: 0x8, addend: 0x0, symName: __ZN12_GLOBAL__N_112alGenFiltersEN3gsl8not_nullIPN2al7ContextEEEiPj.cold.1, symObjAddr: 0x4020, symBinAddr: 0xC6FC0, symSize: 0xB0 }
  - { offset: 0x2ACCF5, size: 0x8, addend: 0x0, symName: _alGenFiltersDirect, symObjAddr: 0xE80, symBinAddr: 0x1D0D0, symSize: 0x20 }
  - { offset: 0x2ACD3F, size: 0x8, addend: 0x0, symName: _alGenFiltersDirect, symObjAddr: 0xE80, symBinAddr: 0x1D0D0, symSize: 0x20 }
  - { offset: 0x2ACD5D, size: 0x8, addend: 0x0, symName: _alGenFiltersDirect, symObjAddr: 0xE80, symBinAddr: 0x1D0D0, symSize: 0x20 }
  - { offset: 0x2ACD71, size: 0x8, addend: 0x0, symName: _alGenFiltersDirect, symObjAddr: 0xE80, symBinAddr: 0x1D0D0, symSize: 0x20 }
  - { offset: 0x2ACD8E, size: 0x8, addend: 0x0, symName: _alGenFiltersDirect, symObjAddr: 0xE80, symBinAddr: 0x1D0D0, symSize: 0x20 }
  - { offset: 0x2ACDC9, size: 0x8, addend: 0x0, symName: _alDeleteFilters, symObjAddr: 0xEB0, symBinAddr: 0xC6BE0, symSize: 0x60 }
  - { offset: 0x2AD4AF, size: 0x8, addend: 0x0, symName: _alDeleteFiltersDirect, symObjAddr: 0x1150, symBinAddr: 0x1D330, symSize: 0x20 }
  - { offset: 0x2AD4F9, size: 0x8, addend: 0x0, symName: _alDeleteFiltersDirect, symObjAddr: 0x1150, symBinAddr: 0x1D330, symSize: 0x20 }
  - { offset: 0x2AD517, size: 0x8, addend: 0x0, symName: _alDeleteFiltersDirect, symObjAddr: 0x1150, symBinAddr: 0x1D330, symSize: 0x20 }
  - { offset: 0x2AD52B, size: 0x8, addend: 0x0, symName: _alDeleteFiltersDirect, symObjAddr: 0x1150, symBinAddr: 0x1D330, symSize: 0x20 }
  - { offset: 0x2AD548, size: 0x8, addend: 0x0, symName: _alDeleteFiltersDirect, symObjAddr: 0x1150, symBinAddr: 0x1D330, symSize: 0x20 }
  - { offset: 0x2AD583, size: 0x8, addend: 0x0, symName: _alIsFilter, symObjAddr: 0x1170, symBinAddr: 0x1D350, symSize: 0xD0 }
  - { offset: 0x2AD871, size: 0x8, addend: 0x0, symName: _alIsFilterDirect, symObjAddr: 0x1240, symBinAddr: 0x1D420, symSize: 0x60 }
  - { offset: 0x2ADA76, size: 0x8, addend: 0x0, symName: _alIsFilterDirect.cold.1, symObjAddr: 0x40D0, symBinAddr: 0xC7070, symSize: 0x58 }
  - { offset: 0x2ADA91, size: 0x8, addend: 0x0, symName: _alIsFilterDirect.cold.1, symObjAddr: 0x40D0, symBinAddr: 0xC7070, symSize: 0x58 }
  - { offset: 0x2ADB34, size: 0x8, addend: 0x0, symName: _alFilteri, symObjAddr: 0x12A0, symBinAddr: 0xC6C40, symSize: 0x70 }
  - { offset: 0x2ADDCF, size: 0x8, addend: 0x0, symName: _alFilteriDirect, symObjAddr: 0x1510, symBinAddr: 0x1D680, symSize: 0x20 }
  - { offset: 0x2ADE29, size: 0x8, addend: 0x0, symName: _alFilteriDirect, symObjAddr: 0x1510, symBinAddr: 0x1D680, symSize: 0x20 }
  - { offset: 0x2ADE47, size: 0x8, addend: 0x0, symName: _alFilteriDirect, symObjAddr: 0x1510, symBinAddr: 0x1D680, symSize: 0x20 }
  - { offset: 0x2ADE5B, size: 0x8, addend: 0x0, symName: _alFilteriDirect, symObjAddr: 0x1510, symBinAddr: 0x1D680, symSize: 0x20 }
  - { offset: 0x2ADE78, size: 0x8, addend: 0x0, symName: _alFilteriDirect, symObjAddr: 0x1510, symBinAddr: 0x1D680, symSize: 0x20 }
  - { offset: 0x2ADEB3, size: 0x8, addend: 0x0, symName: _alFilteriv, symObjAddr: 0x1530, symBinAddr: 0xC6CB0, symSize: 0x70 }
  - { offset: 0x2AE0F4, size: 0x8, addend: 0x0, symName: _alFilterivDirect, symObjAddr: 0x1770, symBinAddr: 0x1D870, symSize: 0x20 }
  - { offset: 0x2AE14E, size: 0x8, addend: 0x0, symName: _alFilterivDirect, symObjAddr: 0x1770, symBinAddr: 0x1D870, symSize: 0x20 }
  - { offset: 0x2AE16C, size: 0x8, addend: 0x0, symName: _alFilterivDirect, symObjAddr: 0x1770, symBinAddr: 0x1D870, symSize: 0x20 }
  - { offset: 0x2AE180, size: 0x8, addend: 0x0, symName: _alFilterivDirect, symObjAddr: 0x1770, symBinAddr: 0x1D870, symSize: 0x20 }
  - { offset: 0x2AE19D, size: 0x8, addend: 0x0, symName: _alFilterivDirect, symObjAddr: 0x1770, symBinAddr: 0x1D870, symSize: 0x20 }
  - { offset: 0x2AE1D8, size: 0x8, addend: 0x0, symName: _alFilterf, symObjAddr: 0x1790, symBinAddr: 0xC6D20, symSize: 0x70 }
  - { offset: 0x2AE41B, size: 0x8, addend: 0x0, symName: _alFilterfDirect, symObjAddr: 0x19A0, symBinAddr: 0x1DA30, symSize: 0x20 }
  - { offset: 0x2AE475, size: 0x8, addend: 0x0, symName: _alFilterfDirect, symObjAddr: 0x19A0, symBinAddr: 0x1DA30, symSize: 0x20 }
  - { offset: 0x2AE493, size: 0x8, addend: 0x0, symName: _alFilterfDirect, symObjAddr: 0x19A0, symBinAddr: 0x1DA30, symSize: 0x20 }
  - { offset: 0x2AE4A7, size: 0x8, addend: 0x0, symName: _alFilterfDirect, symObjAddr: 0x19A0, symBinAddr: 0x1DA30, symSize: 0x20 }
  - { offset: 0x2AE4C4, size: 0x8, addend: 0x0, symName: _alFilterfDirect, symObjAddr: 0x19A0, symBinAddr: 0x1DA30, symSize: 0x20 }
  - { offset: 0x2AE4FF, size: 0x8, addend: 0x0, symName: _alFilterfv, symObjAddr: 0x19C0, symBinAddr: 0xC6D90, symSize: 0x70 }
  - { offset: 0x2AE740, size: 0x8, addend: 0x0, symName: _alFilterfvDirect, symObjAddr: 0x1BD0, symBinAddr: 0x1DBF0, symSize: 0x20 }
  - { offset: 0x2AE79A, size: 0x8, addend: 0x0, symName: _alFilterfvDirect, symObjAddr: 0x1BD0, symBinAddr: 0x1DBF0, symSize: 0x20 }
  - { offset: 0x2AE7B8, size: 0x8, addend: 0x0, symName: _alFilterfvDirect, symObjAddr: 0x1BD0, symBinAddr: 0x1DBF0, symSize: 0x20 }
  - { offset: 0x2AE7CC, size: 0x8, addend: 0x0, symName: _alFilterfvDirect, symObjAddr: 0x1BD0, symBinAddr: 0x1DBF0, symSize: 0x20 }
  - { offset: 0x2AE7E9, size: 0x8, addend: 0x0, symName: _alFilterfvDirect, symObjAddr: 0x1BD0, symBinAddr: 0x1DBF0, symSize: 0x20 }
  - { offset: 0x2AE824, size: 0x8, addend: 0x0, symName: _alGetFilteri, symObjAddr: 0x1BF0, symBinAddr: 0xC6E00, symSize: 0x70 }
  - { offset: 0x2AEA65, size: 0x8, addend: 0x0, symName: _alGetFilteriDirect, symObjAddr: 0x1E10, symBinAddr: 0x1DDC0, symSize: 0x20 }
  - { offset: 0x2AEABF, size: 0x8, addend: 0x0, symName: _alGetFilteriDirect, symObjAddr: 0x1E10, symBinAddr: 0x1DDC0, symSize: 0x20 }
  - { offset: 0x2AEADD, size: 0x8, addend: 0x0, symName: _alGetFilteriDirect, symObjAddr: 0x1E10, symBinAddr: 0x1DDC0, symSize: 0x20 }
  - { offset: 0x2AEAF1, size: 0x8, addend: 0x0, symName: _alGetFilteriDirect, symObjAddr: 0x1E10, symBinAddr: 0x1DDC0, symSize: 0x20 }
