---
triple:          'arm64-apple-darwin'
binary-path:     libopenal.1.dylib
relocations:
  - { offset: 0x30EB3, size: 0x8, addend: 0x0, symName: __ZNSt3__111__introsortINS_15_RangeAlgPolicyERNS_6ranges4lessEPP14EffectSlotBaseLb0EEEvT1_S8_T0_NS_15iterator_traitsIS8_E15difference_typeEb, symObjAddr: 0x3E10, symBinAddr: 0x6230, symSize: 0x884 }
  - { offset: 0x32C53, size: 0x8, addend: 0x0, symName: __ZNSt3__127__insertion_sort_incompleteB8fe200100INS_15_RangeAlgPolicyERNS_6ranges4lessEPP14EffectSlotBaseEEbT1_S8_T0_, symObjAddr: 0x4694, symBinAddr: 0x6AB4, symSize: 0x3A8 }
  - { offset: 0x34B31, size: 0x8, addend: 0x0, symName: __ZNSt3__120__throw_length_errorB8fe200100EPKc, symObjAddr: 0x3378, symBinAddr: 0x57E0, symSize: 0x50 }
  - { offset: 0x35C29, size: 0x8, addend: 0x0, symName: __ZNSt3__119__partial_sort_implB8fe200100INS_15_RangeAlgPolicyERNS_6ranges4lessEPP14EffectSlotBaseS7_EET1_S8_S8_T2_OT0_, symObjAddr: 0x4A3C, symBinAddr: 0x6E5C, symSize: 0x2F8 }
  - { offset: 0x37C60, size: 0x8, addend: 0x0, symName: __ZSt28__throw_bad_array_new_lengthB8fe200100v, symObjAddr: 0x33EC, symBinAddr: 0x5854, symSize: 0x28 }
  - { offset: 0x3B82E, size: 0x8, addend: 0x0, symName: __ZN3gsl7details9terminateEv, symObjAddr: 0x3414, symBinAddr: 0x587C, symSize: 0xC }
  - { offset: 0x4503E, size: 0x8, addend: 0x0, symName: _alGenAuxiliaryEffectSlots, symObjAddr: 0x0, symBinAddr: 0xAB3A0, symSize: 0x50 }
  - { offset: 0x45147, size: 0x8, addend: 0x0, symName: _OUTLINED_FUNCTION_1, symObjAddr: 0x5614, symBinAddr: 0x781C, symSize: 0x10 }
  - { offset: 0x45161, size: 0x8, addend: 0x0, symName: __ZN12_GLOBAL__N_125alGenAuxiliaryEffectSlotsEN3gsl8not_nullIPN2al7ContextEEEiPj, symObjAddr: 0x50, symBinAddr: 0x29F8, symSize: 0x750 }
  - { offset: 0x467D4, size: 0x8, addend: 0x0, symName: __ZN12_GLOBAL__N_115AllocEffectSlotEN3gsl8not_nullIPN2al7ContextEEE, symObjAddr: 0x3190, symBinAddr: 0x55F8, symSize: 0xC8 }
  - { offset: 0x46B07, size: 0x8, addend: 0x0, symName: __Z3ERRIJmRKiPKcEEvN3fmt10alsoft_v117fstringIJDpT_EE1tEDpOS7_, symObjAddr: 0x3258, symBinAddr: 0x56C0, symSize: 0x64 }
  - { offset: 0x46B12, size: 0x8, addend: 0x0, symName: __ZN12_GLOBAL__N_128alDeleteAuxiliaryEffectSlotsEN3gsl8not_nullIPN2al7ContextEEEiPKj, symObjAddr: 0x814, symBinAddr: 0x316C, symSize: 0x3DC }
  - { offset: 0x479D4, size: 0x8, addend: 0x0, symName: __ZN12_GLOBAL__N_123RemoveActiveEffectSlotsENSt3__14spanIKN3gsl8not_nullIPN2al10EffectSlotEEELm18446744073709551615EEENS3_IPNS4_7ContextEEE, symObjAddr: 0x3858, symBinAddr: 0x5CAC, symSize: 0x270 }
  - { offset: 0x487E6, size: 0x8, addend: 0x0, symName: __ZN12_GLOBAL__N_114FreeEffectSlotEN3gsl8not_nullIPN2al7ContextEEENS1_IPNS2_10EffectSlotEEE, symObjAddr: 0x3434, symBinAddr: 0x5888, symSize: 0x14C }
  - { offset: 0x48E55, size: 0x8, addend: 0x0, symName: __ZN12_GLOBAL__N_122alAuxiliaryEffectSlotiEN3gsl8not_nullIPN2al7ContextEEEjii, symObjAddr: 0xD6C, symBinAddr: 0x3670, symSize: 0x810 }
  - { offset: 0x4AE17, size: 0x8, addend: 0x0, symName: __ZN12_GLOBAL__N_116getFactoryByTypeE14EffectSlotType, symObjAddr: 0x2374, symBinAddr: 0x4A48, symSize: 0x1E8 }
  - { offset: 0x4B077, size: 0x8, addend: 0x0, symName: __ZN12_GLOBAL__N_120AddActiveEffectSlotsENSt3__14spanIKN3gsl8not_nullIPN2al10EffectSlotEEELm18446744073709551615EEENS3_IPNS4_7ContextEEE, symObjAddr: 0x3ADC, symBinAddr: 0x5F1C, symSize: 0x2D4 }
  - { offset: 0x4C601, size: 0x8, addend: 0x0, symName: __ZN12_GLOBAL__N_123alAuxiliaryEffectSlotivEN3gsl8not_nullIPN2al7ContextEEEjiPKi, symObjAddr: 0x15DC, symBinAddr: 0x3E94, symSize: 0x138 }
  - { offset: 0x4C7B4, size: 0x8, addend: 0x0, symName: __ZN12_GLOBAL__N_116LookupEffectSlotEN3gsl8not_nullIPN2al7ContextEEEj, symObjAddr: 0x2CE0, symBinAddr: 0x5148, symSize: 0x68 }
  - { offset: 0x4C874, size: 0x8, addend: 0x0, symName: __Z24UpdateAllEffectSlotPropsN3gsl8not_nullIPN2al7ContextEEE, symObjAddr: 0x2D48, symBinAddr: 0x51B0, symSize: 0xD8 }
  - { offset: 0x4C893, size: 0x8, addend: 0x0, symName: __ZN12_GLOBAL__N_122alAuxiliaryEffectSlotfEN3gsl8not_nullIPN2al7ContextEEEjif, symObjAddr: 0x1790, symBinAddr: 0x3FE0, symSize: 0x1FC }
  - { offset: 0x4CBD4, size: 0x8, addend: 0x0, symName: __ZN12_GLOBAL__N_123alAuxiliaryEffectSlotfvEN3gsl8not_nullIPN2al7ContextEEEjiPKf, symObjAddr: 0x19EC, symBinAddr: 0x41F0, symSize: 0x108 }
  - { offset: 0x4CDB8, size: 0x8, addend: 0x0, symName: __ZN12_GLOBAL__N_125alGetAuxiliaryEffectSlotiEN3gsl8not_nullIPN2al7ContextEEEjiPi, symObjAddr: 0x1B54, symBinAddr: 0x430C, symSize: 0x1B8 }
  - { offset: 0x4D0F2, size: 0x8, addend: 0x0, symName: __ZN12_GLOBAL__N_126alGetAuxiliaryEffectSlotivEN3gsl8not_nullIPN2al7ContextEEEjiPi, symObjAddr: 0x1D6C, symBinAddr: 0x44D8, symSize: 0x134 }
  - { offset: 0x4D2A5, size: 0x8, addend: 0x0, symName: __ZN12_GLOBAL__N_125alGetAuxiliaryEffectSlotfEN3gsl8not_nullIPN2al7ContextEEEjiPf, symObjAddr: 0x1F00, symBinAddr: 0x4620, symSize: 0x164 }
  - { offset: 0x4D509, size: 0x8, addend: 0x0, symName: __ZN12_GLOBAL__N_126alGetAuxiliaryEffectSlotfvEN3gsl8not_nullIPN2al7ContextEEEjiPf, symObjAddr: 0x20C4, symBinAddr: 0x4798, symSize: 0x104 }
  - { offset: 0x4D728, size: 0x8, addend: 0x0, symName: _OUTLINED_FUNCTION_6, symObjAddr: 0x5658, symBinAddr: 0x7860, symSize: 0x10 }
  - { offset: 0x4D740, size: 0x8, addend: 0x0, symName: _OUTLINED_FUNCTION_8, symObjAddr: 0x567C, symBinAddr: 0x7884, symSize: 0xC }
  - { offset: 0x4D758, size: 0x8, addend: 0x0, symName: _OUTLINED_FUNCTION_5, symObjAddr: 0x5650, symBinAddr: 0x7858, symSize: 0x8 }
  - { offset: 0x4E2F9, size: 0x8, addend: 0x0, symName: __ZN17EffectSlotSubListD2Ev, symObjAddr: 0x2E20, symBinAddr: 0x5288, symSize: 0x184 }
  - { offset: 0x4E325, size: 0x8, addend: 0x0, symName: __ZN17EffectSlotSubListD2Ev, symObjAddr: 0x2E20, symBinAddr: 0x5288, symSize: 0x184 }
  - { offset: 0x4E945, size: 0x8, addend: 0x0, symName: __ZNSt3__16vectorI17EffectSlotSubListNS_9allocatorIS1_EEE20__throw_length_errorB8fe200100Ev, symObjAddr: 0x3364, symBinAddr: 0x57CC, symSize: 0x14 }
  - { offset: 0x4E95D, size: 0x8, addend: 0x0, symName: __ZNSt3__120__throw_length_errorB8fe200100EPKc, symObjAddr: 0x3378, symBinAddr: 0x57E0, symSize: 0x50 }
  - { offset: 0x4E972, size: 0x8, addend: 0x0, symName: __ZN12_GLOBAL__N_114FreeEffectSlotEN3gsl8not_nullIPN2al7ContextEEENS1_IPNS2_10EffectSlotEEE, symObjAddr: 0x3434, symBinAddr: 0x5888, symSize: 0x14C }
  - { offset: 0x4E9A7, size: 0x8, addend: 0x0, symName: __ZN2al7Context11throw_errorIJRKiEEEviN3fmt10alsoft_v117fstringIJDpT_EE1tEDpOS7_, symObjAddr: 0x3118, symBinAddr: 0x5580, symSize: 0x20 }
  - { offset: 0x4EA38, size: 0x8, addend: 0x0, symName: __ZN2al7Context11throw_errorIJRjS2_RKiEEEviN3fmt10alsoft_v117fstringIJDpT_EE1tEDpOS8_, symObjAddr: 0x3138, symBinAddr: 0x55A0, symSize: 0x30 }
  - { offset: 0x4EBA5, size: 0x8, addend: 0x0, symName: __Z3ERRIJmRKiPKcEEvN3fmt10alsoft_v117fstringIJDpT_EE1tEDpOS7_, symObjAddr: 0x3258, symBinAddr: 0x56C0, symSize: 0x64 }
  - { offset: 0x4EDD3, size: 0x8, addend: 0x0, symName: '__ZNKSt3__16ranges10__for_eachclB8fe200100IRNS_6vectorIN3gsl8not_nullIPN2al10EffectSlotEEENS_9allocatorIS9_EEEENS_8identityEZN12_GLOBAL__N_125alGenAuxiliaryEffectSlotsENS5_IPNS6_7ContextEEEiPjE3$_1EENS0_13in_fun_resultINS_7_IfImplIXL_ZNS0_14borrowed_rangeIT_EEEEE7_SelectIDTclL_ZNS0_5__cpo5beginEEclsr3stdE7declvalIRSO_EEEENS0_8danglingEEET1_EEOSO_SW_T0_', symObjAddr: 0x32BC, symBinAddr: 0x5724, symSize: 0x54 }
  - { offset: 0x4EFBC, size: 0x8, addend: 0x0, symName: __Z3ERRIJPKcEEvN3fmt10alsoft_v117fstringIJDpT_EE1tEDpOS5_, symObjAddr: 0x3310, symBinAddr: 0x5778, symSize: 0x54 }
  - { offset: 0x4F000, size: 0x8, addend: 0x0, symName: __ZN2al7Context11throw_errorIJRKiPKcEEEviN3fmt10alsoft_v117fstringIJDpT_EE1tEDpOS9_, symObjAddr: 0x3168, symBinAddr: 0x55D0, symSize: 0x28 }
  - { offset: 0x4F117, size: 0x8, addend: 0x0, symName: __Z3ERRIJPKcEEvN3fmt10alsoft_v117fstringIJDpT_EE1tEDpOS5_, symObjAddr: 0x3310, symBinAddr: 0x5778, symSize: 0x54 }
  - { offset: 0x4F263, size: 0x8, addend: 0x0, symName: _alGenAuxiliaryEffectSlotsDirect, symObjAddr: 0x7A0, symBinAddr: 0x3148, symSize: 0x14 }
  - { offset: 0x4F30B, size: 0x8, addend: 0x0, symName: ___clang_call_terminate, symObjAddr: 0x7B4, symBinAddr: 0x315C, symSize: 0x10 }
  - { offset: 0x4F316, size: 0x8, addend: 0x0, symName: _alDeleteAuxiliaryEffectSlots, symObjAddr: 0x7C4, symBinAddr: 0xAB3F0, symSize: 0x50 }
  - { offset: 0x4F7EC, size: 0x8, addend: 0x0, symName: __ZN2al7Context11throw_errorIJRKjEEEviN3fmt10alsoft_v117fstringIJDpT_EE1tEDpOS7_, symObjAddr: 0x3838, symBinAddr: 0x5C8C, symSize: 0x20 }
  - { offset: 0x4F865, size: 0x8, addend: 0x0, symName: _alDeleteAuxiliaryEffectSlotsDirect, symObjAddr: 0xBF0, symBinAddr: 0x3548, symSize: 0x14 }
  - { offset: 0x4F90D, size: 0x8, addend: 0x0, symName: _alIsAuxiliaryEffectSlot, symObjAddr: 0xC04, symBinAddr: 0x355C, symSize: 0xC0 }
  - { offset: 0x4F95B, size: 0x8, addend: 0x0, symName: _alIsAuxiliaryEffectSlot, symObjAddr: 0xC04, symBinAddr: 0x355C, symSize: 0xC0 }
  - { offset: 0x4FB70, size: 0x8, addend: 0x0, symName: _alIsAuxiliaryEffectSlotDirect, symObjAddr: 0xCC4, symBinAddr: 0x361C, symSize: 0x54 }
  - { offset: 0x4FC90, size: 0x8, addend: 0x0, symName: _alIsAuxiliaryEffectSlotDirect.cold.1, symObjAddr: 0x53E4, symBinAddr: 0xAB814, symSize: 0x4C }
  - { offset: 0x4FCAB, size: 0x8, addend: 0x0, symName: _alIsAuxiliaryEffectSlotDirect.cold.1, symObjAddr: 0x53E4, symBinAddr: 0xAB814, symSize: 0x4C }
  - { offset: 0x4FCC0, size: 0x8, addend: 0x0, symName: _alIsAuxiliaryEffectSlotDirect.cold.1, symObjAddr: 0x53E4, symBinAddr: 0xAB814, symSize: 0x4C }
  - { offset: 0x4FD55, size: 0x8, addend: 0x0, symName: _alAuxiliaryEffectSloti, symObjAddr: 0xD18, symBinAddr: 0xAB440, symSize: 0x54 }
  - { offset: 0x4FE74, size: 0x8, addend: 0x0, symName: _OUTLINED_FUNCTION_0, symObjAddr: 0x55FC, symBinAddr: 0x7804, symSize: 0x18 }
  - { offset: 0x4FE8C, size: 0x8, addend: 0x0, symName: _OUTLINED_FUNCTION_2, symObjAddr: 0x5624, symBinAddr: 0x782C, symSize: 0x10 }
  - { offset: 0x505CD, size: 0x8, addend: 0x0, symName: __ZN2al10EffectSlot10initEffectEjiRKNSt3__17variantIJNS1_9monostateE11ReverbProps12AutowahProps11ChorusProps15CompressorProps15DistortionProps9EchoProps14EqualizerProps13FshifterProps14ModulatorProps13PshifterProps13VmorpherProps14DedicatedProps16ConvolutionPropsEEEN3gsl8not_nullIPNS_7ContextEEE, symObjAddr: 0x2798, symBinAddr: 0x4D50, symSize: 0x324 }
  - { offset: 0x50C08, size: 0x8, addend: 0x0, symName: __ZNK2al10EffectSlot11updatePropsEN3gsl8not_nullIPNS_7ContextEEE, symObjAddr: 0x2ABC, symBinAddr: 0xAB6C4, symSize: 0x150 }
  - { offset: 0x510A8, size: 0x8, addend: 0x0, symName: __ZN12_GLOBAL__N_122alAuxiliaryEffectSlotiEN3gsl8not_nullIPN2al7ContextEEEjii.cold.1, symObjAddr: 0x5430, symBinAddr: 0xAB860, symSize: 0x30 }
  - { offset: 0x510C3, size: 0x8, addend: 0x0, symName: __ZN12_GLOBAL__N_122alAuxiliaryEffectSlotiEN3gsl8not_nullIPN2al7ContextEEEjii.cold.1, symObjAddr: 0x5430, symBinAddr: 0xAB860, symSize: 0x30 }
  - { offset: 0x510D8, size: 0x8, addend: 0x0, symName: __ZN12_GLOBAL__N_122alAuxiliaryEffectSlotiEN3gsl8not_nullIPN2al7ContextEEEjii.cold.1, symObjAddr: 0x5430, symBinAddr: 0xAB860, symSize: 0x30 }
  - { offset: 0x51118, size: 0x8, addend: 0x0, symName: __ZN2al7Context11throw_errorIJRjS2_EEEviN3fmt10alsoft_v117fstringIJDpT_EE1tEDpOS6_, symObjAddr: 0x3DC8, symBinAddr: 0x6208, symSize: 0x28 }
  - { offset: 0x512B6, size: 0x8, addend: 0x0, symName: __ZN2al7Context11throw_errorIJEEEviN3fmt10alsoft_v117fstringIJDpT_EE1tEDpOS5_, symObjAddr: 0x3DB0, symBinAddr: 0x61F0, symSize: 0x18 }
  - { offset: 0x512FD, size: 0x8, addend: 0x0, symName: _alAuxiliaryEffectSlotiDirect, symObjAddr: 0x157C, symBinAddr: 0x3E80, symSize: 0x14 }
  - { offset: 0x513B5, size: 0x8, addend: 0x0, symName: _alAuxiliaryEffectSlotiv, symObjAddr: 0x1590, symBinAddr: 0xAB494, symSize: 0x4C }
  - { offset: 0x513C0, size: 0x8, addend: 0x0, symName: _alAuxiliaryEffectSlotiv, symObjAddr: 0x1590, symBinAddr: 0xAB494, symSize: 0x4C }
  - { offset: 0x514DB, size: 0x8, addend: 0x0, symName: _OUTLINED_FUNCTION_4, symObjAddr: 0x5640, symBinAddr: 0x7848, symSize: 0x10 }
  - { offset: 0x51551, size: 0x8, addend: 0x0, symName: _alAuxiliaryEffectSlotivDirect, symObjAddr: 0x1714, symBinAddr: 0x3FCC, symSize: 0x14 }
  - { offset: 0x51609, size: 0x8, addend: 0x0, symName: _alAuxiliaryEffectSlotf, symObjAddr: 0x1728, symBinAddr: 0xAB4E0, symSize: 0x68 }
  - { offset: 0x51614, size: 0x8, addend: 0x0, symName: _alAuxiliaryEffectSlotf, symObjAddr: 0x1728, symBinAddr: 0xAB4E0, symSize: 0x68 }
  - { offset: 0x51738, size: 0x8, addend: 0x0, symName: __ZN2al7Context11throw_errorIJRfEEEviN3fmt10alsoft_v117fstringIJDpT_EE1tEDpOS6_, symObjAddr: 0x4D34, symBinAddr: 0x7154, symSize: 0x20 }
  - { offset: 0x517B1, size: 0x8, addend: 0x0, symName: _alAuxiliaryEffectSlotfDirect, symObjAddr: 0x198C, symBinAddr: 0x41DC, symSize: 0x14 }
  - { offset: 0x51869, size: 0x8, addend: 0x0, symName: _alAuxiliaryEffectSlotfv, symObjAddr: 0x19A0, symBinAddr: 0xAB548, symSize: 0x4C }
  - { offset: 0x51874, size: 0x8, addend: 0x0, symName: _alAuxiliaryEffectSlotfv, symObjAddr: 0x19A0, symBinAddr: 0xAB548, symSize: 0x4C }
  - { offset: 0x5198F, size: 0x8, addend: 0x0, symName: _alAuxiliaryEffectSlotfvDirect, symObjAddr: 0x1AF4, symBinAddr: 0x42F8, symSize: 0x14 }
  - { offset: 0x51A47, size: 0x8, addend: 0x0, symName: _alGetAuxiliaryEffectSloti, symObjAddr: 0x1B08, symBinAddr: 0xAB594, symSize: 0x4C }
  - { offset: 0x51A52, size: 0x8, addend: 0x0, symName: _alGetAuxiliaryEffectSloti, symObjAddr: 0x1B08, symBinAddr: 0xAB594, symSize: 0x4C }
  - { offset: 0x51B6D, size: 0x8, addend: 0x0, symName: _alGetAuxiliaryEffectSlotiDirect, symObjAddr: 0x1D0C, symBinAddr: 0x44C4, symSize: 0x14 }
  - { offset: 0x51C25, size: 0x8, addend: 0x0, symName: _alGetAuxiliaryEffectSlotiv, symObjAddr: 0x1D20, symBinAddr: 0xAB5E0, symSize: 0x4C }
  - { offset: 0x51C30, size: 0x8, addend: 0x0, symName: _alGetAuxiliaryEffectSlotiv, symObjAddr: 0x1D20, symBinAddr: 0xAB5E0, symSize: 0x4C }
  - { offset: 0x51D4B, size: 0x8, addend: 0x0, symName: _alGetAuxiliaryEffectSlotivDirect, symObjAddr: 0x1EA0, symBinAddr: 0x460C, symSize: 0x14 }
  - { offset: 0x51E03, size: 0x8, addend: 0x0, symName: _alGetAuxiliaryEffectSlotf, symObjAddr: 0x1EB4, symBinAddr: 0xAB62C, symSize: 0x4C }
  - { offset: 0x51E0E, size: 0x8, addend: 0x0, symName: _alGetAuxiliaryEffectSlotf, symObjAddr: 0x1EB4, symBinAddr: 0xAB62C, symSize: 0x4C }
  - { offset: 0x51F29, size: 0x8, addend: 0x0, symName: _alGetAuxiliaryEffectSlotfDirect, symObjAddr: 0x2064, symBinAddr: 0x4784, symSize: 0x14 }
  - { offset: 0x51FE1, size: 0x8, addend: 0x0, symName: _alGetAuxiliaryEffectSlotfv, symObjAddr: 0x2078, symBinAddr: 0xAB678, symSize: 0x4C }
  - { offset: 0x51FEC, size: 0x8, addend: 0x0, symName: _alGetAuxiliaryEffectSlotfv, symObjAddr: 0x2078, symBinAddr: 0xAB678, symSize: 0x4C }
  - { offset: 0x52107, size: 0x8, addend: 0x0, symName: _alGetAuxiliaryEffectSlotfvDirect, symObjAddr: 0x21C8, symBinAddr: 0x489C, symSize: 0x14 }
  - { offset: 0x521BF, size: 0x8, addend: 0x0, symName: __ZN2al10EffectSlotC2EN3gsl8not_nullIPNS_7ContextEEE, symObjAddr: 0x21DC, symBinAddr: 0x48B0, symSize: 0x198 }
  - { offset: 0x5253D, size: 0x8, addend: 0x0, symName: __ZN2al10EffectSlotC2EN3gsl8not_nullIPNS_7ContextEEE, symObjAddr: 0x21DC, symBinAddr: 0x48B0, symSize: 0x198 }
  - { offset: 0x52D0E, size: 0x8, addend: 0x0, symName: __ZN2al10EffectSlotC2EN3gsl8not_nullIPNS_7ContextEEE.cold.1, symObjAddr: 0x5460, symBinAddr: 0xAB890, symSize: 0x54 }
  - { offset: 0x52FED, size: 0x8, addend: 0x0, symName: __ZN2al10EffectSlotC1EN3gsl8not_nullIPNS_7ContextEEE, symObjAddr: 0x255C, symBinAddr: 0x4C30, symSize: 0x4 }
  - { offset: 0x53017, size: 0x8, addend: 0x0, symName: __ZN2al10EffectSlotC1EN3gsl8not_nullIPNS_7ContextEEE, symObjAddr: 0x255C, symBinAddr: 0x4C30, symSize: 0x4 }
  - { offset: 0x53069, size: 0x8, addend: 0x0, symName: __ZN2al10EffectSlotD2Ev, symObjAddr: 0x2560, symBinAddr: 0x4C34, symSize: 0x11C }
  - { offset: 0x53741, size: 0x8, addend: 0x0, symName: __ZN2al10EffectSlot10initEffectEjiRKNSt3__17variantIJNS1_9monostateE11ReverbProps12AutowahProps11ChorusProps15CompressorProps15DistortionProps9EchoProps14EqualizerProps13FshifterProps14ModulatorProps13PshifterProps13VmorpherProps14DedicatedProps16ConvolutionPropsEEEN3gsl8not_nullIPNS_7ContextEEE.cold.1, symObjAddr: 0x54E4, symBinAddr: 0xAB8E4, symSize: 0x28 }
  - { offset: 0x5385C, size: 0x8, addend: 0x0, symName: _OUTLINED_FUNCTION_7, symObjAddr: 0x5668, symBinAddr: 0x7870, symSize: 0x14 }
  - { offset: 0x53874, size: 0x8, addend: 0x0, symName: _OUTLINED_FUNCTION_3, symObjAddr: 0x5634, symBinAddr: 0x783C, symSize: 0xC }
  - { offset: 0x5398B, size: 0x8, addend: 0x0, symName: __ZN2al10EffectSlot7SetNameEN3gsl8not_nullIPNS_7ContextEEEjNSt3__117basic_string_viewIcNS6_11char_traitsIcEEEE, symObjAddr: 0x2C0C, symBinAddr: 0x5074, symSize: 0xD4 }
  - { offset: 0x53BF0, size: 0x8, addend: 0x0, symName: __ZNSt3__112__hash_tableINS_17__hash_value_typeIjNS_12basic_stringIcNS_11char_traitsIcEENS_9allocatorIcEEEEEENS_22__unordered_map_hasherIjS8_NS_4hashIjEENS_8equal_toIjEELb1EEENS_21__unordered_map_equalIjS8_SD_SB_Lb1EEENS5_IS8_EEE25__emplace_unique_key_argsIjJRKjRKNS_17basic_string_viewIcS4_EEEEENS_4pairINS_15__hash_iteratorIPNS_11__hash_nodeIS8_PvEEEEbEERKT_DpOT0_, symObjAddr: 0x4D54, symBinAddr: 0x7174, symSize: 0x2D0 }
  - { offset: 0x540D1, size: 0x8, addend: 0x0, symName: __ZNSt3__112basic_stringIcNS_11char_traitsIcEENS_9allocatorIcEEE17__assign_externalEPKcm, symObjAddr: 0x5270, symBinAddr: 0x7690, symSize: 0x174 }
  - { offset: 0x54567, size: 0x8, addend: 0x0, symName: _alIsAuxiliaryEffectSlotDirect.cold.1, symObjAddr: 0x53E4, symBinAddr: 0xAB814, symSize: 0x4C }
  - { offset: 0x545E2, size: 0x8, addend: 0x0, symName: __Z24UpdateAllEffectSlotPropsN3gsl8not_nullIPN2al7ContextEEE, symObjAddr: 0x2D48, symBinAddr: 0x51B0, symSize: 0xD8 }
  - { offset: 0x54880, size: 0x8, addend: 0x0, symName: __ZN17EffectSlotSubListD1Ev, symObjAddr: 0x2FA4, symBinAddr: 0x540C, symSize: 0x4 }
  - { offset: 0x548A3, size: 0x8, addend: 0x0, symName: __ZN17EffectSlotSubListD1Ev, symObjAddr: 0x2FA4, symBinAddr: 0x540C, symSize: 0x4 }
  - { offset: 0x548E7, size: 0x8, addend: 0x0, symName: _alAuxiliaryEffectSlotPlaySOFT, symObjAddr: 0x2FA8, symBinAddr: 0x5410, symSize: 0x5C }
  - { offset: 0x54991, size: 0x8, addend: 0x0, symName: _alAuxiliaryEffectSlotPlaySOFT.cold.1, symObjAddr: 0x553C, symBinAddr: 0xAB90C, symSize: 0x30 }
  - { offset: 0x549AC, size: 0x8, addend: 0x0, symName: _alAuxiliaryEffectSlotPlaySOFT.cold.1, symObjAddr: 0x553C, symBinAddr: 0xAB90C, symSize: 0x30 }
  - { offset: 0x549C1, size: 0x8, addend: 0x0, symName: _alAuxiliaryEffectSlotPlaySOFT.cold.1, symObjAddr: 0x553C, symBinAddr: 0xAB90C, symSize: 0x30 }
  - { offset: 0x549E9, size: 0x8, addend: 0x0, symName: _alAuxiliaryEffectSlotPlayvSOFT, symObjAddr: 0x3004, symBinAddr: 0x546C, symSize: 0x5C }
  - { offset: 0x54AC9, size: 0x8, addend: 0x0, symName: _alAuxiliaryEffectSlotStopSOFT, symObjAddr: 0x3060, symBinAddr: 0x54C8, symSize: 0x5C }
  - { offset: 0x54B9C, size: 0x8, addend: 0x0, symName: _alAuxiliaryEffectSlotStopvSOFT, symObjAddr: 0x30BC, symBinAddr: 0x5524, symSize: 0x5C }
  - { offset: 0x55330, size: 0x8, addend: 0x0, symName: __ZNSt12length_errorC1B8fe200100EPKc, symObjAddr: 0x33C8, symBinAddr: 0x5830, symSize: 0x24 }
  - { offset: 0x553E3, size: 0x8, addend: 0x0, symName: __ZNSt3__112__hash_tableINS_17__hash_value_typeIjNS_12basic_stringIcNS_11char_traitsIcEENS_9allocatorIcEEEEEENS_22__unordered_map_hasherIjS8_NS_4hashIjEENS_8equal_toIjEELb1EEENS_21__unordered_map_equalIjS8_SD_SB_Lb1EEENS5_IS8_EEE14__erase_uniqueIjEEmRKT_, symObjAddr: 0x3580, symBinAddr: 0x59D4, symSize: 0x11C }
  - { offset: 0x5545D, size: 0x8, addend: 0x0, symName: __ZNSt3__112__hash_tableINS_17__hash_value_typeIjNS_12basic_stringIcNS_11char_traitsIcEENS_9allocatorIcEEEEEENS_22__unordered_map_hasherIjS8_NS_4hashIjEENS_8equal_toIjEELb1EEENS_21__unordered_map_equalIjS8_SD_SB_Lb1EEENS5_IS8_EEE14__erase_uniqueIjEEmRKT_, symObjAddr: 0x3580, symBinAddr: 0x59D4, symSize: 0x11C }
  - { offset: 0x55479, size: 0x8, addend: 0x0, symName: __ZNSt3__112__hash_tableINS_17__hash_value_typeIjNS_12basic_stringIcNS_11char_traitsIcEENS_9allocatorIcEEEEEENS_22__unordered_map_hasherIjS8_NS_4hashIjEENS_8equal_toIjEELb1EEENS_21__unordered_map_equalIjS8_SD_SB_Lb1EEENS5_IS8_EEE14__erase_uniqueIjEEmRKT_, symObjAddr: 0x3580, symBinAddr: 0x59D4, symSize: 0x11C }
  - { offset: 0x55B70, size: 0x8, addend: 0x0, symName: __ZNSt3__112__hash_tableINS_17__hash_value_typeIjNS_12basic_stringIcNS_11char_traitsIcEENS_9allocatorIcEEEEEENS_22__unordered_map_hasherIjS8_NS_4hashIjEENS_8equal_toIjEELb1EEENS_21__unordered_map_equalIjS8_SD_SB_Lb1EEENS5_IS8_EEE6removeENS_21__hash_const_iteratorIPNS_11__hash_nodeIS8_PvEEEE, symObjAddr: 0x369C, symBinAddr: 0x5AF0, symSize: 0x13C }
  - { offset: 0x55BE7, size: 0x8, addend: 0x0, symName: __ZNSt3__112__hash_tableINS_17__hash_value_typeIjNS_12basic_stringIcNS_11char_traitsIcEENS_9allocatorIcEEEEEENS_22__unordered_map_hasherIjS8_NS_4hashIjEENS_8equal_toIjEELb1EEENS_21__unordered_map_equalIjS8_SD_SB_Lb1EEENS5_IS8_EEE6removeENS_21__hash_const_iteratorIPNS_11__hash_nodeIS8_PvEEEE, symObjAddr: 0x369C, symBinAddr: 0x5AF0, symSize: 0x13C }
  - { offset: 0x55C03, size: 0x8, addend: 0x0, symName: __ZNSt3__112__hash_tableINS_17__hash_value_typeIjNS_12basic_stringIcNS_11char_traitsIcEENS_9allocatorIcEEEEEENS_22__unordered_map_hasherIjS8_NS_4hashIjEENS_8equal_toIjEELb1EEENS_21__unordered_map_equalIjS8_SD_SB_Lb1EEENS5_IS8_EEE6removeENS_21__hash_const_iteratorIPNS_11__hash_nodeIS8_PvEEEE, symObjAddr: 0x369C, symBinAddr: 0x5AF0, symSize: 0x13C }
  - { offset: 0x55ED8, size: 0x8, addend: 0x0, symName: __ZNSt3__110unique_ptrINS_11__hash_nodeINS_17__hash_value_typeIjNS_12basic_stringIcNS_11char_traitsIcEENS_9allocatorIcEEEEEEPvEENS_22__hash_node_destructorINS6_ISB_EEEEED1B8fe200100Ev, symObjAddr: 0x37D8, symBinAddr: 0x5C2C, symSize: 0x60 }
  - { offset: 0x56C0B, size: 0x8, addend: 0x0, symName: __ZN12_GLOBAL__N_120AddActiveEffectSlotsENSt3__14spanIKN3gsl8not_nullIPN2al10EffectSlotEEELm18446744073709551615EEENS3_IPNS4_7ContextEEE, symObjAddr: 0x3ADC, symBinAddr: 0x5F1C, symSize: 0x2D4 }
  - { offset: 0x574F6, size: 0x8, addend: 0x0, symName: __ZNSt3__112__hash_tableINS_17__hash_value_typeIjNS_12basic_stringIcNS_11char_traitsIcEENS_9allocatorIcEEEEEENS_22__unordered_map_hasherIjS8_NS_4hashIjEENS_8equal_toIjEELb1EEENS_21__unordered_map_equalIjS8_SD_SB_Lb1EEENS5_IS8_EEE21__construct_node_hashIRKjJRKNS_17basic_string_viewIcS4_EEEEENS_10unique_ptrINS_11__hash_nodeIS8_PvEENS_22__hash_node_destructorINS5_IST_EEEEEEmOT_DpOT0_, symObjAddr: 0x5024, symBinAddr: 0x7444, symSize: 0xE8 }
  - { offset: 0x57A4F, size: 0x8, addend: 0x0, symName: __ZNSt3__112__hash_tableINS_17__hash_value_typeIjNS_12basic_stringIcNS_11char_traitsIcEENS_9allocatorIcEEEEEENS_22__unordered_map_hasherIjS8_NS_4hashIjEENS_8equal_toIjEELb1EEENS_21__unordered_map_equalIjS8_SD_SB_Lb1EEENS5_IS8_EEE11__do_rehashILb1EEEvm, symObjAddr: 0x5120, symBinAddr: 0x7540, symSize: 0x150 }
  - { offset: 0x57E51, size: 0x8, addend: 0x0, symName: __ZNSt3__112basic_stringIcNS_11char_traitsIcEENS_9allocatorIcEEE17__assign_externalEPKcm, symObjAddr: 0x5270, symBinAddr: 0x7690, symSize: 0x174 }
  - { offset: 0x581F6, size: 0x8, addend: 0x0, symName: __ZNSt3__112basic_stringIcNS_11char_traitsIcEENS_9allocatorIcEEE20__throw_length_errorB8fe200100Ev, symObjAddr: 0x510C, symBinAddr: 0x752C, symSize: 0x14 }
  - { offset: 0x5820E, size: 0x8, addend: 0x0, symName: __ZNSt3__112__hash_tableINS_17__hash_value_typeIjNS_12basic_stringIcNS_11char_traitsIcEENS_9allocatorIcEEEEEENS_22__unordered_map_hasherIjS8_NS_4hashIjEENS_8equal_toIjEELb1EEENS_21__unordered_map_equalIjS8_SD_SB_Lb1EEENS5_IS8_EEE11__do_rehashILb1EEEvm, symObjAddr: 0x5120, symBinAddr: 0x7540, symSize: 0x150 }
  - { offset: 0x88F1D, size: 0x8, addend: 0x0, symName: __ZNSt3__126__throw_bad_variant_accessB8fe200100Ev, symObjAddr: 0x5EF0, symBinAddr: 0xCA44, symSize: 0x34 }
  - { offset: 0x8A3B3, size: 0x8, addend: 0x0, symName: __ZNSt3__134__uninitialized_allocator_relocateB8fe200100INS_9allocatorI13BufferSubListEEPS2_EEvRT_T0_S7_S7_, symObjAddr: 0x5880, symBinAddr: 0xC738, symSize: 0x1BC }
  - { offset: 0x9695B, size: 0x8, addend: 0x0, symName: __ZZN12_GLOBAL__N_119DecomposeUserFormatEiE11UserFmtList, symObjAddr: 0x9FF0, symBinAddr: 0xB0AEC, symSize: 0x0 }
  - { offset: 0x96C6A, size: 0x8, addend: 0x0, symName: __ZN12_GLOBAL__N_119alBufferSubDataSOFTEN3gsl8not_nullIPN2al7ContextEEEjiPKvii, symObjAddr: 0x2290, symBinAddr: 0x9868, symSize: 0x43C }
  - { offset: 0x97A13, size: 0x8, addend: 0x0, symName: __ZN12_GLOBAL__N_115alMapBufferSOFTEN3gsl8not_nullIPN2al7ContextEEEjiij, symObjAddr: 0x2760, symBinAddr: 0x9CB8, symSize: 0x2DC }
  - { offset: 0x98142, size: 0x8, addend: 0x0, symName: __ZN12_GLOBAL__N_112alGetBufferiEN3gsl8not_nullIPN2al7ContextEEEjiPi, symObjAddr: 0x4318, symBinAddr: 0xB4B8, symSize: 0x414 }
  - { offset: 0x989F5, size: 0x8, addend: 0x0, symName: __ZN12_GLOBAL__N_112alGenBuffersEN3gsl8not_nullIPN2al7ContextEEEiPj, symObjAddr: 0x50, symBinAddr: 0x7890, symSize: 0x458 }
  - { offset: 0x99648, size: 0x8, addend: 0x0, symName: __ZN12_GLOBAL__N_115alDeleteBuffersEN3gsl8not_nullIPN2al7ContextEEEiPKj, symObjAddr: 0x51C, symBinAddr: 0x7CFC, symSize: 0x2BC }
  - { offset: 0x9A0E5, size: 0x8, addend: 0x0, symName: __ZN12_GLOBAL__N_119alBufferStorageSOFTEN3gsl8not_nullIPN2al7ContextEEEjiPKviij, symObjAddr: 0xA0C, symBinAddr: 0x8110, symSize: 0x928 }
  - { offset: 0x9BAAA, size: 0x8, addend: 0x0, symName: __ZN12_GLOBAL__N_118alBufferDataStaticEN3gsl8not_nullIPN2al7ContextEEEjiPvii, symObjAddr: 0x13AC, symBinAddr: 0x8A4C, symSize: 0x79C }
  - { offset: 0x9DD3B, size: 0x8, addend: 0x0, symName: __ZN12_GLOBAL__N_120alBufferCallbackSOFTEN3gsl8not_nullIPN2al7ContextEEEjiiPDoFiPvS6_iES6_, symObjAddr: 0x1BC0, symBinAddr: 0x91FC, symSize: 0x658 }
  - { offset: 0x9F20E, size: 0x8, addend: 0x0, symName: __ZN12_GLOBAL__N_117alUnmapBufferSOFTEN3gsl8not_nullIPN2al7ContextEEEj, symObjAddr: 0x2A98, symBinAddr: 0x9FA8, symSize: 0x15C }
  - { offset: 0x9F61B, size: 0x8, addend: 0x0, symName: __ZN12_GLOBAL__N_123alFlushMappedBufferSOFTEN3gsl8not_nullIPN2al7ContextEEEjii, symObjAddr: 0x2C5C, symBinAddr: 0xA118, symSize: 0x1BC }
  - { offset: 0x9FAB5, size: 0x8, addend: 0x0, symName: __ZN12_GLOBAL__N_19alBufferfEN3gsl8not_nullIPN2al7ContextEEEjif, symObjAddr: 0x2E7C, symBinAddr: 0xA2E8, symSize: 0x160 }
  - { offset: 0x9FEF0, size: 0x8, addend: 0x0, symName: __ZN12_GLOBAL__N_110alBuffer3fEN3gsl8not_nullIPN2al7ContextEEEjifff, symObjAddr: 0x3040, symBinAddr: 0xA45C, symSize: 0x160 }
  - { offset: 0xA0345, size: 0x8, addend: 0x0, symName: __ZN12_GLOBAL__N_110alBufferfvEN3gsl8not_nullIPN2al7ContextEEEjiPKf, symObjAddr: 0x3200, symBinAddr: 0xA5D0, symSize: 0x188 }
  - { offset: 0xA07A3, size: 0x8, addend: 0x0, symName: __ZN12_GLOBAL__N_19alBufferiEN3gsl8not_nullIPN2al7ContextEEEjii, symObjAddr: 0x33F0, symBinAddr: 0xA76C, symSize: 0x478 }
  - { offset: 0xA0E32, size: 0x8, addend: 0x0, symName: __ZN12_GLOBAL__N_110alBuffer3iEN3gsl8not_nullIPN2al7ContextEEEjiiii, symObjAddr: 0x38CC, symBinAddr: 0xABF8, symSize: 0x160 }
  - { offset: 0xA1287, size: 0x8, addend: 0x0, symName: __ZN12_GLOBAL__N_110alBufferivEN3gsl8not_nullIPN2al7ContextEEEjiPKi, symObjAddr: 0x3A8C, symBinAddr: 0xAD6C, symSize: 0x264 }
  - { offset: 0xA1784, size: 0x8, addend: 0x0, symName: __ZN12_GLOBAL__N_112alGetBufferfEN3gsl8not_nullIPN2al7ContextEEEjiPf, symObjAddr: 0x3D50, symBinAddr: 0xAFE4, symSize: 0x1BC }
  - { offset: 0xA1BCA, size: 0x8, addend: 0x0, symName: __ZN12_GLOBAL__N_113alGetBuffer3fEN3gsl8not_nullIPN2al7ContextEEEjiPfS6_S6_, symObjAddr: 0x3F7C, symBinAddr: 0xB1B4, symSize: 0x1A0 }
  - { offset: 0xA2048, size: 0x8, addend: 0x0, symName: __ZN12_GLOBAL__N_113alGetBufferfvEN3gsl8not_nullIPN2al7ContextEEEjiPf, symObjAddr: 0x417C, symBinAddr: 0xB368, symSize: 0x13C }
  - { offset: 0xA22B4, size: 0x8, addend: 0x0, symName: __ZN12_GLOBAL__N_112LookupBufferEN3gsl8not_nullIPN2al7ContextEEEj, symObjAddr: 0x53EC, symBinAddr: 0xC3F0, symSize: 0x70 }
  - { offset: 0xA2446, size: 0x8, addend: 0x0, symName: __ZN13BufferSubListD2Ev, symObjAddr: 0x545C, symBinAddr: 0xC460, symSize: 0xCC }
  - { offset: 0xA249F, size: 0x8, addend: 0x0, symName: __ZN12_GLOBAL__N_113alGetBuffer3iEN3gsl8not_nullIPN2al7ContextEEEjiPiS6_S6_, symObjAddr: 0x479C, symBinAddr: 0xB8E0, symSize: 0x1A0 }
  - { offset: 0xA291D, size: 0x8, addend: 0x0, symName: __ZN12_GLOBAL__N_113alGetBufferivEN3gsl8not_nullIPN2al7ContextEEEjiPi, symObjAddr: 0x499C, symBinAddr: 0xBA94, symSize: 0x21C }
  - { offset: 0xA2D89, size: 0x8, addend: 0x0, symName: __ZN12_GLOBAL__N_118alGetBufferPtrSOFTEN3gsl8not_nullIPN2al7ContextEEEjiPPv, symObjAddr: 0x4C18, symBinAddr: 0xBCC4, symSize: 0x1B0 }
  - { offset: 0xA319B, size: 0x8, addend: 0x0, symName: __ZN12_GLOBAL__N_119alGetBuffer3PtrSOFTEN3gsl8not_nullIPN2al7ContextEEEjiPPvS7_S7_, symObjAddr: 0x4E38, symBinAddr: 0xBE88, symSize: 0x1A0 }
  - { offset: 0xA3619, size: 0x8, addend: 0x0, symName: __ZN12_GLOBAL__N_119alGetBufferPtrvSOFTEN3gsl8not_nullIPN2al7ContextEEEjiPPv, symObjAddr: 0x5038, symBinAddr: 0xC03C, symSize: 0x138 }
  - { offset: 0xA3EC7, size: 0x8, addend: 0x0, symName: _alGenBuffers, symObjAddr: 0x0, symBinAddr: 0xAB93C, symSize: 0x50 }
  - { offset: 0xA4B7C, size: 0x8, addend: 0x0, symName: __ZNSt3__16vectorI13BufferSubListNS_9allocatorIS1_EEE24__emplace_back_slow_pathIJS1_EEEPS1_DpOT_, symObjAddr: 0x5690, symBinAddr: 0xC5F8, symSize: 0x110 }
  - { offset: 0xA4F9F, size: 0x8, addend: 0x0, symName: __ZN13BufferSubListD1Ev, symObjAddr: 0x5528, symBinAddr: 0xC52C, symSize: 0xCC }
  - { offset: 0xA53ED, size: 0x8, addend: 0x0, symName: _alGenBuffersDirect, symObjAddr: 0x4A8, symBinAddr: 0x7CE8, symSize: 0x14 }
  - { offset: 0xA54A0, size: 0x8, addend: 0x0, symName: _alDeleteBuffers, symObjAddr: 0x4CC, symBinAddr: 0xAB98C, symSize: 0x50 }
  - { offset: 0xA5C6C, size: 0x8, addend: 0x0, symName: _alDeleteBuffersDirect, symObjAddr: 0x7D8, symBinAddr: 0x7FB8, symSize: 0x14 }
  - { offset: 0xA5D14, size: 0x8, addend: 0x0, symName: _alIsBuffer, symObjAddr: 0x7EC, symBinAddr: 0x7FCC, symSize: 0xB4 }
  - { offset: 0xA5D57, size: 0x8, addend: 0x0, symName: _alIsBuffer, symObjAddr: 0x7EC, symBinAddr: 0x7FCC, symSize: 0xB4 }
  - { offset: 0xA6009, size: 0x8, addend: 0x0, symName: _alIsBuffer.cold.1, symObjAddr: 0x8958, symBinAddr: 0xAC1B8, symSize: 0x4C }
  - { offset: 0xA6024, size: 0x8, addend: 0x0, symName: _alIsBuffer.cold.1, symObjAddr: 0x8958, symBinAddr: 0xAC1B8, symSize: 0x4C }
  - { offset: 0xA6039, size: 0x8, addend: 0x0, symName: _alIsBuffer.cold.1, symObjAddr: 0x8958, symBinAddr: 0xAC1B8, symSize: 0x4C }
  - { offset: 0xA60A3, size: 0x8, addend: 0x0, symName: _alIsBufferDirect, symObjAddr: 0x8A0, symBinAddr: 0x8080, symSize: 0x78 }
  - { offset: 0xA6337, size: 0x8, addend: 0x0, symName: _alBufferData, symObjAddr: 0x918, symBinAddr: 0xAB9DC, symSize: 0x68 }
  - { offset: 0xA64D1, size: 0x8, addend: 0x0, symName: _OUTLINED_FUNCTION_11, symObjAddr: 0x8B58, symBinAddr: 0xE8CC, symSize: 0x14 }
  - { offset: 0xA64E9, size: 0x8, addend: 0x0, symName: _OUTLINED_FUNCTION_8, symObjAddr: 0x8B30, symBinAddr: 0xE8A4, symSize: 0x10 }
  - { offset: 0xA6501, size: 0x8, addend: 0x0, symName: _OUTLINED_FUNCTION_2, symObjAddr: 0x8AD8, symBinAddr: 0xE890, symSize: 0x14 }
  - { offset: 0xA6519, size: 0x8, addend: 0x0, symName: _alBufferDataDirect, symObjAddr: 0x980, symBinAddr: 0x80F8, symSize: 0x18 }
  - { offset: 0xA6638, size: 0x8, addend: 0x0, symName: _alBufferStorageSOFT, symObjAddr: 0x998, symBinAddr: 0xABA44, symSize: 0x74 }
  - { offset: 0xA6643, size: 0x8, addend: 0x0, symName: _alBufferStorageSOFT, symObjAddr: 0x998, symBinAddr: 0xABA44, symSize: 0x74 }
  - { offset: 0xA83E6, size: 0x8, addend: 0x0, symName: __ZNSt3__116__variant_detail12__assignmentINS0_8__traitsIJNS_6vectorIhN2al9allocatorIhLm16EEEEENS3_IsNS5_IsLm16EEEEENS3_IiNS5_IiLm16EEEEENS3_IfNS5_IfLm16EEEEENS3_IdNS5_IdLm16EEEEENS3_I11MulawSampleNS5_ISG_Lm16EEEEENS3_I10AlawSampleNS5_ISJ_Lm16EEEEENS3_I8IMA4DataNS5_ISM_Lm16EEEEENS3_I11MSADPCMDataNS5_ISP_Lm16EEEEEEEEE9__emplaceB8fe200100ILm8EJmRSP_EEERDaDpOT0_, symObjAddr: 0x7E64, symBinAddr: 0xE454, symSize: 0xD4 }
  - { offset: 0xA8B0B, size: 0x8, addend: 0x0, symName: __ZNSt3__116__variant_detail12__assignmentINS0_8__traitsIJNS_6vectorIhN2al9allocatorIhLm16EEEEENS3_IsNS5_IsLm16EEEEENS3_IiNS5_IiLm16EEEEENS3_IfNS5_IfLm16EEEEENS3_IdNS5_IdLm16EEEEENS3_I11MulawSampleNS5_ISG_Lm16EEEEENS3_I10AlawSampleNS5_ISJ_Lm16EEEEENS3_I8IMA4DataNS5_ISM_Lm16EEEEENS3_I11MSADPCMDataNS5_ISP_Lm16EEEEEEEEE9__emplaceB8fe200100ILm1EJmRsEEERDaDpOT0_, symObjAddr: 0x76A4, symBinAddr: 0xDC94, symSize: 0x160 }
  - { offset: 0xA8FE5, size: 0x8, addend: 0x0, symName: __ZNSt3__116__variant_detail12__assignmentINS0_8__traitsIJNS_6vectorIhN2al9allocatorIhLm16EEEEENS3_IsNS5_IsLm16EEEEENS3_IiNS5_IiLm16EEEEENS3_IfNS5_IfLm16EEEEENS3_IdNS5_IdLm16EEEEENS3_I11MulawSampleNS5_ISG_Lm16EEEEENS3_I10AlawSampleNS5_ISJ_Lm16EEEEENS3_I8IMA4DataNS5_ISM_Lm16EEEEENS3_I11MSADPCMDataNS5_ISP_Lm16EEEEEEEEE9__emplaceB8fe200100ILm3EJmRfEEERDaDpOT0_, symObjAddr: 0x7964, symBinAddr: 0xDF54, symSize: 0x164 }
  - { offset: 0xA9579, size: 0x8, addend: 0x0, symName: __ZNSt3__116__variant_detail12__assignmentINS0_8__traitsIJNS_6vectorIhN2al9allocatorIhLm16EEEEENS3_IsNS5_IsLm16EEEEENS3_IiNS5_IiLm16EEEEENS3_IfNS5_IfLm16EEEEENS3_IdNS5_IdLm16EEEEENS3_I11MulawSampleNS5_ISG_Lm16EEEEENS3_I10AlawSampleNS5_ISJ_Lm16EEEEENS3_I8IMA4DataNS5_ISM_Lm16EEEEENS3_I11MSADPCMDataNS5_ISP_Lm16EEEEEEEEE9__emplaceB8fe200100ILm5EJmRSG_EEERDaDpOT0_, symObjAddr: 0x7BE8, symBinAddr: 0xE1D8, symSize: 0xD4 }
  - { offset: 0xA9BA8, size: 0x8, addend: 0x0, symName: __ZNSt3__116__variant_detail12__assignmentINS0_8__traitsIJNS_6vectorIhN2al9allocatorIhLm16EEEEENS3_IsNS5_IsLm16EEEEENS3_IiNS5_IiLm16EEEEENS3_IfNS5_IfLm16EEEEENS3_IdNS5_IdLm16EEEEENS3_I11MulawSampleNS5_ISG_Lm16EEEEENS3_I10AlawSampleNS5_ISJ_Lm16EEEEENS3_I8IMA4DataNS5_ISM_Lm16EEEEENS3_I11MSADPCMDataNS5_ISP_Lm16EEEEEEEEE9__emplaceB8fe200100ILm0EJmRhEEERDaDpOT0_, symObjAddr: 0x74FC, symBinAddr: 0xDAEC, symSize: 0xD0 }
  - { offset: 0xAA03D, size: 0x8, addend: 0x0, symName: __ZNSt3__116__variant_detail12__assignmentINS0_8__traitsIJNS_6vectorIhN2al9allocatorIhLm16EEEEENS3_IsNS5_IsLm16EEEEENS3_IiNS5_IiLm16EEEEENS3_IfNS5_IfLm16EEEEENS3_IdNS5_IdLm16EEEEENS3_I11MulawSampleNS5_ISG_Lm16EEEEENS3_I10AlawSampleNS5_ISJ_Lm16EEEEENS3_I8IMA4DataNS5_ISM_Lm16EEEEENS3_I11MSADPCMDataNS5_ISP_Lm16EEEEEEEEE9__emplaceB8fe200100ILm2EJmRiEEERDaDpOT0_, symObjAddr: 0x7804, symBinAddr: 0xDDF4, symSize: 0x160 }
  - { offset: 0xAA57F, size: 0x8, addend: 0x0, symName: __ZNSt3__116__variant_detail12__assignmentINS0_8__traitsIJNS_6vectorIhN2al9allocatorIhLm16EEEEENS3_IsNS5_IsLm16EEEEENS3_IiNS5_IiLm16EEEEENS3_IfNS5_IfLm16EEEEENS3_IdNS5_IdLm16EEEEENS3_I11MulawSampleNS5_ISG_Lm16EEEEENS3_I10AlawSampleNS5_ISJ_Lm16EEEEENS3_I8IMA4DataNS5_ISM_Lm16EEEEENS3_I11MSADPCMDataNS5_ISP_Lm16EEEEEEEEE9__emplaceB8fe200100ILm6EJmRSJ_EEERDaDpOT0_, symObjAddr: 0x7CBC, symBinAddr: 0xE2AC, symSize: 0xD4 }
  - { offset: 0xAAC00, size: 0x8, addend: 0x0, symName: __ZNSt3__116__variant_detail12__assignmentINS0_8__traitsIJNS_6vectorIhN2al9allocatorIhLm16EEEEENS3_IsNS5_IsLm16EEEEENS3_IiNS5_IiLm16EEEEENS3_IfNS5_IfLm16EEEEENS3_IdNS5_IdLm16EEEEENS3_I11MulawSampleNS5_ISG_Lm16EEEEENS3_I10AlawSampleNS5_ISJ_Lm16EEEEENS3_I8IMA4DataNS5_ISM_Lm16EEEEENS3_I11MSADPCMDataNS5_ISP_Lm16EEEEEEEEE9__emplaceB8fe200100ILm4EJmRdEEERDaDpOT0_, symObjAddr: 0x7AC8, symBinAddr: 0xE0B8, symSize: 0x120 }
  - { offset: 0xAB1E6, size: 0x8, addend: 0x0, symName: __ZNSt3__116__variant_detail12__assignmentINS0_8__traitsIJNS_6vectorIhN2al9allocatorIhLm16EEEEENS3_IsNS5_IsLm16EEEEENS3_IiNS5_IiLm16EEEEENS3_IfNS5_IfLm16EEEEENS3_IdNS5_IdLm16EEEEENS3_I11MulawSampleNS5_ISG_Lm16EEEEENS3_I10AlawSampleNS5_ISJ_Lm16EEEEENS3_I8IMA4DataNS5_ISM_Lm16EEEEENS3_I11MSADPCMDataNS5_ISP_Lm16EEEEEEEEE9__emplaceB8fe200100ILm7EJmRSM_EEERDaDpOT0_, symObjAddr: 0x7D90, symBinAddr: 0xE380, symSize: 0xD4 }
  - { offset: 0xAB970, size: 0x8, addend: 0x0, symName: __ZN2al7Context11throw_errorIJRKjS3_S3_EEEviN3fmt10alsoft_v117fstringIJDpT_EE1tEDpOS7_, symObjAddr: 0x5E98, symBinAddr: 0xCA14, symSize: 0x30 }
  - { offset: 0xABBDF, size: 0x8, addend: 0x0, symName: __ZN2al7Context11throw_errorIJRjNSt3__117basic_string_viewIcNS3_11char_traitsIcEEEEEEEviN3fmt10alsoft_v117fstringIJDpT_EE1tEDpOSB_, symObjAddr: 0x5E70, symBinAddr: 0xC9EC, symSize: 0x28 }
  - { offset: 0xABD81, size: 0x8, addend: 0x0, symName: _alBufferStorageDirectSOFT, symObjAddr: 0x1334, symBinAddr: 0x8A38, symSize: 0x14 }
  - { offset: 0xABE69, size: 0x8, addend: 0x0, symName: _alBufferDataStatic, symObjAddr: 0x1348, symBinAddr: 0xABAB8, symSize: 0x64 }
  - { offset: 0xABE74, size: 0x8, addend: 0x0, symName: _alBufferDataStatic, symObjAddr: 0x1348, symBinAddr: 0xABAB8, symSize: 0x64 }
  - { offset: 0xAE64E, size: 0x8, addend: 0x0, symName: __ZN2al7Context11throw_errorIJRKPvNSt3__117basic_string_viewIcNS5_11char_traitsIcEEEERKjEEEviN3fmt10alsoft_v117fstringIJDpT_EE1tEDpOSF_, symObjAddr: 0x7F90, symBinAddr: 0xE580, symSize: 0x30 }
  - { offset: 0xAE803, size: 0x8, addend: 0x0, symName: _alBufferDataStaticDirect, symObjAddr: 0x1B48, symBinAddr: 0x91E8, symSize: 0x14 }
  - { offset: 0xAE8DB, size: 0x8, addend: 0x0, symName: _alBufferCallbackSOFT, symObjAddr: 0x1B5C, symBinAddr: 0xABB1C, symSize: 0x64 }
  - { offset: 0xAE8E6, size: 0x8, addend: 0x0, symName: _alBufferCallbackSOFT, symObjAddr: 0x1B5C, symBinAddr: 0xABB1C, symSize: 0x64 }
  - { offset: 0xAEA3D, size: 0x8, addend: 0x0, symName: _OUTLINED_FUNCTION_10, symObjAddr: 0x8B4C, symBinAddr: 0xE8C0, symSize: 0xC }
  - { offset: 0xAEA55, size: 0x8, addend: 0x0, symName: _OUTLINED_FUNCTION_9, symObjAddr: 0x8B40, symBinAddr: 0xE8B4, symSize: 0xC }
  - { offset: 0xAED2D, size: 0x8, addend: 0x0, symName: _alBufferCallbackDirectSOFT, symObjAddr: 0x2218, symBinAddr: 0x9854, symSize: 0x14 }
  - { offset: 0xAEE05, size: 0x8, addend: 0x0, symName: _alBufferSubDataSOFT, symObjAddr: 0x222C, symBinAddr: 0xABB80, symSize: 0x64 }
  - { offset: 0xAEE10, size: 0x8, addend: 0x0, symName: _alBufferSubDataSOFT, symObjAddr: 0x222C, symBinAddr: 0xABB80, symSize: 0x64 }
  - { offset: 0xAF72A, size: 0x8, addend: 0x0, symName: __ZN2al7Context11throw_errorIJRKiS3_RKjEEEviN3fmt10alsoft_v117fstringIJDpT_EE1tEDpOS9_, symObjAddr: 0x7FE8, symBinAddr: 0xE5B0, symSize: 0x30 }
  - { offset: 0xAF97E, size: 0x8, addend: 0x0, symName: __ZN2al7Context11throw_errorIJRKiRKjS5_EEEviN3fmt10alsoft_v117fstringIJDpT_EE1tEDpOS9_, symObjAddr: 0x8018, symBinAddr: 0xE5E0, symSize: 0x30 }
  - { offset: 0xAFAEB, size: 0x8, addend: 0x0, symName: _alBufferSubDataDirectSOFT, symObjAddr: 0x26CC, symBinAddr: 0x9CA4, symSize: 0x14 }
  - { offset: 0xAFBC3, size: 0x8, addend: 0x0, symName: _alMapBufferSOFT, symObjAddr: 0x26E0, symBinAddr: 0xABBE4, symSize: 0x80 }
  - { offset: 0xAFBCE, size: 0x8, addend: 0x0, symName: _alMapBufferSOFT, symObjAddr: 0x26E0, symBinAddr: 0xABBE4, symSize: 0x80 }
  - { offset: 0xAFE66, size: 0x8, addend: 0x0, symName: _alMapBufferDirectSOFT, symObjAddr: 0x2A3C, symBinAddr: 0x9F94, symSize: 0x14 }
  - { offset: 0xAFF32, size: 0x8, addend: 0x0, symName: _alUnmapBufferSOFT, symObjAddr: 0x2A50, symBinAddr: 0xABC64, symSize: 0x48 }
  - { offset: 0xAFF3D, size: 0x8, addend: 0x0, symName: _alUnmapBufferSOFT, symObjAddr: 0x2A50, symBinAddr: 0xABC64, symSize: 0x48 }
  - { offset: 0xB0030, size: 0x8, addend: 0x0, symName: _alUnmapBufferDirectSOFT, symObjAddr: 0x2BF4, symBinAddr: 0xA104, symSize: 0x14 }
  - { offset: 0xB00C8, size: 0x8, addend: 0x0, symName: _alFlushMappedBufferSOFT, symObjAddr: 0x2C08, symBinAddr: 0xABCAC, symSize: 0x54 }
  - { offset: 0xB00D3, size: 0x8, addend: 0x0, symName: _alFlushMappedBufferSOFT, symObjAddr: 0x2C08, symBinAddr: 0xABCAC, symSize: 0x54 }
  - { offset: 0xB0206, size: 0x8, addend: 0x0, symName: _alFlushMappedBufferDirectSOFT, symObjAddr: 0x2E18, symBinAddr: 0xA2D4, symSize: 0x14 }
  - { offset: 0xB02BE, size: 0x8, addend: 0x0, symName: _alBufferf, symObjAddr: 0x2E2C, symBinAddr: 0xABD00, symSize: 0x50 }
  - { offset: 0xB02C9, size: 0x8, addend: 0x0, symName: _alBufferf, symObjAddr: 0x2E2C, symBinAddr: 0xABD00, symSize: 0x50 }
  - { offset: 0xB0520, size: 0x8, addend: 0x0, symName: _alBufferfDirect, symObjAddr: 0x2FDC, symBinAddr: 0xA448, symSize: 0x14 }
  - { offset: 0xB05D8, size: 0x8, addend: 0x0, symName: _alBuffer3f, symObjAddr: 0x2FF0, symBinAddr: 0xABD50, symSize: 0x50 }
  - { offset: 0xB05E3, size: 0x8, addend: 0x0, symName: _alBuffer3f, symObjAddr: 0x2FF0, symBinAddr: 0xABD50, symSize: 0x50 }
  - { offset: 0xB071C, size: 0x8, addend: 0x0, symName: _alBuffer3fDirect, symObjAddr: 0x31A0, symBinAddr: 0xA5BC, symSize: 0x14 }
  - { offset: 0xB07F4, size: 0x8, addend: 0x0, symName: _alBufferfv, symObjAddr: 0x31B4, symBinAddr: 0xABDA0, symSize: 0x4C }
  - { offset: 0xB07FF, size: 0x8, addend: 0x0, symName: _alBufferfv, symObjAddr: 0x31B4, symBinAddr: 0xABDA0, symSize: 0x4C }
  - { offset: 0xB0924, size: 0x8, addend: 0x0, symName: _alBufferfvDirect, symObjAddr: 0x3388, symBinAddr: 0xA758, symSize: 0x14 }
  - { offset: 0xB09DC, size: 0x8, addend: 0x0, symName: _alBufferi, symObjAddr: 0x339C, symBinAddr: 0xABDEC, symSize: 0x54 }
  - { offset: 0xB09E7, size: 0x8, addend: 0x0, symName: _alBufferi, symObjAddr: 0x339C, symBinAddr: 0xABDEC, symSize: 0x54 }
  - { offset: 0xB0C1A, size: 0x8, addend: 0x0, symName: _alBufferiDirect, symObjAddr: 0x3868, symBinAddr: 0xABE4, symSize: 0x14 }
  - { offset: 0xB0CD2, size: 0x8, addend: 0x0, symName: _alBuffer3i, symObjAddr: 0x387C, symBinAddr: 0xABE40, symSize: 0x50 }
  - { offset: 0xB0CDD, size: 0x8, addend: 0x0, symName: _alBuffer3i, symObjAddr: 0x387C, symBinAddr: 0xABE40, symSize: 0x50 }
  - { offset: 0xB0E16, size: 0x8, addend: 0x0, symName: _alBuffer3iDirect, symObjAddr: 0x3A2C, symBinAddr: 0xAD58, symSize: 0x14 }
  - { offset: 0xB0EEE, size: 0x8, addend: 0x0, symName: _alBufferiv, symObjAddr: 0x3A40, symBinAddr: 0xABE90, symSize: 0x4C }
  - { offset: 0xB0EF9, size: 0x8, addend: 0x0, symName: _alBufferiv, symObjAddr: 0x3A40, symBinAddr: 0xABE90, symSize: 0x4C }
  - { offset: 0xB105B, size: 0x8, addend: 0x0, symName: _alBufferivDirect, symObjAddr: 0x3CF0, symBinAddr: 0xAFD0, symSize: 0x14 }
  - { offset: 0xB1113, size: 0x8, addend: 0x0, symName: _alGetBufferf, symObjAddr: 0x3D04, symBinAddr: 0xABEDC, symSize: 0x4C }
  - { offset: 0xB111E, size: 0x8, addend: 0x0, symName: _alGetBufferf, symObjAddr: 0x3D04, symBinAddr: 0xABEDC, symSize: 0x4C }
  - { offset: 0xB1239, size: 0x8, addend: 0x0, symName: _alGetBufferfDirect, symObjAddr: 0x3F0C, symBinAddr: 0xB1A0, symSize: 0x14 }
  - { offset: 0xB12F1, size: 0x8, addend: 0x0, symName: _alGetBuffer3f, symObjAddr: 0x3F20, symBinAddr: 0xABF28, symSize: 0x5C }
  - { offset: 0xB12FC, size: 0x8, addend: 0x0, symName: _alGetBuffer3f, symObjAddr: 0x3F20, symBinAddr: 0xABF28, symSize: 0x5C }
  - { offset: 0xB1461, size: 0x8, addend: 0x0, symName: _alGetBuffer3fDirect, symObjAddr: 0x411C, symBinAddr: 0xB354, symSize: 0x14 }
  - { offset: 0xB1539, size: 0x8, addend: 0x0, symName: _alGetBufferfv, symObjAddr: 0x4130, symBinAddr: 0xABF84, symSize: 0x4C }
  - { offset: 0xB1544, size: 0x8, addend: 0x0, symName: _alGetBufferfv, symObjAddr: 0x4130, symBinAddr: 0xABF84, symSize: 0x4C }
  - { offset: 0xB165F, size: 0x8, addend: 0x0, symName: _alGetBufferfvDirect, symObjAddr: 0x42B8, symBinAddr: 0xB4A4, symSize: 0x14 }
  - { offset: 0xB1717, size: 0x8, addend: 0x0, symName: _alGetBufferi, symObjAddr: 0x42CC, symBinAddr: 0xABFD0, symSize: 0x4C }
  - { offset: 0xB1722, size: 0x8, addend: 0x0, symName: _alGetBufferi, symObjAddr: 0x42CC, symBinAddr: 0xABFD0, symSize: 0x4C }
  - { offset: 0xB1A0F, size: 0x8, addend: 0x0, symName: __ZNK13BufferStorage16blockSizeFromFmtEv, symObjAddr: 0x81E4, symBinAddr: 0xE7AC, symSize: 0x8C }
  - { offset: 0xB1ACB, size: 0x8, addend: 0x0, symName: _alGetBufferiDirect, symObjAddr: 0x472C, symBinAddr: 0xB8CC, symSize: 0x14 }
  - { offset: 0xB1B83, size: 0x8, addend: 0x0, symName: _alGetBuffer3i, symObjAddr: 0x4740, symBinAddr: 0xAC01C, symSize: 0x5C }
  - { offset: 0xB1B8E, size: 0x8, addend: 0x0, symName: _alGetBuffer3i, symObjAddr: 0x4740, symBinAddr: 0xAC01C, symSize: 0x5C }
  - { offset: 0xB1CF3, size: 0x8, addend: 0x0, symName: _alGetBuffer3iDirect, symObjAddr: 0x493C, symBinAddr: 0xBA80, symSize: 0x14 }
  - { offset: 0xB1DCB, size: 0x8, addend: 0x0, symName: _alGetBufferiv, symObjAddr: 0x4950, symBinAddr: 0xAC078, symSize: 0x4C }
  - { offset: 0xB1DD6, size: 0x8, addend: 0x0, symName: _alGetBufferiv, symObjAddr: 0x4950, symBinAddr: 0xAC078, symSize: 0x4C }
  - { offset: 0xB1EF1, size: 0x8, addend: 0x0, symName: _alGetBufferivDirect, symObjAddr: 0x4BB8, symBinAddr: 0xBCB0, symSize: 0x14 }
  - { offset: 0xB1FA9, size: 0x8, addend: 0x0, symName: _alGetBufferPtrSOFT, symObjAddr: 0x4BCC, symBinAddr: 0xAC0C4, symSize: 0x4C }
  - { offset: 0xB1FB4, size: 0x8, addend: 0x0, symName: _alGetBufferPtrSOFT, symObjAddr: 0x4BCC, symBinAddr: 0xAC0C4, symSize: 0x4C }
  - { offset: 0xB20CF, size: 0x8, addend: 0x0, symName: _alGetBufferPtrDirectSOFT, symObjAddr: 0x4DC8, symBinAddr: 0xBE74, symSize: 0x14 }
  - { offset: 0xB2187, size: 0x8, addend: 0x0, symName: _alGetBuffer3PtrSOFT, symObjAddr: 0x4DDC, symBinAddr: 0xAC110, symSize: 0x5C }
  - { offset: 0xB2192, size: 0x8, addend: 0x0, symName: _alGetBuffer3PtrSOFT, symObjAddr: 0x4DDC, symBinAddr: 0xAC110, symSize: 0x5C }
  - { offset: 0xB22F7, size: 0x8, addend: 0x0, symName: _alGetBuffer3PtrDirectSOFT, symObjAddr: 0x4FD8, symBinAddr: 0xC028, symSize: 0x14 }
  - { offset: 0xB23CF, size: 0x8, addend: 0x0, symName: _alGetBufferPtrvSOFT, symObjAddr: 0x4FEC, symBinAddr: 0xAC16C, symSize: 0x4C }
  - { offset: 0xB23DA, size: 0x8, addend: 0x0, symName: _alGetBufferPtrvSOFT, symObjAddr: 0x4FEC, symBinAddr: 0xAC16C, symSize: 0x4C }
  - { offset: 0xB24F5, size: 0x8, addend: 0x0, symName: _alGetBufferPtrvDirectSOFT, symObjAddr: 0x5170, symBinAddr: 0xC174, symSize: 0x14 }
  - { offset: 0xB25AD, size: 0x8, addend: 0x0, symName: _alBufferSamplesSOFT, symObjAddr: 0x5184, symBinAddr: 0xC188, symSize: 0x5C }
  - { offset: 0xB25E9, size: 0x8, addend: 0x0, symName: _alBufferSamplesSOFT, symObjAddr: 0x5184, symBinAddr: 0xC188, symSize: 0x5C }
  - { offset: 0xB270A, size: 0x8, addend: 0x0, symName: _alBufferSubSamplesSOFT, symObjAddr: 0x51E0, symBinAddr: 0xC1E4, symSize: 0x5C }
  - { offset: 0xB281E, size: 0x8, addend: 0x0, symName: _alGetBufferSamplesSOFT, symObjAddr: 0x523C, symBinAddr: 0xC240, symSize: 0x5C }
  - { offset: 0xB2932, size: 0x8, addend: 0x0, symName: _alIsBufferFormatSupportedSOFT, symObjAddr: 0x5298, symBinAddr: 0xC29C, symSize: 0x60 }
  - { offset: 0xB2B02, size: 0x8, addend: 0x0, symName: __ZN2al6Buffer7SetNameEN3gsl8not_nullIPNS_7ContextEEEjNSt3__117basic_string_viewIcNS6_11char_traitsIcEEEE, symObjAddr: 0x52F8, symBinAddr: 0xC2FC, symSize: 0xF4 }
  - { offset: 0xB3555, size: 0x8, addend: 0x0, symName: _alIsBuffer.cold.1, symObjAddr: 0x8958, symBinAddr: 0xAC1B8, symSize: 0x4C }
  - { offset: 0xB3560, size: 0x8, addend: 0x0, symName: __ZN13BufferSubListD2Ev, symObjAddr: 0x545C, symBinAddr: 0xC460, symSize: 0xCC }
  - { offset: 0xB3A31, size: 0x8, addend: 0x0, symName: __ZNSt3__114__split_bufferI13BufferSubListRNS_9allocatorIS1_EEED1Ev, symObjAddr: 0x57A0, symBinAddr: 0xC708, symSize: 0x30 }
  - { offset: 0xB3AFE, size: 0x8, addend: 0x0, symName: __ZNSt3__114__split_bufferI13BufferSubListRNS_9allocatorIS1_EEE5clearB8fe200100Ev, symObjAddr: 0x5A3C, symBinAddr: 0xC8F4, symSize: 0xF8 }
  - { offset: 0xB4862, size: 0x8, addend: 0x0, symName: __ZNSt18bad_variant_accessD1Ev, symObjAddr: 0x5F24, symBinAddr: 0xCA78, symSize: 0x4 }
  - { offset: 0xB4890, size: 0x8, addend: 0x0, symName: __ZNSt18bad_variant_accessD1Ev, symObjAddr: 0x5F24, symBinAddr: 0xCA78, symSize: 0x4 }
  - { offset: 0xB4A21, size: 0x8, addend: 0x0, symName: '__ZNSt3__116__variant_detail12__visitation6__base12__dispatcherIJLm0EEE10__dispatchB8fe200100IONS1_9__variant15__value_visitorIZN12_GLOBAL__N_18LoadDataEN3gsl8not_nullIPN2al7ContextEEENSA_IPNSB_6BufferEEEij11FmtChannels7FmtTypeNS_4spanIKSt4byteLm18446744073709551615EEEjE3$_0EEJRNS0_6__baseILNS0_6_TraitE1EJNS_6vectorIhNSB_9allocatorIhLm16EEEEENST_IsNSU_IsLm16EEEEENST_IiNSU_IiLm16EEEEENST_IfNSU_IfLm16EEEEENST_IdNSU_IdLm16EEEEENST_I11MulawSampleNSU_IS15_Lm16EEEEENST_I10AlawSampleNSU_IS18_Lm16EEEEENST_I8IMA4DataNSU_IS1B_Lm16EEEEENST_I11MSADPCMDataNSU_IS1E_Lm16EEEEEEEEEEEDcT_DpT0_', symObjAddr: 0x5F28, symBinAddr: 0xCA7C, symSize: 0xAC }
  - { offset: 0xB4C75, size: 0x8, addend: 0x0, symName: __ZNSt3__16vectorIhN2al9allocatorIhLm16EEEE8__appendEmRKh, symObjAddr: 0x659C, symBinAddr: 0xD0F0, symSize: 0x12C }
  - { offset: 0xB51E4, size: 0x8, addend: 0x0, symName: '__ZNSt3__116__variant_detail12__visitation6__base12__dispatcherIJLm1EEE10__dispatchB8fe200100IONS1_9__variant15__value_visitorIZN12_GLOBAL__N_18LoadDataEN3gsl8not_nullIPN2al7ContextEEENSA_IPNSB_6BufferEEEij11FmtChannels7FmtTypeNS_4spanIKSt4byteLm18446744073709551615EEEjE3$_0EEJRNS0_6__baseILNS0_6_TraitE1EJNS_6vectorIhNSB_9allocatorIhLm16EEEEENST_IsNSU_IsLm16EEEEENST_IiNSU_IiLm16EEEEENST_IfNSU_IfLm16EEEEENST_IdNSU_IdLm16EEEEENST_I11MulawSampleNSU_IS15_Lm16EEEEENST_I10AlawSampleNSU_IS18_Lm16EEEEENST_I8IMA4DataNSU_IS1B_Lm16EEEEENST_I11MSADPCMDataNSU_IS1E_Lm16EEEEEEEEEEEDcT_DpT0_', symObjAddr: 0x5FD4, symBinAddr: 0xCB28, symSize: 0xBC }
  - { offset: 0xB5424, size: 0x8, addend: 0x0, symName: __ZNSt3__16vectorIsN2al9allocatorIsLm16EEEE8__appendEmRKs, symObjAddr: 0x66DC, symBinAddr: 0xD21C, symSize: 0x250 }
  - { offset: 0xB5939, size: 0x8, addend: 0x0, symName: '__ZNSt3__116__variant_detail12__visitation6__base12__dispatcherIJLm2EEE10__dispatchB8fe200100IONS1_9__variant15__value_visitorIZN12_GLOBAL__N_18LoadDataEN3gsl8not_nullIPN2al7ContextEEENSA_IPNSB_6BufferEEEij11FmtChannels7FmtTypeNS_4spanIKSt4byteLm18446744073709551615EEEjE3$_0EEJRNS0_6__baseILNS0_6_TraitE1EJNS_6vectorIhNSB_9allocatorIhLm16EEEEENST_IsNSU_IsLm16EEEEENST_IiNSU_IiLm16EEEEENST_IfNSU_IfLm16EEEEENST_IdNSU_IdLm16EEEEENST_I11MulawSampleNSU_IS15_Lm16EEEEENST_I10AlawSampleNSU_IS18_Lm16EEEEENST_I8IMA4DataNSU_IS1B_Lm16EEEEENST_I11MSADPCMDataNSU_IS1E_Lm16EEEEEEEEEEEDcT_DpT0_', symObjAddr: 0x6090, symBinAddr: 0xCBE4, symSize: 0xBC }
  - { offset: 0xB5B79, size: 0x8, addend: 0x0, symName: __ZNSt3__16vectorIiN2al9allocatorIiLm16EEEE8__appendEmRKi, symObjAddr: 0x6940, symBinAddr: 0xD46C, symSize: 0x254 }
  - { offset: 0xB608E, size: 0x8, addend: 0x0, symName: '__ZNSt3__116__variant_detail12__visitation6__base12__dispatcherIJLm3EEE10__dispatchB8fe200100IONS1_9__variant15__value_visitorIZN12_GLOBAL__N_18LoadDataEN3gsl8not_nullIPN2al7ContextEEENSA_IPNSB_6BufferEEEij11FmtChannels7FmtTypeNS_4spanIKSt4byteLm18446744073709551615EEEjE3$_0EEJRNS0_6__baseILNS0_6_TraitE1EJNS_6vectorIhNSB_9allocatorIhLm16EEEEENST_IsNSU_IsLm16EEEEENST_IiNSU_IiLm16EEEEENST_IfNSU_IfLm16EEEEENST_IdNSU_IdLm16EEEEENST_I11MulawSampleNSU_IS15_Lm16EEEEENST_I10AlawSampleNSU_IS18_Lm16EEEEENST_I8IMA4DataNSU_IS1B_Lm16EEEEENST_I11MSADPCMDataNSU_IS1E_Lm16EEEEEEEEEEEDcT_DpT0_', symObjAddr: 0x614C, symBinAddr: 0xCCA0, symSize: 0xBC }
  - { offset: 0xB62CE, size: 0x8, addend: 0x0, symName: __ZNSt3__16vectorIfN2al9allocatorIfLm16EEEE8__appendEmRKf, symObjAddr: 0x6BA8, symBinAddr: 0xD6C0, symSize: 0x25C }
  - { offset: 0xB67E3, size: 0x8, addend: 0x0, symName: '__ZNSt3__116__variant_detail12__visitation6__base12__dispatcherIJLm4EEE10__dispatchB8fe200100IONS1_9__variant15__value_visitorIZN12_GLOBAL__N_18LoadDataEN3gsl8not_nullIPN2al7ContextEEENSA_IPNSB_6BufferEEEij11FmtChannels7FmtTypeNS_4spanIKSt4byteLm18446744073709551615EEEjE3$_0EEJRNS0_6__baseILNS0_6_TraitE1EJNS_6vectorIhNSB_9allocatorIhLm16EEEEENST_IsNSU_IsLm16EEEEENST_IiNSU_IiLm16EEEEENST_IfNSU_IfLm16EEEEENST_IdNSU_IdLm16EEEEENST_I11MulawSampleNSU_IS15_Lm16EEEEENST_I10AlawSampleNSU_IS18_Lm16EEEEENST_I8IMA4DataNSU_IS1B_Lm16EEEEENST_I11MSADPCMDataNSU_IS1E_Lm16EEEEEEEEEEEDcT_DpT0_', symObjAddr: 0x6208, symBinAddr: 0xCD5C, symSize: 0xBC }
  - { offset: 0xB6A23, size: 0x8, addend: 0x0, symName: __ZNSt3__16vectorIdN2al9allocatorIdLm16EEEE8__appendEmRKd, symObjAddr: 0x6E18, symBinAddr: 0xD91C, symSize: 0x1D0 }
  - { offset: 0xB6F3E, size: 0x8, addend: 0x0, symName: '__ZNSt3__116__variant_detail12__visitation6__base12__dispatcherIJLm5EEE10__dispatchB8fe200100IONS1_9__variant15__value_visitorIZN12_GLOBAL__N_18LoadDataEN3gsl8not_nullIPN2al7ContextEEENSA_IPNSB_6BufferEEEij11FmtChannels7FmtTypeNS_4spanIKSt4byteLm18446744073709551615EEEjE3$_0EEJRNS0_6__baseILNS0_6_TraitE1EJNS_6vectorIhNSB_9allocatorIhLm16EEEEENST_IsNSU_IsLm16EEEEENST_IiNSU_IiLm16EEEEENST_IfNSU_IfLm16EEEEENST_IdNSU_IdLm16EEEEENST_I11MulawSampleNSU_IS15_Lm16EEEEENST_I10AlawSampleNSU_IS18_Lm16EEEEENST_I8IMA4DataNSU_IS1B_Lm16EEEEENST_I11MSADPCMDataNSU_IS1E_Lm16EEEEEEEEEEEDcT_DpT0_', symObjAddr: 0x62C4, symBinAddr: 0xCE18, symSize: 0xB8 }
  - { offset: 0xB753E, size: 0x8, addend: 0x0, symName: '__ZNSt3__116__variant_detail12__visitation6__base12__dispatcherIJLm6EEE10__dispatchB8fe200100IONS1_9__variant15__value_visitorIZN12_GLOBAL__N_18LoadDataEN3gsl8not_nullIPN2al7ContextEEENSA_IPNSB_6BufferEEEij11FmtChannels7FmtTypeNS_4spanIKSt4byteLm18446744073709551615EEEjE3$_0EEJRNS0_6__baseILNS0_6_TraitE1EJNS_6vectorIhNSB_9allocatorIhLm16EEEEENST_IsNSU_IsLm16EEEEENST_IiNSU_IiLm16EEEEENST_IfNSU_IfLm16EEEEENST_IdNSU_IdLm16EEEEENST_I11MulawSampleNSU_IS15_Lm16EEEEENST_I10AlawSampleNSU_IS18_Lm16EEEEENST_I8IMA4DataNSU_IS1B_Lm16EEEEENST_I11MSADPCMDataNSU_IS1E_Lm16EEEEEEEEEEEDcT_DpT0_', symObjAddr: 0x637C, symBinAddr: 0xCED0, symSize: 0xB8 }
  - { offset: 0xB7B3E, size: 0x8, addend: 0x0, symName: '__ZNSt3__116__variant_detail12__visitation6__base12__dispatcherIJLm7EEE10__dispatchB8fe200100IONS1_9__variant15__value_visitorIZN12_GLOBAL__N_18LoadDataEN3gsl8not_nullIPN2al7ContextEEENSA_IPNSB_6BufferEEEij11FmtChannels7FmtTypeNS_4spanIKSt4byteLm18446744073709551615EEEjE3$_0EEJRNS0_6__baseILNS0_6_TraitE1EJNS_6vectorIhNSB_9allocatorIhLm16EEEEENST_IsNSU_IsLm16EEEEENST_IiNSU_IiLm16EEEEENST_IfNSU_IfLm16EEEEENST_IdNSU_IdLm16EEEEENST_I11MulawSampleNSU_IS15_Lm16EEEEENST_I10AlawSampleNSU_IS18_Lm16EEEEENST_I8IMA4DataNSU_IS1B_Lm16EEEEENST_I11MSADPCMDataNSU_IS1E_Lm16EEEEEEEEEEEDcT_DpT0_', symObjAddr: 0x6434, symBinAddr: 0xCF88, symSize: 0xB4 }
  - { offset: 0xB813E, size: 0x8, addend: 0x0, symName: '__ZNSt3__116__variant_detail12__visitation6__base12__dispatcherIJLm8EEE10__dispatchB8fe200100IONS1_9__variant15__value_visitorIZN12_GLOBAL__N_18LoadDataEN3gsl8not_nullIPN2al7ContextEEENSA_IPNSB_6BufferEEEij11FmtChannels7FmtTypeNS_4spanIKSt4byteLm18446744073709551615EEEjE3$_0EEJRNS0_6__baseILNS0_6_TraitE1EJNS_6vectorIhNSB_9allocatorIhLm16EEEEENST_IsNSU_IsLm16EEEEENST_IiNSU_IiLm16EEEEENST_IfNSU_IfLm16EEEEENST_IdNSU_IdLm16EEEEENST_I11MulawSampleNSU_IS15_Lm16EEEEENST_I10AlawSampleNSU_IS18_Lm16EEEEENST_I8IMA4DataNSU_IS1B_Lm16EEEEENST_I11MSADPCMDataNSU_IS1E_Lm16EEEEEEEEEEEDcT_DpT0_', symObjAddr: 0x64E8, symBinAddr: 0xD03C, symSize: 0xB4 }
  - { offset: 0xB89E9, size: 0x8, addend: 0x0, symName: __ZNSt3__16vectorIsN2al9allocatorIsLm16EEEE8__appendEmRKs, symObjAddr: 0x66DC, symBinAddr: 0xD21C, symSize: 0x250 }
  - { offset: 0xB8D51, size: 0x8, addend: 0x0, symName: __ZNSt3__16vectorIiN2al9allocatorIiLm16EEEE8__appendEmRKi, symObjAddr: 0x6940, symBinAddr: 0xD46C, symSize: 0x254 }
  - { offset: 0xB90B3, size: 0x8, addend: 0x0, symName: __ZNSt3__16vectorIfN2al9allocatorIfLm16EEEE8__appendEmRKf, symObjAddr: 0x6BA8, symBinAddr: 0xD6C0, symSize: 0x25C }
  - { offset: 0xB9415, size: 0x8, addend: 0x0, symName: __ZNSt3__16vectorIdN2al9allocatorIdLm16EEEE8__appendEmRKd, symObjAddr: 0x6E18, symBinAddr: 0xD91C, symSize: 0x1D0 }
  - { offset: 0xBA6BD, size: 0x8, addend: 0x0, symName: __ZNSt3__116__variant_detail12__assignmentINS0_8__traitsIJNS_6vectorIhN2al9allocatorIhLm16EEEEENS3_IsNS5_IsLm16EEEEENS3_IiNS5_IiLm16EEEEENS3_IfNS5_IfLm16EEEEENS3_IdNS5_IdLm16EEEEENS3_I11MulawSampleNS5_ISG_Lm16EEEEENS3_I10AlawSampleNS5_ISJ_Lm16EEEEENS3_I8IMA4DataNS5_ISM_Lm16EEEEENS3_I11MSADPCMDataNS5_ISP_Lm16EEEEEEEEE9__emplaceB8fe200100ILm0EJmRhEEERDaDpOT0_, symObjAddr: 0x74FC, symBinAddr: 0xDAEC, symSize: 0xD0 }
  - { offset: 0xBA9D4, size: 0x8, addend: 0x0, symName: __ZNSt3__116__variant_detail12__visitation6__base12__dispatcherIJLm0EEE10__dispatchB8fe200100IOZNS0_6__dtorINS0_8__traitsIJNS_6vectorIhN2al9allocatorIhLm16EEEEENS8_IsNSA_IsLm16EEEEENS8_IiNSA_IiLm16EEEEENS8_IfNSA_IfLm16EEEEENS8_IdNSA_IdLm16EEEEENS8_I11MulawSampleNSA_ISL_Lm16EEEEENS8_I10AlawSampleNSA_ISO_Lm16EEEEENS8_I8IMA4DataNSA_ISR_Lm16EEEEENS8_I11MSADPCMDataNSA_ISU_Lm16EEEEEEEELNS0_6_TraitE1EE9__destroyB8fe200100EvEUlRT_E_JRNS0_6__baseILSY_1EJSC_SE_SG_SI_SK_SN_SQ_ST_SW_EEEEEEDcS10_DpT0_, symObjAddr: 0x75CC, symBinAddr: 0xDBBC, symSize: 0x18 }
  - { offset: 0xBAA0B, size: 0x8, addend: 0x0, symName: __ZNSt3__116__variant_detail12__visitation6__base12__dispatcherIJLm0EEE10__dispatchB8fe200100IOZNS0_6__dtorINS0_8__traitsIJNS_6vectorIhN2al9allocatorIhLm16EEEEENS8_IsNSA_IsLm16EEEEENS8_IiNSA_IiLm16EEEEENS8_IfNSA_IfLm16EEEEENS8_IdNSA_IdLm16EEEEENS8_I11MulawSampleNSA_ISL_Lm16EEEEENS8_I10AlawSampleNSA_ISO_Lm16EEEEENS8_I8IMA4DataNSA_ISR_Lm16EEEEENS8_I11MSADPCMDataNSA_ISU_Lm16EEEEEEEELNS0_6_TraitE1EE9__destroyB8fe200100EvEUlRT_E_JRNS0_6__baseILSY_1EJSC_SE_SG_SI_SK_SN_SQ_ST_SW_EEEEEEDcS10_DpT0_, symObjAddr: 0x75CC, symBinAddr: 0xDBBC, symSize: 0x18 }
  - { offset: 0xBAA32, size: 0x8, addend: 0x0, symName: __ZNSt3__116__variant_detail12__visitation6__base12__dispatcherIJLm0EEE10__dispatchB8fe200100IOZNS0_6__dtorINS0_8__traitsIJNS_6vectorIhN2al9allocatorIhLm16EEEEENS8_IsNSA_IsLm16EEEEENS8_IiNSA_IiLm16EEEEENS8_IfNSA_IfLm16EEEEENS8_IdNSA_IdLm16EEEEENS8_I11MulawSampleNSA_ISL_Lm16EEEEENS8_I10AlawSampleNSA_ISO_Lm16EEEEENS8_I8IMA4DataNSA_ISR_Lm16EEEEENS8_I11MSADPCMDataNSA_ISU_Lm16EEEEEEEELNS0_6_TraitE1EE9__destroyB8fe200100EvEUlRT_E_JRNS0_6__baseILSY_1EJSC_SE_SG_SI_SK_SN_SQ_ST_SW_EEEEEEDcS10_DpT0_, symObjAddr: 0x75CC, symBinAddr: 0xDBBC, symSize: 0x18 }
  - { offset: 0xBAA58, size: 0x8, addend: 0x0, symName: __ZNSt3__116__variant_detail12__visitation6__base12__dispatcherIJLm0EEE10__dispatchB8fe200100IOZNS0_6__dtorINS0_8__traitsIJNS_6vectorIhN2al9allocatorIhLm16EEEEENS8_IsNSA_IsLm16EEEEENS8_IiNSA_IiLm16EEEEENS8_IfNSA_IfLm16EEEEENS8_IdNSA_IdLm16EEEEENS8_I11MulawSampleNSA_ISL_Lm16EEEEENS8_I10AlawSampleNSA_ISO_Lm16EEEEENS8_I8IMA4DataNSA_ISR_Lm16EEEEENS8_I11MSADPCMDataNSA_ISU_Lm16EEEEEEEELNS0_6_TraitE1EE9__destroyB8fe200100EvEUlRT_E_JRNS0_6__baseILSY_1EJSC_SE_SG_SI_SK_SN_SQ_ST_SW_EEEEEEDcS10_DpT0_, symObjAddr: 0x75CC, symBinAddr: 0xDBBC, symSize: 0x18 }
  - { offset: 0xBAA76, size: 0x8, addend: 0x0, symName: __ZNSt3__116__variant_detail12__visitation6__base12__dispatcherIJLm0EEE10__dispatchB8fe200100IOZNS0_6__dtorINS0_8__traitsIJNS_6vectorIhN2al9allocatorIhLm16EEEEENS8_IsNSA_IsLm16EEEEENS8_IiNSA_IiLm16EEEEENS8_IfNSA_IfLm16EEEEENS8_IdNSA_IdLm16EEEEENS8_I11MulawSampleNSA_ISL_Lm16EEEEENS8_I10AlawSampleNSA_ISO_Lm16EEEEENS8_I8IMA4DataNSA_ISR_Lm16EEEEENS8_I11MSADPCMDataNSA_ISU_Lm16EEEEEEEELNS0_6_TraitE1EE9__destroyB8fe200100EvEUlRT_E_JRNS0_6__baseILSY_1EJSC_SE_SG_SI_SK_SN_SQ_ST_SW_EEEEEEDcS10_DpT0_, symObjAddr: 0x75CC, symBinAddr: 0xDBBC, symSize: 0x18 }
  - { offset: 0xBAA94, size: 0x8, addend: 0x0, symName: __ZNSt3__116__variant_detail12__visitation6__base12__dispatcherIJLm0EEE10__dispatchB8fe200100IOZNS0_6__dtorINS0_8__traitsIJNS_6vectorIhN2al9allocatorIhLm16EEEEENS8_IsNSA_IsLm16EEEEENS8_IiNSA_IiLm16EEEEENS8_IfNSA_IfLm16EEEEENS8_IdNSA_IdLm16EEEEENS8_I11MulawSampleNSA_ISL_Lm16EEEEENS8_I10AlawSampleNSA_ISO_Lm16EEEEENS8_I8IMA4DataNSA_ISR_Lm16EEEEENS8_I11MSADPCMDataNSA_ISU_Lm16EEEEEEEELNS0_6_TraitE1EE9__destroyB8fe200100EvEUlRT_E_JRNS0_6__baseILSY_1EJSC_SE_SG_SI_SK_SN_SQ_ST_SW_EEEEEEDcS10_DpT0_, symObjAddr: 0x75CC, symBinAddr: 0xDBBC, symSize: 0x18 }
  - { offset: 0xBAAB2, size: 0x8, addend: 0x0, symName: __ZNSt3__116__variant_detail12__visitation6__base12__dispatcherIJLm0EEE10__dispatchB8fe200100IOZNS0_6__dtorINS0_8__traitsIJNS_6vectorIhN2al9allocatorIhLm16EEEEENS8_IsNSA_IsLm16EEEEENS8_IiNSA_IiLm16EEEEENS8_IfNSA_IfLm16EEEEENS8_IdNSA_IdLm16EEEEENS8_I11MulawSampleNSA_ISL_Lm16EEEEENS8_I10AlawSampleNSA_ISO_Lm16EEEEENS8_I8IMA4DataNSA_ISR_Lm16EEEEENS8_I11MSADPCMDataNSA_ISU_Lm16EEEEEEEELNS0_6_TraitE1EE9__destroyB8fe200100EvEUlRT_E_JRNS0_6__baseILSY_1EJSC_SE_SG_SI_SK_SN_SQ_ST_SW_EEEEEEDcS10_DpT0_, symObjAddr: 0x75CC, symBinAddr: 0xDBBC, symSize: 0x18 }
  - { offset: 0xBAAD0, size: 0x8, addend: 0x0, symName: __ZNSt3__116__variant_detail12__visitation6__base12__dispatcherIJLm0EEE10__dispatchB8fe200100IOZNS0_6__dtorINS0_8__traitsIJNS_6vectorIhN2al9allocatorIhLm16EEEEENS8_IsNSA_IsLm16EEEEENS8_IiNSA_IiLm16EEEEENS8_IfNSA_IfLm16EEEEENS8_IdNSA_IdLm16EEEEENS8_I11MulawSampleNSA_ISL_Lm16EEEEENS8_I10AlawSampleNSA_ISO_Lm16EEEEENS8_I8IMA4DataNSA_ISR_Lm16EEEEENS8_I11MSADPCMDataNSA_ISU_Lm16EEEEEEEELNS0_6_TraitE1EE9__destroyB8fe200100EvEUlRT_E_JRNS0_6__baseILSY_1EJSC_SE_SG_SI_SK_SN_SQ_ST_SW_EEEEEEDcS10_DpT0_, symObjAddr: 0x75CC, symBinAddr: 0xDBBC, symSize: 0x18 }
  - { offset: 0xBAC67, size: 0x8, addend: 0x0, symName: __ZNSt3__116__variant_detail12__visitation6__base12__dispatcherIJLm1EEE10__dispatchB8fe200100IOZNS0_6__dtorINS0_8__traitsIJNS_6vectorIhN2al9allocatorIhLm16EEEEENS8_IsNSA_IsLm16EEEEENS8_IiNSA_IiLm16EEEEENS8_IfNSA_IfLm16EEEEENS8_IdNSA_IdLm16EEEEENS8_I11MulawSampleNSA_ISL_Lm16EEEEENS8_I10AlawSampleNSA_ISO_Lm16EEEEENS8_I8IMA4DataNSA_ISR_Lm16EEEEENS8_I11MSADPCMDataNSA_ISU_Lm16EEEEEEEELNS0_6_TraitE1EE9__destroyB8fe200100EvEUlRT_E_JRNS0_6__baseILSY_1EJSC_SE_SG_SI_SK_SN_SQ_ST_SW_EEEEEEDcS10_DpT0_, symObjAddr: 0x75E4, symBinAddr: 0xDBD4, symSize: 0x18 }
  - { offset: 0xBAC9E, size: 0x8, addend: 0x0, symName: __ZNSt3__116__variant_detail12__visitation6__base12__dispatcherIJLm1EEE10__dispatchB8fe200100IOZNS0_6__dtorINS0_8__traitsIJNS_6vectorIhN2al9allocatorIhLm16EEEEENS8_IsNSA_IsLm16EEEEENS8_IiNSA_IiLm16EEEEENS8_IfNSA_IfLm16EEEEENS8_IdNSA_IdLm16EEEEENS8_I11MulawSampleNSA_ISL_Lm16EEEEENS8_I10AlawSampleNSA_ISO_Lm16EEEEENS8_I8IMA4DataNSA_ISR_Lm16EEEEENS8_I11MSADPCMDataNSA_ISU_Lm16EEEEEEEELNS0_6_TraitE1EE9__destroyB8fe200100EvEUlRT_E_JRNS0_6__baseILSY_1EJSC_SE_SG_SI_SK_SN_SQ_ST_SW_EEEEEEDcS10_DpT0_, symObjAddr: 0x75E4, symBinAddr: 0xDBD4, symSize: 0x18 }
  - { offset: 0xBACC5, size: 0x8, addend: 0x0, symName: __ZNSt3__116__variant_detail12__visitation6__base12__dispatcherIJLm1EEE10__dispatchB8fe200100IOZNS0_6__dtorINS0_8__traitsIJNS_6vectorIhN2al9allocatorIhLm16EEEEENS8_IsNSA_IsLm16EEEEENS8_IiNSA_IiLm16EEEEENS8_IfNSA_IfLm16EEEEENS8_IdNSA_IdLm16EEEEENS8_I11MulawSampleNSA_ISL_Lm16EEEEENS8_I10AlawSampleNSA_ISO_Lm16EEEEENS8_I8IMA4DataNSA_ISR_Lm16EEEEENS8_I11MSADPCMDataNSA_ISU_Lm16EEEEEEEELNS0_6_TraitE1EE9__destroyB8fe200100EvEUlRT_E_JRNS0_6__baseILSY_1EJSC_SE_SG_SI_SK_SN_SQ_ST_SW_EEEEEEDcS10_DpT0_, symObjAddr: 0x75E4, symBinAddr: 0xDBD4, symSize: 0x18 }
  - { offset: 0xBACEB, size: 0x8, addend: 0x0, symName: __ZNSt3__116__variant_detail12__visitation6__base12__dispatcherIJLm1EEE10__dispatchB8fe200100IOZNS0_6__dtorINS0_8__traitsIJNS_6vectorIhN2al9allocatorIhLm16EEEEENS8_IsNSA_IsLm16EEEEENS8_IiNSA_IiLm16EEEEENS8_IfNSA_IfLm16EEEEENS8_IdNSA_IdLm16EEEEENS8_I11MulawSampleNSA_ISL_Lm16EEEEENS8_I10AlawSampleNSA_ISO_Lm16EEEEENS8_I8IMA4DataNSA_ISR_Lm16EEEEENS8_I11MSADPCMDataNSA_ISU_Lm16EEEEEEEELNS0_6_TraitE1EE9__destroyB8fe200100EvEUlRT_E_JRNS0_6__baseILSY_1EJSC_SE_SG_SI_SK_SN_SQ_ST_SW_EEEEEEDcS10_DpT0_, symObjAddr: 0x75E4, symBinAddr: 0xDBD4, symSize: 0x18 }
  - { offset: 0xBAD09, size: 0x8, addend: 0x0, symName: __ZNSt3__116__variant_detail12__visitation6__base12__dispatcherIJLm1EEE10__dispatchB8fe200100IOZNS0_6__dtorINS0_8__traitsIJNS_6vectorIhN2al9allocatorIhLm16EEEEENS8_IsNSA_IsLm16EEEEENS8_IiNSA_IiLm16EEEEENS8_IfNSA_IfLm16EEEEENS8_IdNSA_IdLm16EEEEENS8_I11MulawSampleNSA_ISL_Lm16EEEEENS8_I10AlawSampleNSA_ISO_Lm16EEEEENS8_I8IMA4DataNSA_ISR_Lm16EEEEENS8_I11MSADPCMDataNSA_ISU_Lm16EEEEEEEELNS0_6_TraitE1EE9__destroyB8fe200100EvEUlRT_E_JRNS0_6__baseILSY_1EJSC_SE_SG_SI_SK_SN_SQ_ST_SW_EEEEEEDcS10_DpT0_, symObjAddr: 0x75E4, symBinAddr: 0xDBD4, symSize: 0x18 }
  - { offset: 0xBAD27, size: 0x8, addend: 0x0, symName: __ZNSt3__116__variant_detail12__visitation6__base12__dispatcherIJLm1EEE10__dispatchB8fe200100IOZNS0_6__dtorINS0_8__traitsIJNS_6vectorIhN2al9allocatorIhLm16EEEEENS8_IsNSA_IsLm16EEEEENS8_IiNSA_IiLm16EEEEENS8_IfNSA_IfLm16EEEEENS8_IdNSA_IdLm16EEEEENS8_I11MulawSampleNSA_ISL_Lm16EEEEENS8_I10AlawSampleNSA_ISO_Lm16EEEEENS8_I8IMA4DataNSA_ISR_Lm16EEEEENS8_I11MSADPCMDataNSA_ISU_Lm16EEEEEEEELNS0_6_TraitE1EE9__destroyB8fe200100EvEUlRT_E_JRNS0_6__baseILSY_1EJSC_SE_SG_SI_SK_SN_SQ_ST_SW_EEEEEEDcS10_DpT0_, symObjAddr: 0x75E4, symBinAddr: 0xDBD4, symSize: 0x18 }
  - { offset: 0xBAD45, size: 0x8, addend: 0x0, symName: __ZNSt3__116__variant_detail12__visitation6__base12__dispatcherIJLm1EEE10__dispatchB8fe200100IOZNS0_6__dtorINS0_8__traitsIJNS_6vectorIhN2al9allocatorIhLm16EEEEENS8_IsNSA_IsLm16EEEEENS8_IiNSA_IiLm16EEEEENS8_IfNSA_IfLm16EEEEENS8_IdNSA_IdLm16EEEEENS8_I11MulawSampleNSA_ISL_Lm16EEEEENS8_I10AlawSampleNSA_ISO_Lm16EEEEENS8_I8IMA4DataNSA_ISR_Lm16EEEEENS8_I11MSADPCMDataNSA_ISU_Lm16EEEEEEEELNS0_6_TraitE1EE9__destroyB8fe200100EvEUlRT_E_JRNS0_6__baseILSY_1EJSC_SE_SG_SI_SK_SN_SQ_ST_SW_EEEEEEDcS10_DpT0_, symObjAddr: 0x75E4, symBinAddr: 0xDBD4, symSize: 0x18 }
  - { offset: 0xBAD63, size: 0x8, addend: 0x0, symName: __ZNSt3__116__variant_detail12__visitation6__base12__dispatcherIJLm1EEE10__dispatchB8fe200100IOZNS0_6__dtorINS0_8__traitsIJNS_6vectorIhN2al9allocatorIhLm16EEEEENS8_IsNSA_IsLm16EEEEENS8_IiNSA_IiLm16EEEEENS8_IfNSA_IfLm16EEEEENS8_IdNSA_IdLm16EEEEENS8_I11MulawSampleNSA_ISL_Lm16EEEEENS8_I10AlawSampleNSA_ISO_Lm16EEEEENS8_I8IMA4DataNSA_ISR_Lm16EEEEENS8_I11MSADPCMDataNSA_ISU_Lm16EEEEEEEELNS0_6_TraitE1EE9__destroyB8fe200100EvEUlRT_E_JRNS0_6__baseILSY_1EJSC_SE_SG_SI_SK_SN_SQ_ST_SW_EEEEEEDcS10_DpT0_, symObjAddr: 0x75E4, symBinAddr: 0xDBD4, symSize: 0x18 }
  - { offset: 0xBAEFA, size: 0x8, addend: 0x0, symName: __ZNSt3__116__variant_detail12__visitation6__base12__dispatcherIJLm2EEE10__dispatchB8fe200100IOZNS0_6__dtorINS0_8__traitsIJNS_6vectorIhN2al9allocatorIhLm16EEEEENS8_IsNSA_IsLm16EEEEENS8_IiNSA_IiLm16EEEEENS8_IfNSA_IfLm16EEEEENS8_IdNSA_IdLm16EEEEENS8_I11MulawSampleNSA_ISL_Lm16EEEEENS8_I10AlawSampleNSA_ISO_Lm16EEEEENS8_I8IMA4DataNSA_ISR_Lm16EEEEENS8_I11MSADPCMDataNSA_ISU_Lm16EEEEEEEELNS0_6_TraitE1EE9__destroyB8fe200100EvEUlRT_E_JRNS0_6__baseILSY_1EJSC_SE_SG_SI_SK_SN_SQ_ST_SW_EEEEEEDcS10_DpT0_, symObjAddr: 0x75FC, symBinAddr: 0xDBEC, symSize: 0x18 }
  - { offset: 0xBAF31, size: 0x8, addend: 0x0, symName: __ZNSt3__116__variant_detail12__visitation6__base12__dispatcherIJLm2EEE10__dispatchB8fe200100IOZNS0_6__dtorINS0_8__traitsIJNS_6vectorIhN2al9allocatorIhLm16EEEEENS8_IsNSA_IsLm16EEEEENS8_IiNSA_IiLm16EEEEENS8_IfNSA_IfLm16EEEEENS8_IdNSA_IdLm16EEEEENS8_I11MulawSampleNSA_ISL_Lm16EEEEENS8_I10AlawSampleNSA_ISO_Lm16EEEEENS8_I8IMA4DataNSA_ISR_Lm16EEEEENS8_I11MSADPCMDataNSA_ISU_Lm16EEEEEEEELNS0_6_TraitE1EE9__destroyB8fe200100EvEUlRT_E_JRNS0_6__baseILSY_1EJSC_SE_SG_SI_SK_SN_SQ_ST_SW_EEEEEEDcS10_DpT0_, symObjAddr: 0x75FC, symBinAddr: 0xDBEC, symSize: 0x18 }
  - { offset: 0xBAF58, size: 0x8, addend: 0x0, symName: __ZNSt3__116__variant_detail12__visitation6__base12__dispatcherIJLm2EEE10__dispatchB8fe200100IOZNS0_6__dtorINS0_8__traitsIJNS_6vectorIhN2al9allocatorIhLm16EEEEENS8_IsNSA_IsLm16EEEEENS8_IiNSA_IiLm16EEEEENS8_IfNSA_IfLm16EEEEENS8_IdNSA_IdLm16EEEEENS8_I11MulawSampleNSA_ISL_Lm16EEEEENS8_I10AlawSampleNSA_ISO_Lm16EEEEENS8_I8IMA4DataNSA_ISR_Lm16EEEEENS8_I11MSADPCMDataNSA_ISU_Lm16EEEEEEEELNS0_6_TraitE1EE9__destroyB8fe200100EvEUlRT_E_JRNS0_6__baseILSY_1EJSC_SE_SG_SI_SK_SN_SQ_ST_SW_EEEEEEDcS10_DpT0_, symObjAddr: 0x75FC, symBinAddr: 0xDBEC, symSize: 0x18 }
  - { offset: 0xBAF7E, size: 0x8, addend: 0x0, symName: __ZNSt3__116__variant_detail12__visitation6__base12__dispatcherIJLm2EEE10__dispatchB8fe200100IOZNS0_6__dtorINS0_8__traitsIJNS_6vectorIhN2al9allocatorIhLm16EEEEENS8_IsNSA_IsLm16EEEEENS8_IiNSA_IiLm16EEEEENS8_IfNSA_IfLm16EEEEENS8_IdNSA_IdLm16EEEEENS8_I11MulawSampleNSA_ISL_Lm16EEEEENS8_I10AlawSampleNSA_ISO_Lm16EEEEENS8_I8IMA4DataNSA_ISR_Lm16EEEEENS8_I11MSADPCMDataNSA_ISU_Lm16EEEEEEEELNS0_6_TraitE1EE9__destroyB8fe200100EvEUlRT_E_JRNS0_6__baseILSY_1EJSC_SE_SG_SI_SK_SN_SQ_ST_SW_EEEEEEDcS10_DpT0_, symObjAddr: 0x75FC, symBinAddr: 0xDBEC, symSize: 0x18 }
  - { offset: 0xBAF9C, size: 0x8, addend: 0x0, symName: __ZNSt3__116__variant_detail12__visitation6__base12__dispatcherIJLm2EEE10__dispatchB8fe200100IOZNS0_6__dtorINS0_8__traitsIJNS_6vectorIhN2al9allocatorIhLm16EEEEENS8_IsNSA_IsLm16EEEEENS8_IiNSA_IiLm16EEEEENS8_IfNSA_IfLm16EEEEENS8_IdNSA_IdLm16EEEEENS8_I11MulawSampleNSA_ISL_Lm16EEEEENS8_I10AlawSampleNSA_ISO_Lm16EEEEENS8_I8IMA4DataNSA_ISR_Lm16EEEEENS8_I11MSADPCMDataNSA_ISU_Lm16EEEEEEEELNS0_6_TraitE1EE9__destroyB8fe200100EvEUlRT_E_JRNS0_6__baseILSY_1EJSC_SE_SG_SI_SK_SN_SQ_ST_SW_EEEEEEDcS10_DpT0_, symObjAddr: 0x75FC, symBinAddr: 0xDBEC, symSize: 0x18 }
  - { offset: 0xBAFBA, size: 0x8, addend: 0x0, symName: __ZNSt3__116__variant_detail12__visitation6__base12__dispatcherIJLm2EEE10__dispatchB8fe200100IOZNS0_6__dtorINS0_8__traitsIJNS_6vectorIhN2al9allocatorIhLm16EEEEENS8_IsNSA_IsLm16EEEEENS8_IiNSA_IiLm16EEEEENS8_IfNSA_IfLm16EEEEENS8_IdNSA_IdLm16EEEEENS8_I11MulawSampleNSA_ISL_Lm16EEEEENS8_I10AlawSampleNSA_ISO_Lm16EEEEENS8_I8IMA4DataNSA_ISR_Lm16EEEEENS8_I11MSADPCMDataNSA_ISU_Lm16EEEEEEEELNS0_6_TraitE1EE9__destroyB8fe200100EvEUlRT_E_JRNS0_6__baseILSY_1EJSC_SE_SG_SI_SK_SN_SQ_ST_SW_EEEEEEDcS10_DpT0_, symObjAddr: 0x75FC, symBinAddr: 0xDBEC, symSize: 0x18 }
  - { offset: 0xBAFD8, size: 0x8, addend: 0x0, symName: __ZNSt3__116__variant_detail12__visitation6__base12__dispatcherIJLm2EEE10__dispatchB8fe200100IOZNS0_6__dtorINS0_8__traitsIJNS_6vectorIhN2al9allocatorIhLm16EEEEENS8_IsNSA_IsLm16EEEEENS8_IiNSA_IiLm16EEEEENS8_IfNSA_IfLm16EEEEENS8_IdNSA_IdLm16EEEEENS8_I11MulawSampleNSA_ISL_Lm16EEEEENS8_I10AlawSampleNSA_ISO_Lm16EEEEENS8_I8IMA4DataNSA_ISR_Lm16EEEEENS8_I11MSADPCMDataNSA_ISU_Lm16EEEEEEEELNS0_6_TraitE1EE9__destroyB8fe200100EvEUlRT_E_JRNS0_6__baseILSY_1EJSC_SE_SG_SI_SK_SN_SQ_ST_SW_EEEEEEDcS10_DpT0_, symObjAddr: 0x75FC, symBinAddr: 0xDBEC, symSize: 0x18 }
  - { offset: 0xBAFF6, size: 0x8, addend: 0x0, symName: __ZNSt3__116__variant_detail12__visitation6__base12__dispatcherIJLm2EEE10__dispatchB8fe200100IOZNS0_6__dtorINS0_8__traitsIJNS_6vectorIhN2al9allocatorIhLm16EEEEENS8_IsNSA_IsLm16EEEEENS8_IiNSA_IiLm16EEEEENS8_IfNSA_IfLm16EEEEENS8_IdNSA_IdLm16EEEEENS8_I11MulawSampleNSA_ISL_Lm16EEEEENS8_I10AlawSampleNSA_ISO_Lm16EEEEENS8_I8IMA4DataNSA_ISR_Lm16EEEEENS8_I11MSADPCMDataNSA_ISU_Lm16EEEEEEEELNS0_6_TraitE1EE9__destroyB8fe200100EvEUlRT_E_JRNS0_6__baseILSY_1EJSC_SE_SG_SI_SK_SN_SQ_ST_SW_EEEEEEDcS10_DpT0_, symObjAddr: 0x75FC, symBinAddr: 0xDBEC, symSize: 0x18 }
  - { offset: 0xBB18D, size: 0x8, addend: 0x0, symName: __ZNSt3__116__variant_detail12__visitation6__base12__dispatcherIJLm3EEE10__dispatchB8fe200100IOZNS0_6__dtorINS0_8__traitsIJNS_6vectorIhN2al9allocatorIhLm16EEEEENS8_IsNSA_IsLm16EEEEENS8_IiNSA_IiLm16EEEEENS8_IfNSA_IfLm16EEEEENS8_IdNSA_IdLm16EEEEENS8_I11MulawSampleNSA_ISL_Lm16EEEEENS8_I10AlawSampleNSA_ISO_Lm16EEEEENS8_I8IMA4DataNSA_ISR_Lm16EEEEENS8_I11MSADPCMDataNSA_ISU_Lm16EEEEEEEELNS0_6_TraitE1EE9__destroyB8fe200100EvEUlRT_E_JRNS0_6__baseILSY_1EJSC_SE_SG_SI_SK_SN_SQ_ST_SW_EEEEEEDcS10_DpT0_, symObjAddr: 0x7614, symBinAddr: 0xDC04, symSize: 0x18 }
  - { offset: 0xBB1C4, size: 0x8, addend: 0x0, symName: __ZNSt3__116__variant_detail12__visitation6__base12__dispatcherIJLm3EEE10__dispatchB8fe200100IOZNS0_6__dtorINS0_8__traitsIJNS_6vectorIhN2al9allocatorIhLm16EEEEENS8_IsNSA_IsLm16EEEEENS8_IiNSA_IiLm16EEEEENS8_IfNSA_IfLm16EEEEENS8_IdNSA_IdLm16EEEEENS8_I11MulawSampleNSA_ISL_Lm16EEEEENS8_I10AlawSampleNSA_ISO_Lm16EEEEENS8_I8IMA4DataNSA_ISR_Lm16EEEEENS8_I11MSADPCMDataNSA_ISU_Lm16EEEEEEEELNS0_6_TraitE1EE9__destroyB8fe200100EvEUlRT_E_JRNS0_6__baseILSY_1EJSC_SE_SG_SI_SK_SN_SQ_ST_SW_EEEEEEDcS10_DpT0_, symObjAddr: 0x7614, symBinAddr: 0xDC04, symSize: 0x18 }
  - { offset: 0xBB1EB, size: 0x8, addend: 0x0, symName: __ZNSt3__116__variant_detail12__visitation6__base12__dispatcherIJLm3EEE10__dispatchB8fe200100IOZNS0_6__dtorINS0_8__traitsIJNS_6vectorIhN2al9allocatorIhLm16EEEEENS8_IsNSA_IsLm16EEEEENS8_IiNSA_IiLm16EEEEENS8_IfNSA_IfLm16EEEEENS8_IdNSA_IdLm16EEEEENS8_I11MulawSampleNSA_ISL_Lm16EEEEENS8_I10AlawSampleNSA_ISO_Lm16EEEEENS8_I8IMA4DataNSA_ISR_Lm16EEEEENS8_I11MSADPCMDataNSA_ISU_Lm16EEEEEEEELNS0_6_TraitE1EE9__destroyB8fe200100EvEUlRT_E_JRNS0_6__baseILSY_1EJSC_SE_SG_SI_SK_SN_SQ_ST_SW_EEEEEEDcS10_DpT0_, symObjAddr: 0x7614, symBinAddr: 0xDC04, symSize: 0x18 }
  - { offset: 0xBB211, size: 0x8, addend: 0x0, symName: __ZNSt3__116__variant_detail12__visitation6__base12__dispatcherIJLm3EEE10__dispatchB8fe200100IOZNS0_6__dtorINS0_8__traitsIJNS_6vectorIhN2al9allocatorIhLm16EEEEENS8_IsNSA_IsLm16EEEEENS8_IiNSA_IiLm16EEEEENS8_IfNSA_IfLm16EEEEENS8_IdNSA_IdLm16EEEEENS8_I11MulawSampleNSA_ISL_Lm16EEEEENS8_I10AlawSampleNSA_ISO_Lm16EEEEENS8_I8IMA4DataNSA_ISR_Lm16EEEEENS8_I11MSADPCMDataNSA_ISU_Lm16EEEEEEEELNS0_6_TraitE1EE9__destroyB8fe200100EvEUlRT_E_JRNS0_6__baseILSY_1EJSC_SE_SG_SI_SK_SN_SQ_ST_SW_EEEEEEDcS10_DpT0_, symObjAddr: 0x7614, symBinAddr: 0xDC04, symSize: 0x18 }
  - { offset: 0xBB22F, size: 0x8, addend: 0x0, symName: __ZNSt3__116__variant_detail12__visitation6__base12__dispatcherIJLm3EEE10__dispatchB8fe200100IOZNS0_6__dtorINS0_8__traitsIJNS_6vectorIhN2al9allocatorIhLm16EEEEENS8_IsNSA_IsLm16EEEEENS8_IiNSA_IiLm16EEEEENS8_IfNSA_IfLm16EEEEENS8_IdNSA_IdLm16EEEEENS8_I11MulawSampleNSA_ISL_Lm16EEEEENS8_I10AlawSampleNSA_ISO_Lm16EEEEENS8_I8IMA4DataNSA_ISR_Lm16EEEEENS8_I11MSADPCMDataNSA_ISU_Lm16EEEEEEEELNS0_6_TraitE1EE9__destroyB8fe200100EvEUlRT_E_JRNS0_6__baseILSY_1EJSC_SE_SG_SI_SK_SN_SQ_ST_SW_EEEEEEDcS10_DpT0_, symObjAddr: 0x7614, symBinAddr: 0xDC04, symSize: 0x18 }
  - { offset: 0xBB24D, size: 0x8, addend: 0x0, symName: __ZNSt3__116__variant_detail12__visitation6__base12__dispatcherIJLm3EEE10__dispatchB8fe200100IOZNS0_6__dtorINS0_8__traitsIJNS_6vectorIhN2al9allocatorIhLm16EEEEENS8_IsNSA_IsLm16EEEEENS8_IiNSA_IiLm16EEEEENS8_IfNSA_IfLm16EEEEENS8_IdNSA_IdLm16EEEEENS8_I11MulawSampleNSA_ISL_Lm16EEEEENS8_I10AlawSampleNSA_ISO_Lm16EEEEENS8_I8IMA4DataNSA_ISR_Lm16EEEEENS8_I11MSADPCMDataNSA_ISU_Lm16EEEEEEEELNS0_6_TraitE1EE9__destroyB8fe200100EvEUlRT_E_JRNS0_6__baseILSY_1EJSC_SE_SG_SI_SK_SN_SQ_ST_SW_EEEEEEDcS10_DpT0_, symObjAddr: 0x7614, symBinAddr: 0xDC04, symSize: 0x18 }
  - { offset: 0xBB26B, size: 0x8, addend: 0x0, symName: __ZNSt3__116__variant_detail12__visitation6__base12__dispatcherIJLm3EEE10__dispatchB8fe200100IOZNS0_6__dtorINS0_8__traitsIJNS_6vectorIhN2al9allocatorIhLm16EEEEENS8_IsNSA_IsLm16EEEEENS8_IiNSA_IiLm16EEEEENS8_IfNSA_IfLm16EEEEENS8_IdNSA_IdLm16EEEEENS8_I11MulawSampleNSA_ISL_Lm16EEEEENS8_I10AlawSampleNSA_ISO_Lm16EEEEENS8_I8IMA4DataNSA_ISR_Lm16EEEEENS8_I11MSADPCMDataNSA_ISU_Lm16EEEEEEEELNS0_6_TraitE1EE9__destroyB8fe200100EvEUlRT_E_JRNS0_6__baseILSY_1EJSC_SE_SG_SI_SK_SN_SQ_ST_SW_EEEEEEDcS10_DpT0_, symObjAddr: 0x7614, symBinAddr: 0xDC04, symSize: 0x18 }
  - { offset: 0xBB289, size: 0x8, addend: 0x0, symName: __ZNSt3__116__variant_detail12__visitation6__base12__dispatcherIJLm3EEE10__dispatchB8fe200100IOZNS0_6__dtorINS0_8__traitsIJNS_6vectorIhN2al9allocatorIhLm16EEEEENS8_IsNSA_IsLm16EEEEENS8_IiNSA_IiLm16EEEEENS8_IfNSA_IfLm16EEEEENS8_IdNSA_IdLm16EEEEENS8_I11MulawSampleNSA_ISL_Lm16EEEEENS8_I10AlawSampleNSA_ISO_Lm16EEEEENS8_I8IMA4DataNSA_ISR_Lm16EEEEENS8_I11MSADPCMDataNSA_ISU_Lm16EEEEEEEELNS0_6_TraitE1EE9__destroyB8fe200100EvEUlRT_E_JRNS0_6__baseILSY_1EJSC_SE_SG_SI_SK_SN_SQ_ST_SW_EEEEEEDcS10_DpT0_, symObjAddr: 0x7614, symBinAddr: 0xDC04, symSize: 0x18 }
  - { offset: 0xBB420, size: 0x8, addend: 0x0, symName: __ZNSt3__116__variant_detail12__visitation6__base12__dispatcherIJLm4EEE10__dispatchB8fe200100IOZNS0_6__dtorINS0_8__traitsIJNS_6vectorIhN2al9allocatorIhLm16EEEEENS8_IsNSA_IsLm16EEEEENS8_IiNSA_IiLm16EEEEENS8_IfNSA_IfLm16EEEEENS8_IdNSA_IdLm16EEEEENS8_I11MulawSampleNSA_ISL_Lm16EEEEENS8_I10AlawSampleNSA_ISO_Lm16EEEEENS8_I8IMA4DataNSA_ISR_Lm16EEEEENS8_I11MSADPCMDataNSA_ISU_Lm16EEEEEEEELNS0_6_TraitE1EE9__destroyB8fe200100EvEUlRT_E_JRNS0_6__baseILSY_1EJSC_SE_SG_SI_SK_SN_SQ_ST_SW_EEEEEEDcS10_DpT0_, symObjAddr: 0x762C, symBinAddr: 0xDC1C, symSize: 0x18 }
  - { offset: 0xBB457, size: 0x8, addend: 0x0, symName: __ZNSt3__116__variant_detail12__visitation6__base12__dispatcherIJLm4EEE10__dispatchB8fe200100IOZNS0_6__dtorINS0_8__traitsIJNS_6vectorIhN2al9allocatorIhLm16EEEEENS8_IsNSA_IsLm16EEEEENS8_IiNSA_IiLm16EEEEENS8_IfNSA_IfLm16EEEEENS8_IdNSA_IdLm16EEEEENS8_I11MulawSampleNSA_ISL_Lm16EEEEENS8_I10AlawSampleNSA_ISO_Lm16EEEEENS8_I8IMA4DataNSA_ISR_Lm16EEEEENS8_I11MSADPCMDataNSA_ISU_Lm16EEEEEEEELNS0_6_TraitE1EE9__destroyB8fe200100EvEUlRT_E_JRNS0_6__baseILSY_1EJSC_SE_SG_SI_SK_SN_SQ_ST_SW_EEEEEEDcS10_DpT0_, symObjAddr: 0x762C, symBinAddr: 0xDC1C, symSize: 0x18 }
  - { offset: 0xBB47E, size: 0x8, addend: 0x0, symName: __ZNSt3__116__variant_detail12__visitation6__base12__dispatcherIJLm4EEE10__dispatchB8fe200100IOZNS0_6__dtorINS0_8__traitsIJNS_6vectorIhN2al9allocatorIhLm16EEEEENS8_IsNSA_IsLm16EEEEENS8_IiNSA_IiLm16EEEEENS8_IfNSA_IfLm16EEEEENS8_IdNSA_IdLm16EEEEENS8_I11MulawSampleNSA_ISL_Lm16EEEEENS8_I10AlawSampleNSA_ISO_Lm16EEEEENS8_I8IMA4DataNSA_ISR_Lm16EEEEENS8_I11MSADPCMDataNSA_ISU_Lm16EEEEEEEELNS0_6_TraitE1EE9__destroyB8fe200100EvEUlRT_E_JRNS0_6__baseILSY_1EJSC_SE_SG_SI_SK_SN_SQ_ST_SW_EEEEEEDcS10_DpT0_, symObjAddr: 0x762C, symBinAddr: 0xDC1C, symSize: 0x18 }
  - { offset: 0xBB4A4, size: 0x8, addend: 0x0, symName: __ZNSt3__116__variant_detail12__visitation6__base12__dispatcherIJLm4EEE10__dispatchB8fe200100IOZNS0_6__dtorINS0_8__traitsIJNS_6vectorIhN2al9allocatorIhLm16EEEEENS8_IsNSA_IsLm16EEEEENS8_IiNSA_IiLm16EEEEENS8_IfNSA_IfLm16EEEEENS8_IdNSA_IdLm16EEEEENS8_I11MulawSampleNSA_ISL_Lm16EEEEENS8_I10AlawSampleNSA_ISO_Lm16EEEEENS8_I8IMA4DataNSA_ISR_Lm16EEEEENS8_I11MSADPCMDataNSA_ISU_Lm16EEEEEEEELNS0_6_TraitE1EE9__destroyB8fe200100EvEUlRT_E_JRNS0_6__baseILSY_1EJSC_SE_SG_SI_SK_SN_SQ_ST_SW_EEEEEEDcS10_DpT0_, symObjAddr: 0x762C, symBinAddr: 0xDC1C, symSize: 0x18 }
  - { offset: 0xBB4C2, size: 0x8, addend: 0x0, symName: __ZNSt3__116__variant_detail12__visitation6__base12__dispatcherIJLm4EEE10__dispatchB8fe200100IOZNS0_6__dtorINS0_8__traitsIJNS_6vectorIhN2al9allocatorIhLm16EEEEENS8_IsNSA_IsLm16EEEEENS8_IiNSA_IiLm16EEEEENS8_IfNSA_IfLm16EEEEENS8_IdNSA_IdLm16EEEEENS8_I11MulawSampleNSA_ISL_Lm16EEEEENS8_I10AlawSampleNSA_ISO_Lm16EEEEENS8_I8IMA4DataNSA_ISR_Lm16EEEEENS8_I11MSADPCMDataNSA_ISU_Lm16EEEEEEEELNS0_6_TraitE1EE9__destroyB8fe200100EvEUlRT_E_JRNS0_6__baseILSY_1EJSC_SE_SG_SI_SK_SN_SQ_ST_SW_EEEEEEDcS10_DpT0_, symObjAddr: 0x762C, symBinAddr: 0xDC1C, symSize: 0x18 }
  - { offset: 0xBB4E0, size: 0x8, addend: 0x0, symName: __ZNSt3__116__variant_detail12__visitation6__base12__dispatcherIJLm4EEE10__dispatchB8fe200100IOZNS0_6__dtorINS0_8__traitsIJNS_6vectorIhN2al9allocatorIhLm16EEEEENS8_IsNSA_IsLm16EEEEENS8_IiNSA_IiLm16EEEEENS8_IfNSA_IfLm16EEEEENS8_IdNSA_IdLm16EEEEENS8_I11MulawSampleNSA_ISL_Lm16EEEEENS8_I10AlawSampleNSA_ISO_Lm16EEEEENS8_I8IMA4DataNSA_ISR_Lm16EEEEENS8_I11MSADPCMDataNSA_ISU_Lm16EEEEEEEELNS0_6_TraitE1EE9__destroyB8fe200100EvEUlRT_E_JRNS0_6__baseILSY_1EJSC_SE_SG_SI_SK_SN_SQ_ST_SW_EEEEEEDcS10_DpT0_, symObjAddr: 0x762C, symBinAddr: 0xDC1C, symSize: 0x18 }
  - { offset: 0xBB4FE, size: 0x8, addend: 0x0, symName: __ZNSt3__116__variant_detail12__visitation6__base12__dispatcherIJLm4EEE10__dispatchB8fe200100IOZNS0_6__dtorINS0_8__traitsIJNS_6vectorIhN2al9allocatorIhLm16EEEEENS8_IsNSA_IsLm16EEEEENS8_IiNSA_IiLm16EEEEENS8_IfNSA_IfLm16EEEEENS8_IdNSA_IdLm16EEEEENS8_I11MulawSampleNSA_ISL_Lm16EEEEENS8_I10AlawSampleNSA_ISO_Lm16EEEEENS8_I8IMA4DataNSA_ISR_Lm16EEEEENS8_I11MSADPCMDataNSA_ISU_Lm16EEEEEEEELNS0_6_TraitE1EE9__destroyB8fe200100EvEUlRT_E_JRNS0_6__baseILSY_1EJSC_SE_SG_SI_SK_SN_SQ_ST_SW_EEEEEEDcS10_DpT0_, symObjAddr: 0x762C, symBinAddr: 0xDC1C, symSize: 0x18 }
  - { offset: 0xBB51C, size: 0x8, addend: 0x0, symName: __ZNSt3__116__variant_detail12__visitation6__base12__dispatcherIJLm4EEE10__dispatchB8fe200100IOZNS0_6__dtorINS0_8__traitsIJNS_6vectorIhN2al9allocatorIhLm16EEEEENS8_IsNSA_IsLm16EEEEENS8_IiNSA_IiLm16EEEEENS8_IfNSA_IfLm16EEEEENS8_IdNSA_IdLm16EEEEENS8_I11MulawSampleNSA_ISL_Lm16EEEEENS8_I10AlawSampleNSA_ISO_Lm16EEEEENS8_I8IMA4DataNSA_ISR_Lm16EEEEENS8_I11MSADPCMDataNSA_ISU_Lm16EEEEEEEELNS0_6_TraitE1EE9__destroyB8fe200100EvEUlRT_E_JRNS0_6__baseILSY_1EJSC_SE_SG_SI_SK_SN_SQ_ST_SW_EEEEEEDcS10_DpT0_, symObjAddr: 0x762C, symBinAddr: 0xDC1C, symSize: 0x18 }
  - { offset: 0xBB6B3, size: 0x8, addend: 0x0, symName: __ZNSt3__116__variant_detail12__visitation6__base12__dispatcherIJLm5EEE10__dispatchB8fe200100IOZNS0_6__dtorINS0_8__traitsIJNS_6vectorIhN2al9allocatorIhLm16EEEEENS8_IsNSA_IsLm16EEEEENS8_IiNSA_IiLm16EEEEENS8_IfNSA_IfLm16EEEEENS8_IdNSA_IdLm16EEEEENS8_I11MulawSampleNSA_ISL_Lm16EEEEENS8_I10AlawSampleNSA_ISO_Lm16EEEEENS8_I8IMA4DataNSA_ISR_Lm16EEEEENS8_I11MSADPCMDataNSA_ISU_Lm16EEEEEEEELNS0_6_TraitE1EE9__destroyB8fe200100EvEUlRT_E_JRNS0_6__baseILSY_1EJSC_SE_SG_SI_SK_SN_SQ_ST_SW_EEEEEEDcS10_DpT0_, symObjAddr: 0x7644, symBinAddr: 0xDC34, symSize: 0x18 }
  - { offset: 0xBB6EA, size: 0x8, addend: 0x0, symName: __ZNSt3__116__variant_detail12__visitation6__base12__dispatcherIJLm5EEE10__dispatchB8fe200100IOZNS0_6__dtorINS0_8__traitsIJNS_6vectorIhN2al9allocatorIhLm16EEEEENS8_IsNSA_IsLm16EEEEENS8_IiNSA_IiLm16EEEEENS8_IfNSA_IfLm16EEEEENS8_IdNSA_IdLm16EEEEENS8_I11MulawSampleNSA_ISL_Lm16EEEEENS8_I10AlawSampleNSA_ISO_Lm16EEEEENS8_I8IMA4DataNSA_ISR_Lm16EEEEENS8_I11MSADPCMDataNSA_ISU_Lm16EEEEEEEELNS0_6_TraitE1EE9__destroyB8fe200100EvEUlRT_E_JRNS0_6__baseILSY_1EJSC_SE_SG_SI_SK_SN_SQ_ST_SW_EEEEEEDcS10_DpT0_, symObjAddr: 0x7644, symBinAddr: 0xDC34, symSize: 0x18 }
  - { offset: 0xBB711, size: 0x8, addend: 0x0, symName: __ZNSt3__116__variant_detail12__visitation6__base12__dispatcherIJLm5EEE10__dispatchB8fe200100IOZNS0_6__dtorINS0_8__traitsIJNS_6vectorIhN2al9allocatorIhLm16EEEEENS8_IsNSA_IsLm16EEEEENS8_IiNSA_IiLm16EEEEENS8_IfNSA_IfLm16EEEEENS8_IdNSA_IdLm16EEEEENS8_I11MulawSampleNSA_ISL_Lm16EEEEENS8_I10AlawSampleNSA_ISO_Lm16EEEEENS8_I8IMA4DataNSA_ISR_Lm16EEEEENS8_I11MSADPCMDataNSA_ISU_Lm16EEEEEEEELNS0_6_TraitE1EE9__destroyB8fe200100EvEUlRT_E_JRNS0_6__baseILSY_1EJSC_SE_SG_SI_SK_SN_SQ_ST_SW_EEEEEEDcS10_DpT0_, symObjAddr: 0x7644, symBinAddr: 0xDC34, symSize: 0x18 }
  - { offset: 0xBB737, size: 0x8, addend: 0x0, symName: __ZNSt3__116__variant_detail12__visitation6__base12__dispatcherIJLm5EEE10__dispatchB8fe200100IOZNS0_6__dtorINS0_8__traitsIJNS_6vectorIhN2al9allocatorIhLm16EEEEENS8_IsNSA_IsLm16EEEEENS8_IiNSA_IiLm16EEEEENS8_IfNSA_IfLm16EEEEENS8_IdNSA_IdLm16EEEEENS8_I11MulawSampleNSA_ISL_Lm16EEEEENS8_I10AlawSampleNSA_ISO_Lm16EEEEENS8_I8IMA4DataNSA_ISR_Lm16EEEEENS8_I11MSADPCMDataNSA_ISU_Lm16EEEEEEEELNS0_6_TraitE1EE9__destroyB8fe200100EvEUlRT_E_JRNS0_6__baseILSY_1EJSC_SE_SG_SI_SK_SN_SQ_ST_SW_EEEEEEDcS10_DpT0_, symObjAddr: 0x7644, symBinAddr: 0xDC34, symSize: 0x18 }
  - { offset: 0xBB755, size: 0x8, addend: 0x0, symName: __ZNSt3__116__variant_detail12__visitation6__base12__dispatcherIJLm5EEE10__dispatchB8fe200100IOZNS0_6__dtorINS0_8__traitsIJNS_6vectorIhN2al9allocatorIhLm16EEEEENS8_IsNSA_IsLm16EEEEENS8_IiNSA_IiLm16EEEEENS8_IfNSA_IfLm16EEEEENS8_IdNSA_IdLm16EEEEENS8_I11MulawSampleNSA_ISL_Lm16EEEEENS8_I10AlawSampleNSA_ISO_Lm16EEEEENS8_I8IMA4DataNSA_ISR_Lm16EEEEENS8_I11MSADPCMDataNSA_ISU_Lm16EEEEEEEELNS0_6_TraitE1EE9__destroyB8fe200100EvEUlRT_E_JRNS0_6__baseILSY_1EJSC_SE_SG_SI_SK_SN_SQ_ST_SW_EEEEEEDcS10_DpT0_, symObjAddr: 0x7644, symBinAddr: 0xDC34, symSize: 0x18 }
  - { offset: 0xBB773, size: 0x8, addend: 0x0, symName: __ZNSt3__116__variant_detail12__visitation6__base12__dispatcherIJLm5EEE10__dispatchB8fe200100IOZNS0_6__dtorINS0_8__traitsIJNS_6vectorIhN2al9allocatorIhLm16EEEEENS8_IsNSA_IsLm16EEEEENS8_IiNSA_IiLm16EEEEENS8_IfNSA_IfLm16EEEEENS8_IdNSA_IdLm16EEEEENS8_I11MulawSampleNSA_ISL_Lm16EEEEENS8_I10AlawSampleNSA_ISO_Lm16EEEEENS8_I8IMA4DataNSA_ISR_Lm16EEEEENS8_I11MSADPCMDataNSA_ISU_Lm16EEEEEEEELNS0_6_TraitE1EE9__destroyB8fe200100EvEUlRT_E_JRNS0_6__baseILSY_1EJSC_SE_SG_SI_SK_SN_SQ_ST_SW_EEEEEEDcS10_DpT0_, symObjAddr: 0x7644, symBinAddr: 0xDC34, symSize: 0x18 }
  - { offset: 0xBB791, size: 0x8, addend: 0x0, symName: __ZNSt3__116__variant_detail12__visitation6__base12__dispatcherIJLm5EEE10__dispatchB8fe200100IOZNS0_6__dtorINS0_8__traitsIJNS_6vectorIhN2al9allocatorIhLm16EEEEENS8_IsNSA_IsLm16EEEEENS8_IiNSA_IiLm16EEEEENS8_IfNSA_IfLm16EEEEENS8_IdNSA_IdLm16EEEEENS8_I11MulawSampleNSA_ISL_Lm16EEEEENS8_I10AlawSampleNSA_ISO_Lm16EEEEENS8_I8IMA4DataNSA_ISR_Lm16EEEEENS8_I11MSADPCMDataNSA_ISU_Lm16EEEEEEEELNS0_6_TraitE1EE9__destroyB8fe200100EvEUlRT_E_JRNS0_6__baseILSY_1EJSC_SE_SG_SI_SK_SN_SQ_ST_SW_EEEEEEDcS10_DpT0_, symObjAddr: 0x7644, symBinAddr: 0xDC34, symSize: 0x18 }
  - { offset: 0xBB7AF, size: 0x8, addend: 0x0, symName: __ZNSt3__116__variant_detail12__visitation6__base12__dispatcherIJLm5EEE10__dispatchB8fe200100IOZNS0_6__dtorINS0_8__traitsIJNS_6vectorIhN2al9allocatorIhLm16EEEEENS8_IsNSA_IsLm16EEEEENS8_IiNSA_IiLm16EEEEENS8_IfNSA_IfLm16EEEEENS8_IdNSA_IdLm16EEEEENS8_I11MulawSampleNSA_ISL_Lm16EEEEENS8_I10AlawSampleNSA_ISO_Lm16EEEEENS8_I8IMA4DataNSA_ISR_Lm16EEEEENS8_I11MSADPCMDataNSA_ISU_Lm16EEEEEEEELNS0_6_TraitE1EE9__destroyB8fe200100EvEUlRT_E_JRNS0_6__baseILSY_1EJSC_SE_SG_SI_SK_SN_SQ_ST_SW_EEEEEEDcS10_DpT0_, symObjAddr: 0x7644, symBinAddr: 0xDC34, symSize: 0x18 }
  - { offset: 0xBB946, size: 0x8, addend: 0x0, symName: __ZNSt3__116__variant_detail12__visitation6__base12__dispatcherIJLm6EEE10__dispatchB8fe200100IOZNS0_6__dtorINS0_8__traitsIJNS_6vectorIhN2al9allocatorIhLm16EEEEENS8_IsNSA_IsLm16EEEEENS8_IiNSA_IiLm16EEEEENS8_IfNSA_IfLm16EEEEENS8_IdNSA_IdLm16EEEEENS8_I11MulawSampleNSA_ISL_Lm16EEEEENS8_I10AlawSampleNSA_ISO_Lm16EEEEENS8_I8IMA4DataNSA_ISR_Lm16EEEEENS8_I11MSADPCMDataNSA_ISU_Lm16EEEEEEEELNS0_6_TraitE1EE9__destroyB8fe200100EvEUlRT_E_JRNS0_6__baseILSY_1EJSC_SE_SG_SI_SK_SN_SQ_ST_SW_EEEEEEDcS10_DpT0_, symObjAddr: 0x765C, symBinAddr: 0xDC4C, symSize: 0x18 }
  - { offset: 0xBB97D, size: 0x8, addend: 0x0, symName: __ZNSt3__116__variant_detail12__visitation6__base12__dispatcherIJLm6EEE10__dispatchB8fe200100IOZNS0_6__dtorINS0_8__traitsIJNS_6vectorIhN2al9allocatorIhLm16EEEEENS8_IsNSA_IsLm16EEEEENS8_IiNSA_IiLm16EEEEENS8_IfNSA_IfLm16EEEEENS8_IdNSA_IdLm16EEEEENS8_I11MulawSampleNSA_ISL_Lm16EEEEENS8_I10AlawSampleNSA_ISO_Lm16EEEEENS8_I8IMA4DataNSA_ISR_Lm16EEEEENS8_I11MSADPCMDataNSA_ISU_Lm16EEEEEEEELNS0_6_TraitE1EE9__destroyB8fe200100EvEUlRT_E_JRNS0_6__baseILSY_1EJSC_SE_SG_SI_SK_SN_SQ_ST_SW_EEEEEEDcS10_DpT0_, symObjAddr: 0x765C, symBinAddr: 0xDC4C, symSize: 0x18 }
  - { offset: 0xBB9A4, size: 0x8, addend: 0x0, symName: __ZNSt3__116__variant_detail12__visitation6__base12__dispatcherIJLm6EEE10__dispatchB8fe200100IOZNS0_6__dtorINS0_8__traitsIJNS_6vectorIhN2al9allocatorIhLm16EEEEENS8_IsNSA_IsLm16EEEEENS8_IiNSA_IiLm16EEEEENS8_IfNSA_IfLm16EEEEENS8_IdNSA_IdLm16EEEEENS8_I11MulawSampleNSA_ISL_Lm16EEEEENS8_I10AlawSampleNSA_ISO_Lm16EEEEENS8_I8IMA4DataNSA_ISR_Lm16EEEEENS8_I11MSADPCMDataNSA_ISU_Lm16EEEEEEEELNS0_6_TraitE1EE9__destroyB8fe200100EvEUlRT_E_JRNS0_6__baseILSY_1EJSC_SE_SG_SI_SK_SN_SQ_ST_SW_EEEEEEDcS10_DpT0_, symObjAddr: 0x765C, symBinAddr: 0xDC4C, symSize: 0x18 }
  - { offset: 0xBB9CA, size: 0x8, addend: 0x0, symName: __ZNSt3__116__variant_detail12__visitation6__base12__dispatcherIJLm6EEE10__dispatchB8fe200100IOZNS0_6__dtorINS0_8__traitsIJNS_6vectorIhN2al9allocatorIhLm16EEEEENS8_IsNSA_IsLm16EEEEENS8_IiNSA_IiLm16EEEEENS8_IfNSA_IfLm16EEEEENS8_IdNSA_IdLm16EEEEENS8_I11MulawSampleNSA_ISL_Lm16EEEEENS8_I10AlawSampleNSA_ISO_Lm16EEEEENS8_I8IMA4DataNSA_ISR_Lm16EEEEENS8_I11MSADPCMDataNSA_ISU_Lm16EEEEEEEELNS0_6_TraitE1EE9__destroyB8fe200100EvEUlRT_E_JRNS0_6__baseILSY_1EJSC_SE_SG_SI_SK_SN_SQ_ST_SW_EEEEEEDcS10_DpT0_, symObjAddr: 0x765C, symBinAddr: 0xDC4C, symSize: 0x18 }
  - { offset: 0xBB9E8, size: 0x8, addend: 0x0, symName: __ZNSt3__116__variant_detail12__visitation6__base12__dispatcherIJLm6EEE10__dispatchB8fe200100IOZNS0_6__dtorINS0_8__traitsIJNS_6vectorIhN2al9allocatorIhLm16EEEEENS8_IsNSA_IsLm16EEEEENS8_IiNSA_IiLm16EEEEENS8_IfNSA_IfLm16EEEEENS8_IdNSA_IdLm16EEEEENS8_I11MulawSampleNSA_ISL_Lm16EEEEENS8_I10AlawSampleNSA_ISO_Lm16EEEEENS8_I8IMA4DataNSA_ISR_Lm16EEEEENS8_I11MSADPCMDataNSA_ISU_Lm16EEEEEEEELNS0_6_TraitE1EE9__destroyB8fe200100EvEUlRT_E_JRNS0_6__baseILSY_1EJSC_SE_SG_SI_SK_SN_SQ_ST_SW_EEEEEEDcS10_DpT0_, symObjAddr: 0x765C, symBinAddr: 0xDC4C, symSize: 0x18 }
  - { offset: 0xBBA06, size: 0x8, addend: 0x0, symName: __ZNSt3__116__variant_detail12__visitation6__base12__dispatcherIJLm6EEE10__dispatchB8fe200100IOZNS0_6__dtorINS0_8__traitsIJNS_6vectorIhN2al9allocatorIhLm16EEEEENS8_IsNSA_IsLm16EEEEENS8_IiNSA_IiLm16EEEEENS8_IfNSA_IfLm16EEEEENS8_IdNSA_IdLm16EEEEENS8_I11MulawSampleNSA_ISL_Lm16EEEEENS8_I10AlawSampleNSA_ISO_Lm16EEEEENS8_I8IMA4DataNSA_ISR_Lm16EEEEENS8_I11MSADPCMDataNSA_ISU_Lm16EEEEEEEELNS0_6_TraitE1EE9__destroyB8fe200100EvEUlRT_E_JRNS0_6__baseILSY_1EJSC_SE_SG_SI_SK_SN_SQ_ST_SW_EEEEEEDcS10_DpT0_, symObjAddr: 0x765C, symBinAddr: 0xDC4C, symSize: 0x18 }
  - { offset: 0xBBA24, size: 0x8, addend: 0x0, symName: __ZNSt3__116__variant_detail12__visitation6__base12__dispatcherIJLm6EEE10__dispatchB8fe200100IOZNS0_6__dtorINS0_8__traitsIJNS_6vectorIhN2al9allocatorIhLm16EEEEENS8_IsNSA_IsLm16EEEEENS8_IiNSA_IiLm16EEEEENS8_IfNSA_IfLm16EEEEENS8_IdNSA_IdLm16EEEEENS8_I11MulawSampleNSA_ISL_Lm16EEEEENS8_I10AlawSampleNSA_ISO_Lm16EEEEENS8_I8IMA4DataNSA_ISR_Lm16EEEEENS8_I11MSADPCMDataNSA_ISU_Lm16EEEEEEEELNS0_6_TraitE1EE9__destroyB8fe200100EvEUlRT_E_JRNS0_6__baseILSY_1EJSC_SE_SG_SI_SK_SN_SQ_ST_SW_EEEEEEDcS10_DpT0_, symObjAddr: 0x765C, symBinAddr: 0xDC4C, symSize: 0x18 }
  - { offset: 0xBBA42, size: 0x8, addend: 0x0, symName: __ZNSt3__116__variant_detail12__visitation6__base12__dispatcherIJLm6EEE10__dispatchB8fe200100IOZNS0_6__dtorINS0_8__traitsIJNS_6vectorIhN2al9allocatorIhLm16EEEEENS8_IsNSA_IsLm16EEEEENS8_IiNSA_IiLm16EEEEENS8_IfNSA_IfLm16EEEEENS8_IdNSA_IdLm16EEEEENS8_I11MulawSampleNSA_ISL_Lm16EEEEENS8_I10AlawSampleNSA_ISO_Lm16EEEEENS8_I8IMA4DataNSA_ISR_Lm16EEEEENS8_I11MSADPCMDataNSA_ISU_Lm16EEEEEEEELNS0_6_TraitE1EE9__destroyB8fe200100EvEUlRT_E_JRNS0_6__baseILSY_1EJSC_SE_SG_SI_SK_SN_SQ_ST_SW_EEEEEEDcS10_DpT0_, symObjAddr: 0x765C, symBinAddr: 0xDC4C, symSize: 0x18 }
  - { offset: 0xBBBD9, size: 0x8, addend: 0x0, symName: __ZNSt3__116__variant_detail12__visitation6__base12__dispatcherIJLm7EEE10__dispatchB8fe200100IOZNS0_6__dtorINS0_8__traitsIJNS_6vectorIhN2al9allocatorIhLm16EEEEENS8_IsNSA_IsLm16EEEEENS8_IiNSA_IiLm16EEEEENS8_IfNSA_IfLm16EEEEENS8_IdNSA_IdLm16EEEEENS8_I11MulawSampleNSA_ISL_Lm16EEEEENS8_I10AlawSampleNSA_ISO_Lm16EEEEENS8_I8IMA4DataNSA_ISR_Lm16EEEEENS8_I11MSADPCMDataNSA_ISU_Lm16EEEEEEEELNS0_6_TraitE1EE9__destroyB8fe200100EvEUlRT_E_JRNS0_6__baseILSY_1EJSC_SE_SG_SI_SK_SN_SQ_ST_SW_EEEEEEDcS10_DpT0_, symObjAddr: 0x7674, symBinAddr: 0xDC64, symSize: 0x18 }
  - { offset: 0xBBC10, size: 0x8, addend: 0x0, symName: __ZNSt3__116__variant_detail12__visitation6__base12__dispatcherIJLm7EEE10__dispatchB8fe200100IOZNS0_6__dtorINS0_8__traitsIJNS_6vectorIhN2al9allocatorIhLm16EEEEENS8_IsNSA_IsLm16EEEEENS8_IiNSA_IiLm16EEEEENS8_IfNSA_IfLm16EEEEENS8_IdNSA_IdLm16EEEEENS8_I11MulawSampleNSA_ISL_Lm16EEEEENS8_I10AlawSampleNSA_ISO_Lm16EEEEENS8_I8IMA4DataNSA_ISR_Lm16EEEEENS8_I11MSADPCMDataNSA_ISU_Lm16EEEEEEEELNS0_6_TraitE1EE9__destroyB8fe200100EvEUlRT_E_JRNS0_6__baseILSY_1EJSC_SE_SG_SI_SK_SN_SQ_ST_SW_EEEEEEDcS10_DpT0_, symObjAddr: 0x7674, symBinAddr: 0xDC64, symSize: 0x18 }
  - { offset: 0xBBC37, size: 0x8, addend: 0x0, symName: __ZNSt3__116__variant_detail12__visitation6__base12__dispatcherIJLm7EEE10__dispatchB8fe200100IOZNS0_6__dtorINS0_8__traitsIJNS_6vectorIhN2al9allocatorIhLm16EEEEENS8_IsNSA_IsLm16EEEEENS8_IiNSA_IiLm16EEEEENS8_IfNSA_IfLm16EEEEENS8_IdNSA_IdLm16EEEEENS8_I11MulawSampleNSA_ISL_Lm16EEEEENS8_I10AlawSampleNSA_ISO_Lm16EEEEENS8_I8IMA4DataNSA_ISR_Lm16EEEEENS8_I11MSADPCMDataNSA_ISU_Lm16EEEEEEEELNS0_6_TraitE1EE9__destroyB8fe200100EvEUlRT_E_JRNS0_6__baseILSY_1EJSC_SE_SG_SI_SK_SN_SQ_ST_SW_EEEEEEDcS10_DpT0_, symObjAddr: 0x7674, symBinAddr: 0xDC64, symSize: 0x18 }
  - { offset: 0xBBC5D, size: 0x8, addend: 0x0, symName: __ZNSt3__116__variant_detail12__visitation6__base12__dispatcherIJLm7EEE10__dispatchB8fe200100IOZNS0_6__dtorINS0_8__traitsIJNS_6vectorIhN2al9allocatorIhLm16EEEEENS8_IsNSA_IsLm16EEEEENS8_IiNSA_IiLm16EEEEENS8_IfNSA_IfLm16EEEEENS8_IdNSA_IdLm16EEEEENS8_I11MulawSampleNSA_ISL_Lm16EEEEENS8_I10AlawSampleNSA_ISO_Lm16EEEEENS8_I8IMA4DataNSA_ISR_Lm16EEEEENS8_I11MSADPCMDataNSA_ISU_Lm16EEEEEEEELNS0_6_TraitE1EE9__destroyB8fe200100EvEUlRT_E_JRNS0_6__baseILSY_1EJSC_SE_SG_SI_SK_SN_SQ_ST_SW_EEEEEEDcS10_DpT0_, symObjAddr: 0x7674, symBinAddr: 0xDC64, symSize: 0x18 }
  - { offset: 0xBBC7B, size: 0x8, addend: 0x0, symName: __ZNSt3__116__variant_detail12__visitation6__base12__dispatcherIJLm7EEE10__dispatchB8fe200100IOZNS0_6__dtorINS0_8__traitsIJNS_6vectorIhN2al9allocatorIhLm16EEEEENS8_IsNSA_IsLm16EEEEENS8_IiNSA_IiLm16EEEEENS8_IfNSA_IfLm16EEEEENS8_IdNSA_IdLm16EEEEENS8_I11MulawSampleNSA_ISL_Lm16EEEEENS8_I10AlawSampleNSA_ISO_Lm16EEEEENS8_I8IMA4DataNSA_ISR_Lm16EEEEENS8_I11MSADPCMDataNSA_ISU_Lm16EEEEEEEELNS0_6_TraitE1EE9__destroyB8fe200100EvEUlRT_E_JRNS0_6__baseILSY_1EJSC_SE_SG_SI_SK_SN_SQ_ST_SW_EEEEEEDcS10_DpT0_, symObjAddr: 0x7674, symBinAddr: 0xDC64, symSize: 0x18 }
  - { offset: 0xBBC99, size: 0x8, addend: 0x0, symName: __ZNSt3__116__variant_detail12__visitation6__base12__dispatcherIJLm7EEE10__dispatchB8fe200100IOZNS0_6__dtorINS0_8__traitsIJNS_6vectorIhN2al9allocatorIhLm16EEEEENS8_IsNSA_IsLm16EEEEENS8_IiNSA_IiLm16EEEEENS8_IfNSA_IfLm16EEEEENS8_IdNSA_IdLm16EEEEENS8_I11MulawSampleNSA_ISL_Lm16EEEEENS8_I10AlawSampleNSA_ISO_Lm16EEEEENS8_I8IMA4DataNSA_ISR_Lm16EEEEENS8_I11MSADPCMDataNSA_ISU_Lm16EEEEEEEELNS0_6_TraitE1EE9__destroyB8fe200100EvEUlRT_E_JRNS0_6__baseILSY_1EJSC_SE_SG_SI_SK_SN_SQ_ST_SW_EEEEEEDcS10_DpT0_, symObjAddr: 0x7674, symBinAddr: 0xDC64, symSize: 0x18 }
  - { offset: 0xBBCB7, size: 0x8, addend: 0x0, symName: __ZNSt3__116__variant_detail12__visitation6__base12__dispatcherIJLm7EEE10__dispatchB8fe200100IOZNS0_6__dtorINS0_8__traitsIJNS_6vectorIhN2al9allocatorIhLm16EEEEENS8_IsNSA_IsLm16EEEEENS8_IiNSA_IiLm16EEEEENS8_IfNSA_IfLm16EEEEENS8_IdNSA_IdLm16EEEEENS8_I11MulawSampleNSA_ISL_Lm16EEEEENS8_I10AlawSampleNSA_ISO_Lm16EEEEENS8_I8IMA4DataNSA_ISR_Lm16EEEEENS8_I11MSADPCMDataNSA_ISU_Lm16EEEEEEEELNS0_6_TraitE1EE9__destroyB8fe200100EvEUlRT_E_JRNS0_6__baseILSY_1EJSC_SE_SG_SI_SK_SN_SQ_ST_SW_EEEEEEDcS10_DpT0_, symObjAddr: 0x7674, symBinAddr: 0xDC64, symSize: 0x18 }
  - { offset: 0xBBCD5, size: 0x8, addend: 0x0, symName: __ZNSt3__116__variant_detail12__visitation6__base12__dispatcherIJLm7EEE10__dispatchB8fe200100IOZNS0_6__dtorINS0_8__traitsIJNS_6vectorIhN2al9allocatorIhLm16EEEEENS8_IsNSA_IsLm16EEEEENS8_IiNSA_IiLm16EEEEENS8_IfNSA_IfLm16EEEEENS8_IdNSA_IdLm16EEEEENS8_I11MulawSampleNSA_ISL_Lm16EEEEENS8_I10AlawSampleNSA_ISO_Lm16EEEEENS8_I8IMA4DataNSA_ISR_Lm16EEEEENS8_I11MSADPCMDataNSA_ISU_Lm16EEEEEEEELNS0_6_TraitE1EE9__destroyB8fe200100EvEUlRT_E_JRNS0_6__baseILSY_1EJSC_SE_SG_SI_SK_SN_SQ_ST_SW_EEEEEEDcS10_DpT0_, symObjAddr: 0x7674, symBinAddr: 0xDC64, symSize: 0x18 }
  - { offset: 0xBBE6C, size: 0x8, addend: 0x0, symName: __ZNSt3__116__variant_detail12__visitation6__base12__dispatcherIJLm8EEE10__dispatchB8fe200100IOZNS0_6__dtorINS0_8__traitsIJNS_6vectorIhN2al9allocatorIhLm16EEEEENS8_IsNSA_IsLm16EEEEENS8_IiNSA_IiLm16EEEEENS8_IfNSA_IfLm16EEEEENS8_IdNSA_IdLm16EEEEENS8_I11MulawSampleNSA_ISL_Lm16EEEEENS8_I10AlawSampleNSA_ISO_Lm16EEEEENS8_I8IMA4DataNSA_ISR_Lm16EEEEENS8_I11MSADPCMDataNSA_ISU_Lm16EEEEEEEELNS0_6_TraitE1EE9__destroyB8fe200100EvEUlRT_E_JRNS0_6__baseILSY_1EJSC_SE_SG_SI_SK_SN_SQ_ST_SW_EEEEEEDcS10_DpT0_, symObjAddr: 0x768C, symBinAddr: 0xDC7C, symSize: 0x18 }
  - { offset: 0xBBEA3, size: 0x8, addend: 0x0, symName: __ZNSt3__116__variant_detail12__visitation6__base12__dispatcherIJLm8EEE10__dispatchB8fe200100IOZNS0_6__dtorINS0_8__traitsIJNS_6vectorIhN2al9allocatorIhLm16EEEEENS8_IsNSA_IsLm16EEEEENS8_IiNSA_IiLm16EEEEENS8_IfNSA_IfLm16EEEEENS8_IdNSA_IdLm16EEEEENS8_I11MulawSampleNSA_ISL_Lm16EEEEENS8_I10AlawSampleNSA_ISO_Lm16EEEEENS8_I8IMA4DataNSA_ISR_Lm16EEEEENS8_I11MSADPCMDataNSA_ISU_Lm16EEEEEEEELNS0_6_TraitE1EE9__destroyB8fe200100EvEUlRT_E_JRNS0_6__baseILSY_1EJSC_SE_SG_SI_SK_SN_SQ_ST_SW_EEEEEEDcS10_DpT0_, symObjAddr: 0x768C, symBinAddr: 0xDC7C, symSize: 0x18 }
  - { offset: 0xBBECA, size: 0x8, addend: 0x0, symName: __ZNSt3__116__variant_detail12__visitation6__base12__dispatcherIJLm8EEE10__dispatchB8fe200100IOZNS0_6__dtorINS0_8__traitsIJNS_6vectorIhN2al9allocatorIhLm16EEEEENS8_IsNSA_IsLm16EEEEENS8_IiNSA_IiLm16EEEEENS8_IfNSA_IfLm16EEEEENS8_IdNSA_IdLm16EEEEENS8_I11MulawSampleNSA_ISL_Lm16EEEEENS8_I10AlawSampleNSA_ISO_Lm16EEEEENS8_I8IMA4DataNSA_ISR_Lm16EEEEENS8_I11MSADPCMDataNSA_ISU_Lm16EEEEEEEELNS0_6_TraitE1EE9__destroyB8fe200100EvEUlRT_E_JRNS0_6__baseILSY_1EJSC_SE_SG_SI_SK_SN_SQ_ST_SW_EEEEEEDcS10_DpT0_, symObjAddr: 0x768C, symBinAddr: 0xDC7C, symSize: 0x18 }
  - { offset: 0xBBEF0, size: 0x8, addend: 0x0, symName: __ZNSt3__116__variant_detail12__visitation6__base12__dispatcherIJLm8EEE10__dispatchB8fe200100IOZNS0_6__dtorINS0_8__traitsIJNS_6vectorIhN2al9allocatorIhLm16EEEEENS8_IsNSA_IsLm16EEEEENS8_IiNSA_IiLm16EEEEENS8_IfNSA_IfLm16EEEEENS8_IdNSA_IdLm16EEEEENS8_I11MulawSampleNSA_ISL_Lm16EEEEENS8_I10AlawSampleNSA_ISO_Lm16EEEEENS8_I8IMA4DataNSA_ISR_Lm16EEEEENS8_I11MSADPCMDataNSA_ISU_Lm16EEEEEEEELNS0_6_TraitE1EE9__destroyB8fe200100EvEUlRT_E_JRNS0_6__baseILSY_1EJSC_SE_SG_SI_SK_SN_SQ_ST_SW_EEEEEEDcS10_DpT0_, symObjAddr: 0x768C, symBinAddr: 0xDC7C, symSize: 0x18 }
  - { offset: 0xBBF0E, size: 0x8, addend: 0x0, symName: __ZNSt3__116__variant_detail12__visitation6__base12__dispatcherIJLm8EEE10__dispatchB8fe200100IOZNS0_6__dtorINS0_8__traitsIJNS_6vectorIhN2al9allocatorIhLm16EEEEENS8_IsNSA_IsLm16EEEEENS8_IiNSA_IiLm16EEEEENS8_IfNSA_IfLm16EEEEENS8_IdNSA_IdLm16EEEEENS8_I11MulawSampleNSA_ISL_Lm16EEEEENS8_I10AlawSampleNSA_ISO_Lm16EEEEENS8_I8IMA4DataNSA_ISR_Lm16EEEEENS8_I11MSADPCMDataNSA_ISU_Lm16EEEEEEEELNS0_6_TraitE1EE9__destroyB8fe200100EvEUlRT_E_JRNS0_6__baseILSY_1EJSC_SE_SG_SI_SK_SN_SQ_ST_SW_EEEEEEDcS10_DpT0_, symObjAddr: 0x768C, symBinAddr: 0xDC7C, symSize: 0x18 }
  - { offset: 0xBBF2C, size: 0x8, addend: 0x0, symName: __ZNSt3__116__variant_detail12__visitation6__base12__dispatcherIJLm8EEE10__dispatchB8fe200100IOZNS0_6__dtorINS0_8__traitsIJNS_6vectorIhN2al9allocatorIhLm16EEEEENS8_IsNSA_IsLm16EEEEENS8_IiNSA_IiLm16EEEEENS8_IfNSA_IfLm16EEEEENS8_IdNSA_IdLm16EEEEENS8_I11MulawSampleNSA_ISL_Lm16EEEEENS8_I10AlawSampleNSA_ISO_Lm16EEEEENS8_I8IMA4DataNSA_ISR_Lm16EEEEENS8_I11MSADPCMDataNSA_ISU_Lm16EEEEEEEELNS0_6_TraitE1EE9__destroyB8fe200100EvEUlRT_E_JRNS0_6__baseILSY_1EJSC_SE_SG_SI_SK_SN_SQ_ST_SW_EEEEEEDcS10_DpT0_, symObjAddr: 0x768C, symBinAddr: 0xDC7C, symSize: 0x18 }
  - { offset: 0xBBF4A, size: 0x8, addend: 0x0, symName: __ZNSt3__116__variant_detail12__visitation6__base12__dispatcherIJLm8EEE10__dispatchB8fe200100IOZNS0_6__dtorINS0_8__traitsIJNS_6vectorIhN2al9allocatorIhLm16EEEEENS8_IsNSA_IsLm16EEEEENS8_IiNSA_IiLm16EEEEENS8_IfNSA_IfLm16EEEEENS8_IdNSA_IdLm16EEEEENS8_I11MulawSampleNSA_ISL_Lm16EEEEENS8_I10AlawSampleNSA_ISO_Lm16EEEEENS8_I8IMA4DataNSA_ISR_Lm16EEEEENS8_I11MSADPCMDataNSA_ISU_Lm16EEEEEEEELNS0_6_TraitE1EE9__destroyB8fe200100EvEUlRT_E_JRNS0_6__baseILSY_1EJSC_SE_SG_SI_SK_SN_SQ_ST_SW_EEEEEEDcS10_DpT0_, symObjAddr: 0x768C, symBinAddr: 0xDC7C, symSize: 0x18 }
  - { offset: 0xBBF68, size: 0x8, addend: 0x0, symName: __ZNSt3__116__variant_detail12__visitation6__base12__dispatcherIJLm8EEE10__dispatchB8fe200100IOZNS0_6__dtorINS0_8__traitsIJNS_6vectorIhN2al9allocatorIhLm16EEEEENS8_IsNSA_IsLm16EEEEENS8_IiNSA_IiLm16EEEEENS8_IfNSA_IfLm16EEEEENS8_IdNSA_IdLm16EEEEENS8_I11MulawSampleNSA_ISL_Lm16EEEEENS8_I10AlawSampleNSA_ISO_Lm16EEEEENS8_I8IMA4DataNSA_ISR_Lm16EEEEENS8_I11MSADPCMDataNSA_ISU_Lm16EEEEEEEELNS0_6_TraitE1EE9__destroyB8fe200100EvEUlRT_E_JRNS0_6__baseILSY_1EJSC_SE_SG_SI_SK_SN_SQ_ST_SW_EEEEEEDcS10_DpT0_, symObjAddr: 0x768C, symBinAddr: 0xDC7C, symSize: 0x18 }
  - { offset: 0xBE97D, size: 0x8, addend: 0x0, symName: '__ZNSt3__116__variant_detail12__visitation6__base12__dispatcherIJLm0EEE10__dispatchB8fe200100IONS1_9__variant15__value_visitorIZN12_GLOBAL__N_18LoadDataEN3gsl8not_nullIPN2al7ContextEEENSA_IPNSB_6BufferEEEij11FmtChannels7FmtTypeNS_4spanIKSt4byteLm18446744073709551615EEEjE3$_2EEJRNS0_6__baseILNS0_6_TraitE0EJNSK_IhLm18446744073709551615EEENSK_IsLm18446744073709551615EEENSK_IiLm18446744073709551615EEENSK_IfLm18446744073709551615EEENSK_IdLm18446744073709551615EEENSK_I11MulawSampleLm18446744073709551615EEENSK_I10AlawSampleLm18446744073709551615EEENSK_I8IMA4DataLm18446744073709551615EEENSK_I11MSADPCMDataLm18446744073709551615EEEEEEEEEDcT_DpT0_', symObjAddr: 0x7F38, symBinAddr: 0xE528, symSize: 0x8 }
  - { offset: 0xBE9B1, size: 0x8, addend: 0x0, symName: '__ZNSt3__116__variant_detail12__visitation6__base12__dispatcherIJLm0EEE10__dispatchB8fe200100IONS1_9__variant15__value_visitorIZN12_GLOBAL__N_18LoadDataEN3gsl8not_nullIPN2al7ContextEEENSA_IPNSB_6BufferEEEij11FmtChannels7FmtTypeNS_4spanIKSt4byteLm18446744073709551615EEEjE3$_2EEJRNS0_6__baseILNS0_6_TraitE0EJNSK_IhLm18446744073709551615EEENSK_IsLm18446744073709551615EEENSK_IiLm18446744073709551615EEENSK_IfLm18446744073709551615EEENSK_IdLm18446744073709551615EEENSK_I11MulawSampleLm18446744073709551615EEENSK_I10AlawSampleLm18446744073709551615EEENSK_I8IMA4DataLm18446744073709551615EEENSK_I11MSADPCMDataLm18446744073709551615EEEEEEEEEDcT_DpT0_', symObjAddr: 0x7F38, symBinAddr: 0xE528, symSize: 0x8 }
  - { offset: 0xBE9CD, size: 0x8, addend: 0x0, symName: '__ZNSt3__116__variant_detail12__visitation6__base12__dispatcherIJLm0EEE10__dispatchB8fe200100IONS1_9__variant15__value_visitorIZN12_GLOBAL__N_18LoadDataEN3gsl8not_nullIPN2al7ContextEEENSA_IPNSB_6BufferEEEij11FmtChannels7FmtTypeNS_4spanIKSt4byteLm18446744073709551615EEEjE3$_2EEJRNS0_6__baseILNS0_6_TraitE0EJNSK_IhLm18446744073709551615EEENSK_IsLm18446744073709551615EEENSK_IiLm18446744073709551615EEENSK_IfLm18446744073709551615EEENSK_IdLm18446744073709551615EEENSK_I11MulawSampleLm18446744073709551615EEENSK_I10AlawSampleLm18446744073709551615EEENSK_I8IMA4DataLm18446744073709551615EEENSK_I11MSADPCMDataLm18446744073709551615EEEEEEEEEDcT_DpT0_', symObjAddr: 0x7F38, symBinAddr: 0xE528, symSize: 0x8 }
  - { offset: 0xBE9E8, size: 0x8, addend: 0x0, symName: '__ZNSt3__116__variant_detail12__visitation6__base12__dispatcherIJLm0EEE10__dispatchB8fe200100IONS1_9__variant15__value_visitorIZN12_GLOBAL__N_18LoadDataEN3gsl8not_nullIPN2al7ContextEEENSA_IPNSB_6BufferEEEij11FmtChannels7FmtTypeNS_4spanIKSt4byteLm18446744073709551615EEEjE3$_2EEJRNS0_6__baseILNS0_6_TraitE0EJNSK_IhLm18446744073709551615EEENSK_IsLm18446744073709551615EEENSK_IiLm18446744073709551615EEENSK_IfLm18446744073709551615EEENSK_IdLm18446744073709551615EEENSK_I11MulawSampleLm18446744073709551615EEENSK_I10AlawSampleLm18446744073709551615EEENSK_I8IMA4DataLm18446744073709551615EEENSK_I11MSADPCMDataLm18446744073709551615EEEEEEEEEDcT_DpT0_', symObjAddr: 0x7F38, symBinAddr: 0xE528, symSize: 0x8 }
  - { offset: 0xBEA04, size: 0x8, addend: 0x0, symName: '__ZNSt3__116__variant_detail12__visitation6__base12__dispatcherIJLm0EEE10__dispatchB8fe200100IONS1_9__variant15__value_visitorIZN12_GLOBAL__N_18LoadDataEN3gsl8not_nullIPN2al7ContextEEENSA_IPNSB_6BufferEEEij11FmtChannels7FmtTypeNS_4spanIKSt4byteLm18446744073709551615EEEjE3$_2EEJRNS0_6__baseILNS0_6_TraitE0EJNSK_IhLm18446744073709551615EEENSK_IsLm18446744073709551615EEENSK_IiLm18446744073709551615EEENSK_IfLm18446744073709551615EEENSK_IdLm18446744073709551615EEENSK_I11MulawSampleLm18446744073709551615EEENSK_I10AlawSampleLm18446744073709551615EEENSK_I8IMA4DataLm18446744073709551615EEENSK_I11MSADPCMDataLm18446744073709551615EEEEEEEEEDcT_DpT0_', symObjAddr: 0x7F38, symBinAddr: 0xE528, symSize: 0x8 }
  - { offset: 0xBEAC5, size: 0x8, addend: 0x0, symName: '__ZNSt3__116__variant_detail12__visitation6__base12__dispatcherIJLm1EEE10__dispatchB8fe200100IONS1_9__variant15__value_visitorIZN12_GLOBAL__N_18LoadDataEN3gsl8not_nullIPN2al7ContextEEENSA_IPNSB_6BufferEEEij11FmtChannels7FmtTypeNS_4spanIKSt4byteLm18446744073709551615EEEjE3$_2EEJRNS0_6__baseILNS0_6_TraitE0EJNSK_IhLm18446744073709551615EEENSK_IsLm18446744073709551615EEENSK_IiLm18446744073709551615EEENSK_IfLm18446744073709551615EEENSK_IdLm18446744073709551615EEENSK_I11MulawSampleLm18446744073709551615EEENSK_I10AlawSampleLm18446744073709551615EEENSK_I8IMA4DataLm18446744073709551615EEENSK_I11MSADPCMDataLm18446744073709551615EEEEEEEEEDcT_DpT0_', symObjAddr: 0x7F40, symBinAddr: 0xE530, symSize: 0xC }
  - { offset: 0xBEAF9, size: 0x8, addend: 0x0, symName: '__ZNSt3__116__variant_detail12__visitation6__base12__dispatcherIJLm1EEE10__dispatchB8fe200100IONS1_9__variant15__value_visitorIZN12_GLOBAL__N_18LoadDataEN3gsl8not_nullIPN2al7ContextEEENSA_IPNSB_6BufferEEEij11FmtChannels7FmtTypeNS_4spanIKSt4byteLm18446744073709551615EEEjE3$_2EEJRNS0_6__baseILNS0_6_TraitE0EJNSK_IhLm18446744073709551615EEENSK_IsLm18446744073709551615EEENSK_IiLm18446744073709551615EEENSK_IfLm18446744073709551615EEENSK_IdLm18446744073709551615EEENSK_I11MulawSampleLm18446744073709551615EEENSK_I10AlawSampleLm18446744073709551615EEENSK_I8IMA4DataLm18446744073709551615EEENSK_I11MSADPCMDataLm18446744073709551615EEEEEEEEEDcT_DpT0_', symObjAddr: 0x7F40, symBinAddr: 0xE530, symSize: 0xC }
  - { offset: 0xBEB15, size: 0x8, addend: 0x0, symName: '__ZNSt3__116__variant_detail12__visitation6__base12__dispatcherIJLm1EEE10__dispatchB8fe200100IONS1_9__variant15__value_visitorIZN12_GLOBAL__N_18LoadDataEN3gsl8not_nullIPN2al7ContextEEENSA_IPNSB_6BufferEEEij11FmtChannels7FmtTypeNS_4spanIKSt4byteLm18446744073709551615EEEjE3$_2EEJRNS0_6__baseILNS0_6_TraitE0EJNSK_IhLm18446744073709551615EEENSK_IsLm18446744073709551615EEENSK_IiLm18446744073709551615EEENSK_IfLm18446744073709551615EEENSK_IdLm18446744073709551615EEENSK_I11MulawSampleLm18446744073709551615EEENSK_I10AlawSampleLm18446744073709551615EEENSK_I8IMA4DataLm18446744073709551615EEENSK_I11MSADPCMDataLm18446744073709551615EEEEEEEEEDcT_DpT0_', symObjAddr: 0x7F40, symBinAddr: 0xE530, symSize: 0xC }
  - { offset: 0xBEB30, size: 0x8, addend: 0x0, symName: '__ZNSt3__116__variant_detail12__visitation6__base12__dispatcherIJLm1EEE10__dispatchB8fe200100IONS1_9__variant15__value_visitorIZN12_GLOBAL__N_18LoadDataEN3gsl8not_nullIPN2al7ContextEEENSA_IPNSB_6BufferEEEij11FmtChannels7FmtTypeNS_4spanIKSt4byteLm18446744073709551615EEEjE3$_2EEJRNS0_6__baseILNS0_6_TraitE0EJNSK_IhLm18446744073709551615EEENSK_IsLm18446744073709551615EEENSK_IiLm18446744073709551615EEENSK_IfLm18446744073709551615EEENSK_IdLm18446744073709551615EEENSK_I11MulawSampleLm18446744073709551615EEENSK_I10AlawSampleLm18446744073709551615EEENSK_I8IMA4DataLm18446744073709551615EEENSK_I11MSADPCMDataLm18446744073709551615EEEEEEEEEDcT_DpT0_', symObjAddr: 0x7F40, symBinAddr: 0xE530, symSize: 0xC }
  - { offset: 0xBEB4C, size: 0x8, addend: 0x0, symName: '__ZNSt3__116__variant_detail12__visitation6__base12__dispatcherIJLm1EEE10__dispatchB8fe200100IONS1_9__variant15__value_visitorIZN12_GLOBAL__N_18LoadDataEN3gsl8not_nullIPN2al7ContextEEENSA_IPNSB_6BufferEEEij11FmtChannels7FmtTypeNS_4spanIKSt4byteLm18446744073709551615EEEjE3$_2EEJRNS0_6__baseILNS0_6_TraitE0EJNSK_IhLm18446744073709551615EEENSK_IsLm18446744073709551615EEENSK_IiLm18446744073709551615EEENSK_IfLm18446744073709551615EEENSK_IdLm18446744073709551615EEENSK_I11MulawSampleLm18446744073709551615EEENSK_I10AlawSampleLm18446744073709551615EEENSK_I8IMA4DataLm18446744073709551615EEENSK_I11MSADPCMDataLm18446744073709551615EEEEEEEEEDcT_DpT0_', symObjAddr: 0x7F40, symBinAddr: 0xE530, symSize: 0xC }
  - { offset: 0xBEC57, size: 0x8, addend: 0x0, symName: '__ZNSt3__116__variant_detail12__visitation6__base12__dispatcherIJLm2EEE10__dispatchB8fe200100IONS1_9__variant15__value_visitorIZN12_GLOBAL__N_18LoadDataEN3gsl8not_nullIPN2al7ContextEEENSA_IPNSB_6BufferEEEij11FmtChannels7FmtTypeNS_4spanIKSt4byteLm18446744073709551615EEEjE3$_2EEJRNS0_6__baseILNS0_6_TraitE0EJNSK_IhLm18446744073709551615EEENSK_IsLm18446744073709551615EEENSK_IiLm18446744073709551615EEENSK_IfLm18446744073709551615EEENSK_IdLm18446744073709551615EEENSK_I11MulawSampleLm18446744073709551615EEENSK_I10AlawSampleLm18446744073709551615EEENSK_I8IMA4DataLm18446744073709551615EEENSK_I11MSADPCMDataLm18446744073709551615EEEEEEEEEDcT_DpT0_', symObjAddr: 0x7F4C, symBinAddr: 0xE53C, symSize: 0xC }
  - { offset: 0xBEC8B, size: 0x8, addend: 0x0, symName: '__ZNSt3__116__variant_detail12__visitation6__base12__dispatcherIJLm2EEE10__dispatchB8fe200100IONS1_9__variant15__value_visitorIZN12_GLOBAL__N_18LoadDataEN3gsl8not_nullIPN2al7ContextEEENSA_IPNSB_6BufferEEEij11FmtChannels7FmtTypeNS_4spanIKSt4byteLm18446744073709551615EEEjE3$_2EEJRNS0_6__baseILNS0_6_TraitE0EJNSK_IhLm18446744073709551615EEENSK_IsLm18446744073709551615EEENSK_IiLm18446744073709551615EEENSK_IfLm18446744073709551615EEENSK_IdLm18446744073709551615EEENSK_I11MulawSampleLm18446744073709551615EEENSK_I10AlawSampleLm18446744073709551615EEENSK_I8IMA4DataLm18446744073709551615EEENSK_I11MSADPCMDataLm18446744073709551615EEEEEEEEEDcT_DpT0_', symObjAddr: 0x7F4C, symBinAddr: 0xE53C, symSize: 0xC }
  - { offset: 0xBECA7, size: 0x8, addend: 0x0, symName: '__ZNSt3__116__variant_detail12__visitation6__base12__dispatcherIJLm2EEE10__dispatchB8fe200100IONS1_9__variant15__value_visitorIZN12_GLOBAL__N_18LoadDataEN3gsl8not_nullIPN2al7ContextEEENSA_IPNSB_6BufferEEEij11FmtChannels7FmtTypeNS_4spanIKSt4byteLm18446744073709551615EEEjE3$_2EEJRNS0_6__baseILNS0_6_TraitE0EJNSK_IhLm18446744073709551615EEENSK_IsLm18446744073709551615EEENSK_IiLm18446744073709551615EEENSK_IfLm18446744073709551615EEENSK_IdLm18446744073709551615EEENSK_I11MulawSampleLm18446744073709551615EEENSK_I10AlawSampleLm18446744073709551615EEENSK_I8IMA4DataLm18446744073709551615EEENSK_I11MSADPCMDataLm18446744073709551615EEEEEEEEEDcT_DpT0_', symObjAddr: 0x7F4C, symBinAddr: 0xE53C, symSize: 0xC }
  - { offset: 0xBECC2, size: 0x8, addend: 0x0, symName: '__ZNSt3__116__variant_detail12__visitation6__base12__dispatcherIJLm2EEE10__dispatchB8fe200100IONS1_9__variant15__value_visitorIZN12_GLOBAL__N_18LoadDataEN3gsl8not_nullIPN2al7ContextEEENSA_IPNSB_6BufferEEEij11FmtChannels7FmtTypeNS_4spanIKSt4byteLm18446744073709551615EEEjE3$_2EEJRNS0_6__baseILNS0_6_TraitE0EJNSK_IhLm18446744073709551615EEENSK_IsLm18446744073709551615EEENSK_IiLm18446744073709551615EEENSK_IfLm18446744073709551615EEENSK_IdLm18446744073709551615EEENSK_I11MulawSampleLm18446744073709551615EEENSK_I10AlawSampleLm18446744073709551615EEENSK_I8IMA4DataLm18446744073709551615EEENSK_I11MSADPCMDataLm18446744073709551615EEEEEEEEEDcT_DpT0_', symObjAddr: 0x7F4C, symBinAddr: 0xE53C, symSize: 0xC }
  - { offset: 0xBECDE, size: 0x8, addend: 0x0, symName: '__ZNSt3__116__variant_detail12__visitation6__base12__dispatcherIJLm2EEE10__dispatchB8fe200100IONS1_9__variant15__value_visitorIZN12_GLOBAL__N_18LoadDataEN3gsl8not_nullIPN2al7ContextEEENSA_IPNSB_6BufferEEEij11FmtChannels7FmtTypeNS_4spanIKSt4byteLm18446744073709551615EEEjE3$_2EEJRNS0_6__baseILNS0_6_TraitE0EJNSK_IhLm18446744073709551615EEENSK_IsLm18446744073709551615EEENSK_IiLm18446744073709551615EEENSK_IfLm18446744073709551615EEENSK_IdLm18446744073709551615EEENSK_I11MulawSampleLm18446744073709551615EEENSK_I10AlawSampleLm18446744073709551615EEENSK_I8IMA4DataLm18446744073709551615EEENSK_I11MSADPCMDataLm18446744073709551615EEEEEEEEEDcT_DpT0_', symObjAddr: 0x7F4C, symBinAddr: 0xE53C, symSize: 0xC }
  - { offset: 0xBEDE9, size: 0x8, addend: 0x0, symName: '__ZNSt3__116__variant_detail12__visitation6__base12__dispatcherIJLm3EEE10__dispatchB8fe200100IONS1_9__variant15__value_visitorIZN12_GLOBAL__N_18LoadDataEN3gsl8not_nullIPN2al7ContextEEENSA_IPNSB_6BufferEEEij11FmtChannels7FmtTypeNS_4spanIKSt4byteLm18446744073709551615EEEjE3$_2EEJRNS0_6__baseILNS0_6_TraitE0EJNSK_IhLm18446744073709551615EEENSK_IsLm18446744073709551615EEENSK_IiLm18446744073709551615EEENSK_IfLm18446744073709551615EEENSK_IdLm18446744073709551615EEENSK_I11MulawSampleLm18446744073709551615EEENSK_I10AlawSampleLm18446744073709551615EEENSK_I8IMA4DataLm18446744073709551615EEENSK_I11MSADPCMDataLm18446744073709551615EEEEEEEEEDcT_DpT0_', symObjAddr: 0x7F58, symBinAddr: 0xE548, symSize: 0xC }
  - { offset: 0xBEE1D, size: 0x8, addend: 0x0, symName: '__ZNSt3__116__variant_detail12__visitation6__base12__dispatcherIJLm3EEE10__dispatchB8fe200100IONS1_9__variant15__value_visitorIZN12_GLOBAL__N_18LoadDataEN3gsl8not_nullIPN2al7ContextEEENSA_IPNSB_6BufferEEEij11FmtChannels7FmtTypeNS_4spanIKSt4byteLm18446744073709551615EEEjE3$_2EEJRNS0_6__baseILNS0_6_TraitE0EJNSK_IhLm18446744073709551615EEENSK_IsLm18446744073709551615EEENSK_IiLm18446744073709551615EEENSK_IfLm18446744073709551615EEENSK_IdLm18446744073709551615EEENSK_I11MulawSampleLm18446744073709551615EEENSK_I10AlawSampleLm18446744073709551615EEENSK_I8IMA4DataLm18446744073709551615EEENSK_I11MSADPCMDataLm18446744073709551615EEEEEEEEEDcT_DpT0_', symObjAddr: 0x7F58, symBinAddr: 0xE548, symSize: 0xC }
  - { offset: 0xBEE39, size: 0x8, addend: 0x0, symName: '__ZNSt3__116__variant_detail12__visitation6__base12__dispatcherIJLm3EEE10__dispatchB8fe200100IONS1_9__variant15__value_visitorIZN12_GLOBAL__N_18LoadDataEN3gsl8not_nullIPN2al7ContextEEENSA_IPNSB_6BufferEEEij11FmtChannels7FmtTypeNS_4spanIKSt4byteLm18446744073709551615EEEjE3$_2EEJRNS0_6__baseILNS0_6_TraitE0EJNSK_IhLm18446744073709551615EEENSK_IsLm18446744073709551615EEENSK_IiLm18446744073709551615EEENSK_IfLm18446744073709551615EEENSK_IdLm18446744073709551615EEENSK_I11MulawSampleLm18446744073709551615EEENSK_I10AlawSampleLm18446744073709551615EEENSK_I8IMA4DataLm18446744073709551615EEENSK_I11MSADPCMDataLm18446744073709551615EEEEEEEEEDcT_DpT0_', symObjAddr: 0x7F58, symBinAddr: 0xE548, symSize: 0xC }
  - { offset: 0xBEE54, size: 0x8, addend: 0x0, symName: '__ZNSt3__116__variant_detail12__visitation6__base12__dispatcherIJLm3EEE10__dispatchB8fe200100IONS1_9__variant15__value_visitorIZN12_GLOBAL__N_18LoadDataEN3gsl8not_nullIPN2al7ContextEEENSA_IPNSB_6BufferEEEij11FmtChannels7FmtTypeNS_4spanIKSt4byteLm18446744073709551615EEEjE3$_2EEJRNS0_6__baseILNS0_6_TraitE0EJNSK_IhLm18446744073709551615EEENSK_IsLm18446744073709551615EEENSK_IiLm18446744073709551615EEENSK_IfLm18446744073709551615EEENSK_IdLm18446744073709551615EEENSK_I11MulawSampleLm18446744073709551615EEENSK_I10AlawSampleLm18446744073709551615EEENSK_I8IMA4DataLm18446744073709551615EEENSK_I11MSADPCMDataLm18446744073709551615EEEEEEEEEDcT_DpT0_', symObjAddr: 0x7F58, symBinAddr: 0xE548, symSize: 0xC }
  - { offset: 0xBEE70, size: 0x8, addend: 0x0, symName: '__ZNSt3__116__variant_detail12__visitation6__base12__dispatcherIJLm3EEE10__dispatchB8fe200100IONS1_9__variant15__value_visitorIZN12_GLOBAL__N_18LoadDataEN3gsl8not_nullIPN2al7ContextEEENSA_IPNSB_6BufferEEEij11FmtChannels7FmtTypeNS_4spanIKSt4byteLm18446744073709551615EEEjE3$_2EEJRNS0_6__baseILNS0_6_TraitE0EJNSK_IhLm18446744073709551615EEENSK_IsLm18446744073709551615EEENSK_IiLm18446744073709551615EEENSK_IfLm18446744073709551615EEENSK_IdLm18446744073709551615EEENSK_I11MulawSampleLm18446744073709551615EEENSK_I10AlawSampleLm18446744073709551615EEENSK_I8IMA4DataLm18446744073709551615EEENSK_I11MSADPCMDataLm18446744073709551615EEEEEEEEEDcT_DpT0_', symObjAddr: 0x7F58, symBinAddr: 0xE548, symSize: 0xC }
  - { offset: 0xBEF7B, size: 0x8, addend: 0x0, symName: '__ZNSt3__116__variant_detail12__visitation6__base12__dispatcherIJLm4EEE10__dispatchB8fe200100IONS1_9__variant15__value_visitorIZN12_GLOBAL__N_18LoadDataEN3gsl8not_nullIPN2al7ContextEEENSA_IPNSB_6BufferEEEij11FmtChannels7FmtTypeNS_4spanIKSt4byteLm18446744073709551615EEEjE3$_2EEJRNS0_6__baseILNS0_6_TraitE0EJNSK_IhLm18446744073709551615EEENSK_IsLm18446744073709551615EEENSK_IiLm18446744073709551615EEENSK_IfLm18446744073709551615EEENSK_IdLm18446744073709551615EEENSK_I11MulawSampleLm18446744073709551615EEENSK_I10AlawSampleLm18446744073709551615EEENSK_I8IMA4DataLm18446744073709551615EEENSK_I11MSADPCMDataLm18446744073709551615EEEEEEEEEDcT_DpT0_', symObjAddr: 0x7F64, symBinAddr: 0xE554, symSize: 0xC }
  - { offset: 0xBEFAF, size: 0x8, addend: 0x0, symName: '__ZNSt3__116__variant_detail12__visitation6__base12__dispatcherIJLm4EEE10__dispatchB8fe200100IONS1_9__variant15__value_visitorIZN12_GLOBAL__N_18LoadDataEN3gsl8not_nullIPN2al7ContextEEENSA_IPNSB_6BufferEEEij11FmtChannels7FmtTypeNS_4spanIKSt4byteLm18446744073709551615EEEjE3$_2EEJRNS0_6__baseILNS0_6_TraitE0EJNSK_IhLm18446744073709551615EEENSK_IsLm18446744073709551615EEENSK_IiLm18446744073709551615EEENSK_IfLm18446744073709551615EEENSK_IdLm18446744073709551615EEENSK_I11MulawSampleLm18446744073709551615EEENSK_I10AlawSampleLm18446744073709551615EEENSK_I8IMA4DataLm18446744073709551615EEENSK_I11MSADPCMDataLm18446744073709551615EEEEEEEEEDcT_DpT0_', symObjAddr: 0x7F64, symBinAddr: 0xE554, symSize: 0xC }
  - { offset: 0xBEFCB, size: 0x8, addend: 0x0, symName: '__ZNSt3__116__variant_detail12__visitation6__base12__dispatcherIJLm4EEE10__dispatchB8fe200100IONS1_9__variant15__value_visitorIZN12_GLOBAL__N_18LoadDataEN3gsl8not_nullIPN2al7ContextEEENSA_IPNSB_6BufferEEEij11FmtChannels7FmtTypeNS_4spanIKSt4byteLm18446744073709551615EEEjE3$_2EEJRNS0_6__baseILNS0_6_TraitE0EJNSK_IhLm18446744073709551615EEENSK_IsLm18446744073709551615EEENSK_IiLm18446744073709551615EEENSK_IfLm18446744073709551615EEENSK_IdLm18446744073709551615EEENSK_I11MulawSampleLm18446744073709551615EEENSK_I10AlawSampleLm18446744073709551615EEENSK_I8IMA4DataLm18446744073709551615EEENSK_I11MSADPCMDataLm18446744073709551615EEEEEEEEEDcT_DpT0_', symObjAddr: 0x7F64, symBinAddr: 0xE554, symSize: 0xC }
  - { offset: 0xBEFE6, size: 0x8, addend: 0x0, symName: '__ZNSt3__116__variant_detail12__visitation6__base12__dispatcherIJLm4EEE10__dispatchB8fe200100IONS1_9__variant15__value_visitorIZN12_GLOBAL__N_18LoadDataEN3gsl8not_nullIPN2al7ContextEEENSA_IPNSB_6BufferEEEij11FmtChannels7FmtTypeNS_4spanIKSt4byteLm18446744073709551615EEEjE3$_2EEJRNS0_6__baseILNS0_6_TraitE0EJNSK_IhLm18446744073709551615EEENSK_IsLm18446744073709551615EEENSK_IiLm18446744073709551615EEENSK_IfLm18446744073709551615EEENSK_IdLm18446744073709551615EEENSK_I11MulawSampleLm18446744073709551615EEENSK_I10AlawSampleLm18446744073709551615EEENSK_I8IMA4DataLm18446744073709551615EEENSK_I11MSADPCMDataLm18446744073709551615EEEEEEEEEDcT_DpT0_', symObjAddr: 0x7F64, symBinAddr: 0xE554, symSize: 0xC }
  - { offset: 0xBF002, size: 0x8, addend: 0x0, symName: '__ZNSt3__116__variant_detail12__visitation6__base12__dispatcherIJLm4EEE10__dispatchB8fe200100IONS1_9__variant15__value_visitorIZN12_GLOBAL__N_18LoadDataEN3gsl8not_nullIPN2al7ContextEEENSA_IPNSB_6BufferEEEij11FmtChannels7FmtTypeNS_4spanIKSt4byteLm18446744073709551615EEEjE3$_2EEJRNS0_6__baseILNS0_6_TraitE0EJNSK_IhLm18446744073709551615EEENSK_IsLm18446744073709551615EEENSK_IiLm18446744073709551615EEENSK_IfLm18446744073709551615EEENSK_IdLm18446744073709551615EEENSK_I11MulawSampleLm18446744073709551615EEENSK_I10AlawSampleLm18446744073709551615EEENSK_I8IMA4DataLm18446744073709551615EEENSK_I11MSADPCMDataLm18446744073709551615EEEEEEEEEDcT_DpT0_', symObjAddr: 0x7F64, symBinAddr: 0xE554, symSize: 0xC }
  - { offset: 0xBF0DB, size: 0x8, addend: 0x0, symName: '__ZNSt3__116__variant_detail12__visitation6__base12__dispatcherIJLm5EEE10__dispatchB8fe200100IONS1_9__variant15__value_visitorIZN12_GLOBAL__N_18LoadDataEN3gsl8not_nullIPN2al7ContextEEENSA_IPNSB_6BufferEEEij11FmtChannels7FmtTypeNS_4spanIKSt4byteLm18446744073709551615EEEjE3$_2EEJRNS0_6__baseILNS0_6_TraitE0EJNSK_IhLm18446744073709551615EEENSK_IsLm18446744073709551615EEENSK_IiLm18446744073709551615EEENSK_IfLm18446744073709551615EEENSK_IdLm18446744073709551615EEENSK_I11MulawSampleLm18446744073709551615EEENSK_I10AlawSampleLm18446744073709551615EEENSK_I8IMA4DataLm18446744073709551615EEENSK_I11MSADPCMDataLm18446744073709551615EEEEEEEEEDcT_DpT0_', symObjAddr: 0x7F70, symBinAddr: 0xE560, symSize: 0x8 }
  - { offset: 0xBF10F, size: 0x8, addend: 0x0, symName: '__ZNSt3__116__variant_detail12__visitation6__base12__dispatcherIJLm5EEE10__dispatchB8fe200100IONS1_9__variant15__value_visitorIZN12_GLOBAL__N_18LoadDataEN3gsl8not_nullIPN2al7ContextEEENSA_IPNSB_6BufferEEEij11FmtChannels7FmtTypeNS_4spanIKSt4byteLm18446744073709551615EEEjE3$_2EEJRNS0_6__baseILNS0_6_TraitE0EJNSK_IhLm18446744073709551615EEENSK_IsLm18446744073709551615EEENSK_IiLm18446744073709551615EEENSK_IfLm18446744073709551615EEENSK_IdLm18446744073709551615EEENSK_I11MulawSampleLm18446744073709551615EEENSK_I10AlawSampleLm18446744073709551615EEENSK_I8IMA4DataLm18446744073709551615EEENSK_I11MSADPCMDataLm18446744073709551615EEEEEEEEEDcT_DpT0_', symObjAddr: 0x7F70, symBinAddr: 0xE560, symSize: 0x8 }
  - { offset: 0xBF12B, size: 0x8, addend: 0x0, symName: '__ZNSt3__116__variant_detail12__visitation6__base12__dispatcherIJLm5EEE10__dispatchB8fe200100IONS1_9__variant15__value_visitorIZN12_GLOBAL__N_18LoadDataEN3gsl8not_nullIPN2al7ContextEEENSA_IPNSB_6BufferEEEij11FmtChannels7FmtTypeNS_4spanIKSt4byteLm18446744073709551615EEEjE3$_2EEJRNS0_6__baseILNS0_6_TraitE0EJNSK_IhLm18446744073709551615EEENSK_IsLm18446744073709551615EEENSK_IiLm18446744073709551615EEENSK_IfLm18446744073709551615EEENSK_IdLm18446744073709551615EEENSK_I11MulawSampleLm18446744073709551615EEENSK_I10AlawSampleLm18446744073709551615EEENSK_I8IMA4DataLm18446744073709551615EEENSK_I11MSADPCMDataLm18446744073709551615EEEEEEEEEDcT_DpT0_', symObjAddr: 0x7F70, symBinAddr: 0xE560, symSize: 0x8 }
  - { offset: 0xBF146, size: 0x8, addend: 0x0, symName: '__ZNSt3__116__variant_detail12__visitation6__base12__dispatcherIJLm5EEE10__dispatchB8fe200100IONS1_9__variant15__value_visitorIZN12_GLOBAL__N_18LoadDataEN3gsl8not_nullIPN2al7ContextEEENSA_IPNSB_6BufferEEEij11FmtChannels7FmtTypeNS_4spanIKSt4byteLm18446744073709551615EEEjE3$_2EEJRNS0_6__baseILNS0_6_TraitE0EJNSK_IhLm18446744073709551615EEENSK_IsLm18446744073709551615EEENSK_IiLm18446744073709551615EEENSK_IfLm18446744073709551615EEENSK_IdLm18446744073709551615EEENSK_I11MulawSampleLm18446744073709551615EEENSK_I10AlawSampleLm18446744073709551615EEENSK_I8IMA4DataLm18446744073709551615EEENSK_I11MSADPCMDataLm18446744073709551615EEEEEEEEEDcT_DpT0_', symObjAddr: 0x7F70, symBinAddr: 0xE560, symSize: 0x8 }
  - { offset: 0xBF162, size: 0x8, addend: 0x0, symName: '__ZNSt3__116__variant_detail12__visitation6__base12__dispatcherIJLm5EEE10__dispatchB8fe200100IONS1_9__variant15__value_visitorIZN12_GLOBAL__N_18LoadDataEN3gsl8not_nullIPN2al7ContextEEENSA_IPNSB_6BufferEEEij11FmtChannels7FmtTypeNS_4spanIKSt4byteLm18446744073709551615EEEjE3$_2EEJRNS0_6__baseILNS0_6_TraitE0EJNSK_IhLm18446744073709551615EEENSK_IsLm18446744073709551615EEENSK_IiLm18446744073709551615EEENSK_IfLm18446744073709551615EEENSK_IdLm18446744073709551615EEENSK_I11MulawSampleLm18446744073709551615EEENSK_I10AlawSampleLm18446744073709551615EEENSK_I8IMA4DataLm18446744073709551615EEENSK_I11MSADPCMDataLm18446744073709551615EEEEEEEEEDcT_DpT0_', symObjAddr: 0x7F70, symBinAddr: 0xE560, symSize: 0x8 }
  - { offset: 0xBF1F1, size: 0x8, addend: 0x0, symName: '__ZNSt3__116__variant_detail12__visitation6__base12__dispatcherIJLm6EEE10__dispatchB8fe200100IONS1_9__variant15__value_visitorIZN12_GLOBAL__N_18LoadDataEN3gsl8not_nullIPN2al7ContextEEENSA_IPNSB_6BufferEEEij11FmtChannels7FmtTypeNS_4spanIKSt4byteLm18446744073709551615EEEjE3$_2EEJRNS0_6__baseILNS0_6_TraitE0EJNSK_IhLm18446744073709551615EEENSK_IsLm18446744073709551615EEENSK_IiLm18446744073709551615EEENSK_IfLm18446744073709551615EEENSK_IdLm18446744073709551615EEENSK_I11MulawSampleLm18446744073709551615EEENSK_I10AlawSampleLm18446744073709551615EEENSK_I8IMA4DataLm18446744073709551615EEENSK_I11MSADPCMDataLm18446744073709551615EEEEEEEEEDcT_DpT0_', symObjAddr: 0x7F78, symBinAddr: 0xE568, symSize: 0x8 }
  - { offset: 0xBF225, size: 0x8, addend: 0x0, symName: '__ZNSt3__116__variant_detail12__visitation6__base12__dispatcherIJLm6EEE10__dispatchB8fe200100IONS1_9__variant15__value_visitorIZN12_GLOBAL__N_18LoadDataEN3gsl8not_nullIPN2al7ContextEEENSA_IPNSB_6BufferEEEij11FmtChannels7FmtTypeNS_4spanIKSt4byteLm18446744073709551615EEEjE3$_2EEJRNS0_6__baseILNS0_6_TraitE0EJNSK_IhLm18446744073709551615EEENSK_IsLm18446744073709551615EEENSK_IiLm18446744073709551615EEENSK_IfLm18446744073709551615EEENSK_IdLm18446744073709551615EEENSK_I11MulawSampleLm18446744073709551615EEENSK_I10AlawSampleLm18446744073709551615EEENSK_I8IMA4DataLm18446744073709551615EEENSK_I11MSADPCMDataLm18446744073709551615EEEEEEEEEDcT_DpT0_', symObjAddr: 0x7F78, symBinAddr: 0xE568, symSize: 0x8 }
  - { offset: 0xBF241, size: 0x8, addend: 0x0, symName: '__ZNSt3__116__variant_detail12__visitation6__base12__dispatcherIJLm6EEE10__dispatchB8fe200100IONS1_9__variant15__value_visitorIZN12_GLOBAL__N_18LoadDataEN3gsl8not_nullIPN2al7ContextEEENSA_IPNSB_6BufferEEEij11FmtChannels7FmtTypeNS_4spanIKSt4byteLm18446744073709551615EEEjE3$_2EEJRNS0_6__baseILNS0_6_TraitE0EJNSK_IhLm18446744073709551615EEENSK_IsLm18446744073709551615EEENSK_IiLm18446744073709551615EEENSK_IfLm18446744073709551615EEENSK_IdLm18446744073709551615EEENSK_I11MulawSampleLm18446744073709551615EEENSK_I10AlawSampleLm18446744073709551615EEENSK_I8IMA4DataLm18446744073709551615EEENSK_I11MSADPCMDataLm18446744073709551615EEEEEEEEEDcT_DpT0_', symObjAddr: 0x7F78, symBinAddr: 0xE568, symSize: 0x8 }
  - { offset: 0xBF25C, size: 0x8, addend: 0x0, symName: '__ZNSt3__116__variant_detail12__visitation6__base12__dispatcherIJLm6EEE10__dispatchB8fe200100IONS1_9__variant15__value_visitorIZN12_GLOBAL__N_18LoadDataEN3gsl8not_nullIPN2al7ContextEEENSA_IPNSB_6BufferEEEij11FmtChannels7FmtTypeNS_4spanIKSt4byteLm18446744073709551615EEEjE3$_2EEJRNS0_6__baseILNS0_6_TraitE0EJNSK_IhLm18446744073709551615EEENSK_IsLm18446744073709551615EEENSK_IiLm18446744073709551615EEENSK_IfLm18446744073709551615EEENSK_IdLm18446744073709551615EEENSK_I11MulawSampleLm18446744073709551615EEENSK_I10AlawSampleLm18446744073709551615EEENSK_I8IMA4DataLm18446744073709551615EEENSK_I11MSADPCMDataLm18446744073709551615EEEEEEEEEDcT_DpT0_', symObjAddr: 0x7F78, symBinAddr: 0xE568, symSize: 0x8 }
  - { offset: 0xBF278, size: 0x8, addend: 0x0, symName: '__ZNSt3__116__variant_detail12__visitation6__base12__dispatcherIJLm6EEE10__dispatchB8fe200100IONS1_9__variant15__value_visitorIZN12_GLOBAL__N_18LoadDataEN3gsl8not_nullIPN2al7ContextEEENSA_IPNSB_6BufferEEEij11FmtChannels7FmtTypeNS_4spanIKSt4byteLm18446744073709551615EEEjE3$_2EEJRNS0_6__baseILNS0_6_TraitE0EJNSK_IhLm18446744073709551615EEENSK_IsLm18446744073709551615EEENSK_IiLm18446744073709551615EEENSK_IfLm18446744073709551615EEENSK_IdLm18446744073709551615EEENSK_I11MulawSampleLm18446744073709551615EEENSK_I10AlawSampleLm18446744073709551615EEENSK_I8IMA4DataLm18446744073709551615EEENSK_I11MSADPCMDataLm18446744073709551615EEEEEEEEEDcT_DpT0_', symObjAddr: 0x7F78, symBinAddr: 0xE568, symSize: 0x8 }
  - { offset: 0xBF307, size: 0x8, addend: 0x0, symName: '__ZNSt3__116__variant_detail12__visitation6__base12__dispatcherIJLm7EEE10__dispatchB8fe200100IONS1_9__variant15__value_visitorIZN12_GLOBAL__N_18LoadDataEN3gsl8not_nullIPN2al7ContextEEENSA_IPNSB_6BufferEEEij11FmtChannels7FmtTypeNS_4spanIKSt4byteLm18446744073709551615EEEjE3$_2EEJRNS0_6__baseILNS0_6_TraitE0EJNSK_IhLm18446744073709551615EEENSK_IsLm18446744073709551615EEENSK_IiLm18446744073709551615EEENSK_IfLm18446744073709551615EEENSK_IdLm18446744073709551615EEENSK_I11MulawSampleLm18446744073709551615EEENSK_I10AlawSampleLm18446744073709551615EEENSK_I8IMA4DataLm18446744073709551615EEENSK_I11MSADPCMDataLm18446744073709551615EEEEEEEEEDcT_DpT0_', symObjAddr: 0x7F80, symBinAddr: 0xE570, symSize: 0x8 }
  - { offset: 0xBF33B, size: 0x8, addend: 0x0, symName: '__ZNSt3__116__variant_detail12__visitation6__base12__dispatcherIJLm7EEE10__dispatchB8fe200100IONS1_9__variant15__value_visitorIZN12_GLOBAL__N_18LoadDataEN3gsl8not_nullIPN2al7ContextEEENSA_IPNSB_6BufferEEEij11FmtChannels7FmtTypeNS_4spanIKSt4byteLm18446744073709551615EEEjE3$_2EEJRNS0_6__baseILNS0_6_TraitE0EJNSK_IhLm18446744073709551615EEENSK_IsLm18446744073709551615EEENSK_IiLm18446744073709551615EEENSK_IfLm18446744073709551615EEENSK_IdLm18446744073709551615EEENSK_I11MulawSampleLm18446744073709551615EEENSK_I10AlawSampleLm18446744073709551615EEENSK_I8IMA4DataLm18446744073709551615EEENSK_I11MSADPCMDataLm18446744073709551615EEEEEEEEEDcT_DpT0_', symObjAddr: 0x7F80, symBinAddr: 0xE570, symSize: 0x8 }
  - { offset: 0xBF357, size: 0x8, addend: 0x0, symName: '__ZNSt3__116__variant_detail12__visitation6__base12__dispatcherIJLm7EEE10__dispatchB8fe200100IONS1_9__variant15__value_visitorIZN12_GLOBAL__N_18LoadDataEN3gsl8not_nullIPN2al7ContextEEENSA_IPNSB_6BufferEEEij11FmtChannels7FmtTypeNS_4spanIKSt4byteLm18446744073709551615EEEjE3$_2EEJRNS0_6__baseILNS0_6_TraitE0EJNSK_IhLm18446744073709551615EEENSK_IsLm18446744073709551615EEENSK_IiLm18446744073709551615EEENSK_IfLm18446744073709551615EEENSK_IdLm18446744073709551615EEENSK_I11MulawSampleLm18446744073709551615EEENSK_I10AlawSampleLm18446744073709551615EEENSK_I8IMA4DataLm18446744073709551615EEENSK_I11MSADPCMDataLm18446744073709551615EEEEEEEEEDcT_DpT0_', symObjAddr: 0x7F80, symBinAddr: 0xE570, symSize: 0x8 }
  - { offset: 0xBF372, size: 0x8, addend: 0x0, symName: '__ZNSt3__116__variant_detail12__visitation6__base12__dispatcherIJLm7EEE10__dispatchB8fe200100IONS1_9__variant15__value_visitorIZN12_GLOBAL__N_18LoadDataEN3gsl8not_nullIPN2al7ContextEEENSA_IPNSB_6BufferEEEij11FmtChannels7FmtTypeNS_4spanIKSt4byteLm18446744073709551615EEEjE3$_2EEJRNS0_6__baseILNS0_6_TraitE0EJNSK_IhLm18446744073709551615EEENSK_IsLm18446744073709551615EEENSK_IiLm18446744073709551615EEENSK_IfLm18446744073709551615EEENSK_IdLm18446744073709551615EEENSK_I11MulawSampleLm18446744073709551615EEENSK_I10AlawSampleLm18446744073709551615EEENSK_I8IMA4DataLm18446744073709551615EEENSK_I11MSADPCMDataLm18446744073709551615EEEEEEEEEDcT_DpT0_', symObjAddr: 0x7F80, symBinAddr: 0xE570, symSize: 0x8 }
  - { offset: 0xBF38E, size: 0x8, addend: 0x0, symName: '__ZNSt3__116__variant_detail12__visitation6__base12__dispatcherIJLm7EEE10__dispatchB8fe200100IONS1_9__variant15__value_visitorIZN12_GLOBAL__N_18LoadDataEN3gsl8not_nullIPN2al7ContextEEENSA_IPNSB_6BufferEEEij11FmtChannels7FmtTypeNS_4spanIKSt4byteLm18446744073709551615EEEjE3$_2EEJRNS0_6__baseILNS0_6_TraitE0EJNSK_IhLm18446744073709551615EEENSK_IsLm18446744073709551615EEENSK_IiLm18446744073709551615EEENSK_IfLm18446744073709551615EEENSK_IdLm18446744073709551615EEENSK_I11MulawSampleLm18446744073709551615EEENSK_I10AlawSampleLm18446744073709551615EEENSK_I8IMA4DataLm18446744073709551615EEENSK_I11MSADPCMDataLm18446744073709551615EEEEEEEEEDcT_DpT0_', symObjAddr: 0x7F80, symBinAddr: 0xE570, symSize: 0x8 }
  - { offset: 0xBF41D, size: 0x8, addend: 0x0, symName: '__ZNSt3__116__variant_detail12__visitation6__base12__dispatcherIJLm8EEE10__dispatchB8fe200100IONS1_9__variant15__value_visitorIZN12_GLOBAL__N_18LoadDataEN3gsl8not_nullIPN2al7ContextEEENSA_IPNSB_6BufferEEEij11FmtChannels7FmtTypeNS_4spanIKSt4byteLm18446744073709551615EEEjE3$_2EEJRNS0_6__baseILNS0_6_TraitE0EJNSK_IhLm18446744073709551615EEENSK_IsLm18446744073709551615EEENSK_IiLm18446744073709551615EEENSK_IfLm18446744073709551615EEENSK_IdLm18446744073709551615EEENSK_I11MulawSampleLm18446744073709551615EEENSK_I10AlawSampleLm18446744073709551615EEENSK_I8IMA4DataLm18446744073709551615EEENSK_I11MSADPCMDataLm18446744073709551615EEEEEEEEEDcT_DpT0_', symObjAddr: 0x7F88, symBinAddr: 0xE578, symSize: 0x8 }
  - { offset: 0xBF451, size: 0x8, addend: 0x0, symName: '__ZNSt3__116__variant_detail12__visitation6__base12__dispatcherIJLm8EEE10__dispatchB8fe200100IONS1_9__variant15__value_visitorIZN12_GLOBAL__N_18LoadDataEN3gsl8not_nullIPN2al7ContextEEENSA_IPNSB_6BufferEEEij11FmtChannels7FmtTypeNS_4spanIKSt4byteLm18446744073709551615EEEjE3$_2EEJRNS0_6__baseILNS0_6_TraitE0EJNSK_IhLm18446744073709551615EEENSK_IsLm18446744073709551615EEENSK_IiLm18446744073709551615EEENSK_IfLm18446744073709551615EEENSK_IdLm18446744073709551615EEENSK_I11MulawSampleLm18446744073709551615EEENSK_I10AlawSampleLm18446744073709551615EEENSK_I8IMA4DataLm18446744073709551615EEENSK_I11MSADPCMDataLm18446744073709551615EEEEEEEEEDcT_DpT0_', symObjAddr: 0x7F88, symBinAddr: 0xE578, symSize: 0x8 }
  - { offset: 0xBF46D, size: 0x8, addend: 0x0, symName: '__ZNSt3__116__variant_detail12__visitation6__base12__dispatcherIJLm8EEE10__dispatchB8fe200100IONS1_9__variant15__value_visitorIZN12_GLOBAL__N_18LoadDataEN3gsl8not_nullIPN2al7ContextEEENSA_IPNSB_6BufferEEEij11FmtChannels7FmtTypeNS_4spanIKSt4byteLm18446744073709551615EEEjE3$_2EEJRNS0_6__baseILNS0_6_TraitE0EJNSK_IhLm18446744073709551615EEENSK_IsLm18446744073709551615EEENSK_IiLm18446744073709551615EEENSK_IfLm18446744073709551615EEENSK_IdLm18446744073709551615EEENSK_I11MulawSampleLm18446744073709551615EEENSK_I10AlawSampleLm18446744073709551615EEENSK_I8IMA4DataLm18446744073709551615EEENSK_I11MSADPCMDataLm18446744073709551615EEEEEEEEEDcT_DpT0_', symObjAddr: 0x7F88, symBinAddr: 0xE578, symSize: 0x8 }
  - { offset: 0xBF488, size: 0x8, addend: 0x0, symName: '__ZNSt3__116__variant_detail12__visitation6__base12__dispatcherIJLm8EEE10__dispatchB8fe200100IONS1_9__variant15__value_visitorIZN12_GLOBAL__N_18LoadDataEN3gsl8not_nullIPN2al7ContextEEENSA_IPNSB_6BufferEEEij11FmtChannels7FmtTypeNS_4spanIKSt4byteLm18446744073709551615EEEjE3$_2EEJRNS0_6__baseILNS0_6_TraitE0EJNSK_IhLm18446744073709551615EEENSK_IsLm18446744073709551615EEENSK_IiLm18446744073709551615EEENSK_IfLm18446744073709551615EEENSK_IdLm18446744073709551615EEENSK_I11MulawSampleLm18446744073709551615EEENSK_I10AlawSampleLm18446744073709551615EEENSK_I8IMA4DataLm18446744073709551615EEENSK_I11MSADPCMDataLm18446744073709551615EEEEEEEEEDcT_DpT0_', symObjAddr: 0x7F88, symBinAddr: 0xE578, symSize: 0x8 }
  - { offset: 0xBF4A4, size: 0x8, addend: 0x0, symName: '__ZNSt3__116__variant_detail12__visitation6__base12__dispatcherIJLm8EEE10__dispatchB8fe200100IONS1_9__variant15__value_visitorIZN12_GLOBAL__N_18LoadDataEN3gsl8not_nullIPN2al7ContextEEENSA_IPNSB_6BufferEEEij11FmtChannels7FmtTypeNS_4spanIKSt4byteLm18446744073709551615EEEjE3$_2EEJRNS0_6__baseILNS0_6_TraitE0EJNSK_IhLm18446744073709551615EEENSK_IsLm18446744073709551615EEENSK_IiLm18446744073709551615EEENSK_IfLm18446744073709551615EEENSK_IdLm18446744073709551615EEENSK_I11MulawSampleLm18446744073709551615EEENSK_I10AlawSampleLm18446744073709551615EEENSK_I8IMA4DataLm18446744073709551615EEENSK_I11MSADPCMDataLm18446744073709551615EEEEEEEEEDcT_DpT0_', symObjAddr: 0x7F88, symBinAddr: 0xE578, symSize: 0x8 }
  - { offset: 0xBF5A5, size: 0x8, addend: 0x0, symName: '__ZNSt3__116__variant_detail12__visitation6__base12__dispatcherIJLm0EEE10__dispatchB8fe200100IONS1_9__variant15__value_visitorIZN12_GLOBAL__N_119alBufferSubDataSOFTEN3gsl8not_nullIPN2al7ContextEEEjiPKviiE3$_0EEJRNS0_6__baseILNS0_6_TraitE0EJNS_4spanIhLm18446744073709551615EEENSM_IsLm18446744073709551615EEENSM_IiLm18446744073709551615EEENSM_IfLm18446744073709551615EEENSM_IdLm18446744073709551615EEENSM_I11MulawSampleLm18446744073709551615EEENSM_I10AlawSampleLm18446744073709551615EEENSM_I8IMA4DataLm18446744073709551615EEENSM_I11MSADPCMDataLm18446744073709551615EEEEEEEEEDcT_DpT0_', symObjAddr: 0x8048, symBinAddr: 0xE610, symSize: 0x8 }
  - { offset: 0xBF5D9, size: 0x8, addend: 0x0, symName: '__ZNSt3__116__variant_detail12__visitation6__base12__dispatcherIJLm0EEE10__dispatchB8fe200100IONS1_9__variant15__value_visitorIZN12_GLOBAL__N_119alBufferSubDataSOFTEN3gsl8not_nullIPN2al7ContextEEEjiPKviiE3$_0EEJRNS0_6__baseILNS0_6_TraitE0EJNS_4spanIhLm18446744073709551615EEENSM_IsLm18446744073709551615EEENSM_IiLm18446744073709551615EEENSM_IfLm18446744073709551615EEENSM_IdLm18446744073709551615EEENSM_I11MulawSampleLm18446744073709551615EEENSM_I10AlawSampleLm18446744073709551615EEENSM_I8IMA4DataLm18446744073709551615EEENSM_I11MSADPCMDataLm18446744073709551615EEEEEEEEEDcT_DpT0_', symObjAddr: 0x8048, symBinAddr: 0xE610, symSize: 0x8 }
  - { offset: 0xBF5F5, size: 0x8, addend: 0x0, symName: '__ZNSt3__116__variant_detail12__visitation6__base12__dispatcherIJLm0EEE10__dispatchB8fe200100IONS1_9__variant15__value_visitorIZN12_GLOBAL__N_119alBufferSubDataSOFTEN3gsl8not_nullIPN2al7ContextEEEjiPKviiE3$_0EEJRNS0_6__baseILNS0_6_TraitE0EJNS_4spanIhLm18446744073709551615EEENSM_IsLm18446744073709551615EEENSM_IiLm18446744073709551615EEENSM_IfLm18446744073709551615EEENSM_IdLm18446744073709551615EEENSM_I11MulawSampleLm18446744073709551615EEENSM_I10AlawSampleLm18446744073709551615EEENSM_I8IMA4DataLm18446744073709551615EEENSM_I11MSADPCMDataLm18446744073709551615EEEEEEEEEDcT_DpT0_', symObjAddr: 0x8048, symBinAddr: 0xE610, symSize: 0x8 }
  - { offset: 0xBF610, size: 0x8, addend: 0x0, symName: '__ZNSt3__116__variant_detail12__visitation6__base12__dispatcherIJLm0EEE10__dispatchB8fe200100IONS1_9__variant15__value_visitorIZN12_GLOBAL__N_119alBufferSubDataSOFTEN3gsl8not_nullIPN2al7ContextEEEjiPKviiE3$_0EEJRNS0_6__baseILNS0_6_TraitE0EJNS_4spanIhLm18446744073709551615EEENSM_IsLm18446744073709551615EEENSM_IiLm18446744073709551615EEENSM_IfLm18446744073709551615EEENSM_IdLm18446744073709551615EEENSM_I11MulawSampleLm18446744073709551615EEENSM_I10AlawSampleLm18446744073709551615EEENSM_I8IMA4DataLm18446744073709551615EEENSM_I11MSADPCMDataLm18446744073709551615EEEEEEEEEDcT_DpT0_', symObjAddr: 0x8048, symBinAddr: 0xE610, symSize: 0x8 }
  - { offset: 0xBF62C, size: 0x8, addend: 0x0, symName: '__ZNSt3__116__variant_detail12__visitation6__base12__dispatcherIJLm0EEE10__dispatchB8fe200100IONS1_9__variant15__value_visitorIZN12_GLOBAL__N_119alBufferSubDataSOFTEN3gsl8not_nullIPN2al7ContextEEEjiPKviiE3$_0EEJRNS0_6__baseILNS0_6_TraitE0EJNS_4spanIhLm18446744073709551615EEENSM_IsLm18446744073709551615EEENSM_IiLm18446744073709551615EEENSM_IfLm18446744073709551615EEENSM_IdLm18446744073709551615EEENSM_I11MulawSampleLm18446744073709551615EEENSM_I10AlawSampleLm18446744073709551615EEENSM_I8IMA4DataLm18446744073709551615EEENSM_I11MSADPCMDataLm18446744073709551615EEEEEEEEEDcT_DpT0_', symObjAddr: 0x8048, symBinAddr: 0xE610, symSize: 0x8 }
  - { offset: 0xBF6BB, size: 0x8, addend: 0x0, symName: '__ZNSt3__116__variant_detail12__visitation6__base12__dispatcherIJLm1EEE10__dispatchB8fe200100IONS1_9__variant15__value_visitorIZN12_GLOBAL__N_119alBufferSubDataSOFTEN3gsl8not_nullIPN2al7ContextEEEjiPKviiE3$_0EEJRNS0_6__baseILNS0_6_TraitE0EJNS_4spanIhLm18446744073709551615EEENSM_IsLm18446744073709551615EEENSM_IiLm18446744073709551615EEENSM_IfLm18446744073709551615EEENSM_IdLm18446744073709551615EEENSM_I11MulawSampleLm18446744073709551615EEENSM_I10AlawSampleLm18446744073709551615EEENSM_I8IMA4DataLm18446744073709551615EEENSM_I11MSADPCMDataLm18446744073709551615EEEEEEEEEDcT_DpT0_', symObjAddr: 0x8050, symBinAddr: 0xE618, symSize: 0xC }
  - { offset: 0xBF6EF, size: 0x8, addend: 0x0, symName: '__ZNSt3__116__variant_detail12__visitation6__base12__dispatcherIJLm1EEE10__dispatchB8fe200100IONS1_9__variant15__value_visitorIZN12_GLOBAL__N_119alBufferSubDataSOFTEN3gsl8not_nullIPN2al7ContextEEEjiPKviiE3$_0EEJRNS0_6__baseILNS0_6_TraitE0EJNS_4spanIhLm18446744073709551615EEENSM_IsLm18446744073709551615EEENSM_IiLm18446744073709551615EEENSM_IfLm18446744073709551615EEENSM_IdLm18446744073709551615EEENSM_I11MulawSampleLm18446744073709551615EEENSM_I10AlawSampleLm18446744073709551615EEENSM_I8IMA4DataLm18446744073709551615EEENSM_I11MSADPCMDataLm18446744073709551615EEEEEEEEEDcT_DpT0_', symObjAddr: 0x8050, symBinAddr: 0xE618, symSize: 0xC }
  - { offset: 0xBF70B, size: 0x8, addend: 0x0, symName: '__ZNSt3__116__variant_detail12__visitation6__base12__dispatcherIJLm1EEE10__dispatchB8fe200100IONS1_9__variant15__value_visitorIZN12_GLOBAL__N_119alBufferSubDataSOFTEN3gsl8not_nullIPN2al7ContextEEEjiPKviiE3$_0EEJRNS0_6__baseILNS0_6_TraitE0EJNS_4spanIhLm18446744073709551615EEENSM_IsLm18446744073709551615EEENSM_IiLm18446744073709551615EEENSM_IfLm18446744073709551615EEENSM_IdLm18446744073709551615EEENSM_I11MulawSampleLm18446744073709551615EEENSM_I10AlawSampleLm18446744073709551615EEENSM_I8IMA4DataLm18446744073709551615EEENSM_I11MSADPCMDataLm18446744073709551615EEEEEEEEEDcT_DpT0_', symObjAddr: 0x8050, symBinAddr: 0xE618, symSize: 0xC }
  - { offset: 0xBF726, size: 0x8, addend: 0x0, symName: '__ZNSt3__116__variant_detail12__visitation6__base12__dispatcherIJLm1EEE10__dispatchB8fe200100IONS1_9__variant15__value_visitorIZN12_GLOBAL__N_119alBufferSubDataSOFTEN3gsl8not_nullIPN2al7ContextEEEjiPKviiE3$_0EEJRNS0_6__baseILNS0_6_TraitE0EJNS_4spanIhLm18446744073709551615EEENSM_IsLm18446744073709551615EEENSM_IiLm18446744073709551615EEENSM_IfLm18446744073709551615EEENSM_IdLm18446744073709551615EEENSM_I11MulawSampleLm18446744073709551615EEENSM_I10AlawSampleLm18446744073709551615EEENSM_I8IMA4DataLm18446744073709551615EEENSM_I11MSADPCMDataLm18446744073709551615EEEEEEEEEDcT_DpT0_', symObjAddr: 0x8050, symBinAddr: 0xE618, symSize: 0xC }
  - { offset: 0xBF742, size: 0x8, addend: 0x0, symName: '__ZNSt3__116__variant_detail12__visitation6__base12__dispatcherIJLm1EEE10__dispatchB8fe200100IONS1_9__variant15__value_visitorIZN12_GLOBAL__N_119alBufferSubDataSOFTEN3gsl8not_nullIPN2al7ContextEEEjiPKviiE3$_0EEJRNS0_6__baseILNS0_6_TraitE0EJNS_4spanIhLm18446744073709551615EEENSM_IsLm18446744073709551615EEENSM_IiLm18446744073709551615EEENSM_IfLm18446744073709551615EEENSM_IdLm18446744073709551615EEENSM_I11MulawSampleLm18446744073709551615EEENSM_I10AlawSampleLm18446744073709551615EEENSM_I8IMA4DataLm18446744073709551615EEENSM_I11MSADPCMDataLm18446744073709551615EEEEEEEEEDcT_DpT0_', symObjAddr: 0x8050, symBinAddr: 0xE618, symSize: 0xC }
  - { offset: 0xBF81B, size: 0x8, addend: 0x0, symName: '__ZNSt3__116__variant_detail12__visitation6__base12__dispatcherIJLm2EEE10__dispatchB8fe200100IONS1_9__variant15__value_visitorIZN12_GLOBAL__N_119alBufferSubDataSOFTEN3gsl8not_nullIPN2al7ContextEEEjiPKviiE3$_0EEJRNS0_6__baseILNS0_6_TraitE0EJNS_4spanIhLm18446744073709551615EEENSM_IsLm18446744073709551615EEENSM_IiLm18446744073709551615EEENSM_IfLm18446744073709551615EEENSM_IdLm18446744073709551615EEENSM_I11MulawSampleLm18446744073709551615EEENSM_I10AlawSampleLm18446744073709551615EEENSM_I8IMA4DataLm18446744073709551615EEENSM_I11MSADPCMDataLm18446744073709551615EEEEEEEEEDcT_DpT0_', symObjAddr: 0x805C, symBinAddr: 0xE624, symSize: 0xC }
  - { offset: 0xBF84F, size: 0x8, addend: 0x0, symName: '__ZNSt3__116__variant_detail12__visitation6__base12__dispatcherIJLm2EEE10__dispatchB8fe200100IONS1_9__variant15__value_visitorIZN12_GLOBAL__N_119alBufferSubDataSOFTEN3gsl8not_nullIPN2al7ContextEEEjiPKviiE3$_0EEJRNS0_6__baseILNS0_6_TraitE0EJNS_4spanIhLm18446744073709551615EEENSM_IsLm18446744073709551615EEENSM_IiLm18446744073709551615EEENSM_IfLm18446744073709551615EEENSM_IdLm18446744073709551615EEENSM_I11MulawSampleLm18446744073709551615EEENSM_I10AlawSampleLm18446744073709551615EEENSM_I8IMA4DataLm18446744073709551615EEENSM_I11MSADPCMDataLm18446744073709551615EEEEEEEEEDcT_DpT0_', symObjAddr: 0x805C, symBinAddr: 0xE624, symSize: 0xC }
  - { offset: 0xBF86B, size: 0x8, addend: 0x0, symName: '__ZNSt3__116__variant_detail12__visitation6__base12__dispatcherIJLm2EEE10__dispatchB8fe200100IONS1_9__variant15__value_visitorIZN12_GLOBAL__N_119alBufferSubDataSOFTEN3gsl8not_nullIPN2al7ContextEEEjiPKviiE3$_0EEJRNS0_6__baseILNS0_6_TraitE0EJNS_4spanIhLm18446744073709551615EEENSM_IsLm18446744073709551615EEENSM_IiLm18446744073709551615EEENSM_IfLm18446744073709551615EEENSM_IdLm18446744073709551615EEENSM_I11MulawSampleLm18446744073709551615EEENSM_I10AlawSampleLm18446744073709551615EEENSM_I8IMA4DataLm18446744073709551615EEENSM_I11MSADPCMDataLm18446744073709551615EEEEEEEEEDcT_DpT0_', symObjAddr: 0x805C, symBinAddr: 0xE624, symSize: 0xC }
  - { offset: 0xBF886, size: 0x8, addend: 0x0, symName: '__ZNSt3__116__variant_detail12__visitation6__base12__dispatcherIJLm2EEE10__dispatchB8fe200100IONS1_9__variant15__value_visitorIZN12_GLOBAL__N_119alBufferSubDataSOFTEN3gsl8not_nullIPN2al7ContextEEEjiPKviiE3$_0EEJRNS0_6__baseILNS0_6_TraitE0EJNS_4spanIhLm18446744073709551615EEENSM_IsLm18446744073709551615EEENSM_IiLm18446744073709551615EEENSM_IfLm18446744073709551615EEENSM_IdLm18446744073709551615EEENSM_I11MulawSampleLm18446744073709551615EEENSM_I10AlawSampleLm18446744073709551615EEENSM_I8IMA4DataLm18446744073709551615EEENSM_I11MSADPCMDataLm18446744073709551615EEEEEEEEEDcT_DpT0_', symObjAddr: 0x805C, symBinAddr: 0xE624, symSize: 0xC }
  - { offset: 0xBF8A2, size: 0x8, addend: 0x0, symName: '__ZNSt3__116__variant_detail12__visitation6__base12__dispatcherIJLm2EEE10__dispatchB8fe200100IONS1_9__variant15__value_visitorIZN12_GLOBAL__N_119alBufferSubDataSOFTEN3gsl8not_nullIPN2al7ContextEEEjiPKviiE3$_0EEJRNS0_6__baseILNS0_6_TraitE0EJNS_4spanIhLm18446744073709551615EEENSM_IsLm18446744073709551615EEENSM_IiLm18446744073709551615EEENSM_IfLm18446744073709551615EEENSM_IdLm18446744073709551615EEENSM_I11MulawSampleLm18446744073709551615EEENSM_I10AlawSampleLm18446744073709551615EEENSM_I8IMA4DataLm18446744073709551615EEENSM_I11MSADPCMDataLm18446744073709551615EEEEEEEEEDcT_DpT0_', symObjAddr: 0x805C, symBinAddr: 0xE624, symSize: 0xC }
  - { offset: 0xBF97B, size: 0x8, addend: 0x0, symName: '__ZNSt3__116__variant_detail12__visitation6__base12__dispatcherIJLm3EEE10__dispatchB8fe200100IONS1_9__variant15__value_visitorIZN12_GLOBAL__N_119alBufferSubDataSOFTEN3gsl8not_nullIPN2al7ContextEEEjiPKviiE3$_0EEJRNS0_6__baseILNS0_6_TraitE0EJNS_4spanIhLm18446744073709551615EEENSM_IsLm18446744073709551615EEENSM_IiLm18446744073709551615EEENSM_IfLm18446744073709551615EEENSM_IdLm18446744073709551615EEENSM_I11MulawSampleLm18446744073709551615EEENSM_I10AlawSampleLm18446744073709551615EEENSM_I8IMA4DataLm18446744073709551615EEENSM_I11MSADPCMDataLm18446744073709551615EEEEEEEEEDcT_DpT0_', symObjAddr: 0x8068, symBinAddr: 0xE630, symSize: 0xC }
  - { offset: 0xBF9AF, size: 0x8, addend: 0x0, symName: '__ZNSt3__116__variant_detail12__visitation6__base12__dispatcherIJLm3EEE10__dispatchB8fe200100IONS1_9__variant15__value_visitorIZN12_GLOBAL__N_119alBufferSubDataSOFTEN3gsl8not_nullIPN2al7ContextEEEjiPKviiE3$_0EEJRNS0_6__baseILNS0_6_TraitE0EJNS_4spanIhLm18446744073709551615EEENSM_IsLm18446744073709551615EEENSM_IiLm18446744073709551615EEENSM_IfLm18446744073709551615EEENSM_IdLm18446744073709551615EEENSM_I11MulawSampleLm18446744073709551615EEENSM_I10AlawSampleLm18446744073709551615EEENSM_I8IMA4DataLm18446744073709551615EEENSM_I11MSADPCMDataLm18446744073709551615EEEEEEEEEDcT_DpT0_', symObjAddr: 0x8068, symBinAddr: 0xE630, symSize: 0xC }
  - { offset: 0xBF9CB, size: 0x8, addend: 0x0, symName: '__ZNSt3__116__variant_detail12__visitation6__base12__dispatcherIJLm3EEE10__dispatchB8fe200100IONS1_9__variant15__value_visitorIZN12_GLOBAL__N_119alBufferSubDataSOFTEN3gsl8not_nullIPN2al7ContextEEEjiPKviiE3$_0EEJRNS0_6__baseILNS0_6_TraitE0EJNS_4spanIhLm18446744073709551615EEENSM_IsLm18446744073709551615EEENSM_IiLm18446744073709551615EEENSM_IfLm18446744073709551615EEENSM_IdLm18446744073709551615EEENSM_I11MulawSampleLm18446744073709551615EEENSM_I10AlawSampleLm18446744073709551615EEENSM_I8IMA4DataLm18446744073709551615EEENSM_I11MSADPCMDataLm18446744073709551615EEEEEEEEEDcT_DpT0_', symObjAddr: 0x8068, symBinAddr: 0xE630, symSize: 0xC }
  - { offset: 0xBF9E6, size: 0x8, addend: 0x0, symName: '__ZNSt3__116__variant_detail12__visitation6__base12__dispatcherIJLm3EEE10__dispatchB8fe200100IONS1_9__variant15__value_visitorIZN12_GLOBAL__N_119alBufferSubDataSOFTEN3gsl8not_nullIPN2al7ContextEEEjiPKviiE3$_0EEJRNS0_6__baseILNS0_6_TraitE0EJNS_4spanIhLm18446744073709551615EEENSM_IsLm18446744073709551615EEENSM_IiLm18446744073709551615EEENSM_IfLm18446744073709551615EEENSM_IdLm18446744073709551615EEENSM_I11MulawSampleLm18446744073709551615EEENSM_I10AlawSampleLm18446744073709551615EEENSM_I8IMA4DataLm18446744073709551615EEENSM_I11MSADPCMDataLm18446744073709551615EEEEEEEEEDcT_DpT0_', symObjAddr: 0x8068, symBinAddr: 0xE630, symSize: 0xC }
  - { offset: 0xBFA02, size: 0x8, addend: 0x0, symName: '__ZNSt3__116__variant_detail12__visitation6__base12__dispatcherIJLm3EEE10__dispatchB8fe200100IONS1_9__variant15__value_visitorIZN12_GLOBAL__N_119alBufferSubDataSOFTEN3gsl8not_nullIPN2al7ContextEEEjiPKviiE3$_0EEJRNS0_6__baseILNS0_6_TraitE0EJNS_4spanIhLm18446744073709551615EEENSM_IsLm18446744073709551615EEENSM_IiLm18446744073709551615EEENSM_IfLm18446744073709551615EEENSM_IdLm18446744073709551615EEENSM_I11MulawSampleLm18446744073709551615EEENSM_I10AlawSampleLm18446744073709551615EEENSM_I8IMA4DataLm18446744073709551615EEENSM_I11MSADPCMDataLm18446744073709551615EEEEEEEEEDcT_DpT0_', symObjAddr: 0x8068, symBinAddr: 0xE630, symSize: 0xC }
  - { offset: 0xBFADB, size: 0x8, addend: 0x0, symName: '__ZNSt3__116__variant_detail12__visitation6__base12__dispatcherIJLm4EEE10__dispatchB8fe200100IONS1_9__variant15__value_visitorIZN12_GLOBAL__N_119alBufferSubDataSOFTEN3gsl8not_nullIPN2al7ContextEEEjiPKviiE3$_0EEJRNS0_6__baseILNS0_6_TraitE0EJNS_4spanIhLm18446744073709551615EEENSM_IsLm18446744073709551615EEENSM_IiLm18446744073709551615EEENSM_IfLm18446744073709551615EEENSM_IdLm18446744073709551615EEENSM_I11MulawSampleLm18446744073709551615EEENSM_I10AlawSampleLm18446744073709551615EEENSM_I8IMA4DataLm18446744073709551615EEENSM_I11MSADPCMDataLm18446744073709551615EEEEEEEEEDcT_DpT0_', symObjAddr: 0x8074, symBinAddr: 0xE63C, symSize: 0xC }
  - { offset: 0xBFB0F, size: 0x8, addend: 0x0, symName: '__ZNSt3__116__variant_detail12__visitation6__base12__dispatcherIJLm4EEE10__dispatchB8fe200100IONS1_9__variant15__value_visitorIZN12_GLOBAL__N_119alBufferSubDataSOFTEN3gsl8not_nullIPN2al7ContextEEEjiPKviiE3$_0EEJRNS0_6__baseILNS0_6_TraitE0EJNS_4spanIhLm18446744073709551615EEENSM_IsLm18446744073709551615EEENSM_IiLm18446744073709551615EEENSM_IfLm18446744073709551615EEENSM_IdLm18446744073709551615EEENSM_I11MulawSampleLm18446744073709551615EEENSM_I10AlawSampleLm18446744073709551615EEENSM_I8IMA4DataLm18446744073709551615EEENSM_I11MSADPCMDataLm18446744073709551615EEEEEEEEEDcT_DpT0_', symObjAddr: 0x8074, symBinAddr: 0xE63C, symSize: 0xC }
  - { offset: 0xBFB2B, size: 0x8, addend: 0x0, symName: '__ZNSt3__116__variant_detail12__visitation6__base12__dispatcherIJLm4EEE10__dispatchB8fe200100IONS1_9__variant15__value_visitorIZN12_GLOBAL__N_119alBufferSubDataSOFTEN3gsl8not_nullIPN2al7ContextEEEjiPKviiE3$_0EEJRNS0_6__baseILNS0_6_TraitE0EJNS_4spanIhLm18446744073709551615EEENSM_IsLm18446744073709551615EEENSM_IiLm18446744073709551615EEENSM_IfLm18446744073709551615EEENSM_IdLm18446744073709551615EEENSM_I11MulawSampleLm18446744073709551615EEENSM_I10AlawSampleLm18446744073709551615EEENSM_I8IMA4DataLm18446744073709551615EEENSM_I11MSADPCMDataLm18446744073709551615EEEEEEEEEDcT_DpT0_', symObjAddr: 0x8074, symBinAddr: 0xE63C, symSize: 0xC }
  - { offset: 0xBFB46, size: 0x8, addend: 0x0, symName: '__ZNSt3__116__variant_detail12__visitation6__base12__dispatcherIJLm4EEE10__dispatchB8fe200100IONS1_9__variant15__value_visitorIZN12_GLOBAL__N_119alBufferSubDataSOFTEN3gsl8not_nullIPN2al7ContextEEEjiPKviiE3$_0EEJRNS0_6__baseILNS0_6_TraitE0EJNS_4spanIhLm18446744073709551615EEENSM_IsLm18446744073709551615EEENSM_IiLm18446744073709551615EEENSM_IfLm18446744073709551615EEENSM_IdLm18446744073709551615EEENSM_I11MulawSampleLm18446744073709551615EEENSM_I10AlawSampleLm18446744073709551615EEENSM_I8IMA4DataLm18446744073709551615EEENSM_I11MSADPCMDataLm18446744073709551615EEEEEEEEEDcT_DpT0_', symObjAddr: 0x8074, symBinAddr: 0xE63C, symSize: 0xC }
  - { offset: 0xBFB62, size: 0x8, addend: 0x0, symName: '__ZNSt3__116__variant_detail12__visitation6__base12__dispatcherIJLm4EEE10__dispatchB8fe200100IONS1_9__variant15__value_visitorIZN12_GLOBAL__N_119alBufferSubDataSOFTEN3gsl8not_nullIPN2al7ContextEEEjiPKviiE3$_0EEJRNS0_6__baseILNS0_6_TraitE0EJNS_4spanIhLm18446744073709551615EEENSM_IsLm18446744073709551615EEENSM_IiLm18446744073709551615EEENSM_IfLm18446744073709551615EEENSM_IdLm18446744073709551615EEENSM_I11MulawSampleLm18446744073709551615EEENSM_I10AlawSampleLm18446744073709551615EEENSM_I8IMA4DataLm18446744073709551615EEENSM_I11MSADPCMDataLm18446744073709551615EEEEEEEEEDcT_DpT0_', symObjAddr: 0x8074, symBinAddr: 0xE63C, symSize: 0xC }
  - { offset: 0xBFC3B, size: 0x8, addend: 0x0, symName: '__ZNSt3__116__variant_detail12__visitation6__base12__dispatcherIJLm5EEE10__dispatchB8fe200100IONS1_9__variant15__value_visitorIZN12_GLOBAL__N_119alBufferSubDataSOFTEN3gsl8not_nullIPN2al7ContextEEEjiPKviiE3$_0EEJRNS0_6__baseILNS0_6_TraitE0EJNS_4spanIhLm18446744073709551615EEENSM_IsLm18446744073709551615EEENSM_IiLm18446744073709551615EEENSM_IfLm18446744073709551615EEENSM_IdLm18446744073709551615EEENSM_I11MulawSampleLm18446744073709551615EEENSM_I10AlawSampleLm18446744073709551615EEENSM_I8IMA4DataLm18446744073709551615EEENSM_I11MSADPCMDataLm18446744073709551615EEEEEEEEEDcT_DpT0_', symObjAddr: 0x8080, symBinAddr: 0xE648, symSize: 0x8 }
  - { offset: 0xBFC6F, size: 0x8, addend: 0x0, symName: '__ZNSt3__116__variant_detail12__visitation6__base12__dispatcherIJLm5EEE10__dispatchB8fe200100IONS1_9__variant15__value_visitorIZN12_GLOBAL__N_119alBufferSubDataSOFTEN3gsl8not_nullIPN2al7ContextEEEjiPKviiE3$_0EEJRNS0_6__baseILNS0_6_TraitE0EJNS_4spanIhLm18446744073709551615EEENSM_IsLm18446744073709551615EEENSM_IiLm18446744073709551615EEENSM_IfLm18446744073709551615EEENSM_IdLm18446744073709551615EEENSM_I11MulawSampleLm18446744073709551615EEENSM_I10AlawSampleLm18446744073709551615EEENSM_I8IMA4DataLm18446744073709551615EEENSM_I11MSADPCMDataLm18446744073709551615EEEEEEEEEDcT_DpT0_', symObjAddr: 0x8080, symBinAddr: 0xE648, symSize: 0x8 }
  - { offset: 0xBFC8B, size: 0x8, addend: 0x0, symName: '__ZNSt3__116__variant_detail12__visitation6__base12__dispatcherIJLm5EEE10__dispatchB8fe200100IONS1_9__variant15__value_visitorIZN12_GLOBAL__N_119alBufferSubDataSOFTEN3gsl8not_nullIPN2al7ContextEEEjiPKviiE3$_0EEJRNS0_6__baseILNS0_6_TraitE0EJNS_4spanIhLm18446744073709551615EEENSM_IsLm18446744073709551615EEENSM_IiLm18446744073709551615EEENSM_IfLm18446744073709551615EEENSM_IdLm18446744073709551615EEENSM_I11MulawSampleLm18446744073709551615EEENSM_I10AlawSampleLm18446744073709551615EEENSM_I8IMA4DataLm18446744073709551615EEENSM_I11MSADPCMDataLm18446744073709551615EEEEEEEEEDcT_DpT0_', symObjAddr: 0x8080, symBinAddr: 0xE648, symSize: 0x8 }
  - { offset: 0xBFCA6, size: 0x8, addend: 0x0, symName: '__ZNSt3__116__variant_detail12__visitation6__base12__dispatcherIJLm5EEE10__dispatchB8fe200100IONS1_9__variant15__value_visitorIZN12_GLOBAL__N_119alBufferSubDataSOFTEN3gsl8not_nullIPN2al7ContextEEEjiPKviiE3$_0EEJRNS0_6__baseILNS0_6_TraitE0EJNS_4spanIhLm18446744073709551615EEENSM_IsLm18446744073709551615EEENSM_IiLm18446744073709551615EEENSM_IfLm18446744073709551615EEENSM_IdLm18446744073709551615EEENSM_I11MulawSampleLm18446744073709551615EEENSM_I10AlawSampleLm18446744073709551615EEENSM_I8IMA4DataLm18446744073709551615EEENSM_I11MSADPCMDataLm18446744073709551615EEEEEEEEEDcT_DpT0_', symObjAddr: 0x8080, symBinAddr: 0xE648, symSize: 0x8 }
  - { offset: 0xBFCC2, size: 0x8, addend: 0x0, symName: '__ZNSt3__116__variant_detail12__visitation6__base12__dispatcherIJLm5EEE10__dispatchB8fe200100IONS1_9__variant15__value_visitorIZN12_GLOBAL__N_119alBufferSubDataSOFTEN3gsl8not_nullIPN2al7ContextEEEjiPKviiE3$_0EEJRNS0_6__baseILNS0_6_TraitE0EJNS_4spanIhLm18446744073709551615EEENSM_IsLm18446744073709551615EEENSM_IiLm18446744073709551615EEENSM_IfLm18446744073709551615EEENSM_IdLm18446744073709551615EEENSM_I11MulawSampleLm18446744073709551615EEENSM_I10AlawSampleLm18446744073709551615EEENSM_I8IMA4DataLm18446744073709551615EEENSM_I11MSADPCMDataLm18446744073709551615EEEEEEEEEDcT_DpT0_', symObjAddr: 0x8080, symBinAddr: 0xE648, symSize: 0x8 }
  - { offset: 0xBFD51, size: 0x8, addend: 0x0, symName: '__ZNSt3__116__variant_detail12__visitation6__base12__dispatcherIJLm6EEE10__dispatchB8fe200100IONS1_9__variant15__value_visitorIZN12_GLOBAL__N_119alBufferSubDataSOFTEN3gsl8not_nullIPN2al7ContextEEEjiPKviiE3$_0EEJRNS0_6__baseILNS0_6_TraitE0EJNS_4spanIhLm18446744073709551615EEENSM_IsLm18446744073709551615EEENSM_IiLm18446744073709551615EEENSM_IfLm18446744073709551615EEENSM_IdLm18446744073709551615EEENSM_I11MulawSampleLm18446744073709551615EEENSM_I10AlawSampleLm18446744073709551615EEENSM_I8IMA4DataLm18446744073709551615EEENSM_I11MSADPCMDataLm18446744073709551615EEEEEEEEEDcT_DpT0_', symObjAddr: 0x8088, symBinAddr: 0xE650, symSize: 0x8 }
  - { offset: 0xBFD85, size: 0x8, addend: 0x0, symName: '__ZNSt3__116__variant_detail12__visitation6__base12__dispatcherIJLm6EEE10__dispatchB8fe200100IONS1_9__variant15__value_visitorIZN12_GLOBAL__N_119alBufferSubDataSOFTEN3gsl8not_nullIPN2al7ContextEEEjiPKviiE3$_0EEJRNS0_6__baseILNS0_6_TraitE0EJNS_4spanIhLm18446744073709551615EEENSM_IsLm18446744073709551615EEENSM_IiLm18446744073709551615EEENSM_IfLm18446744073709551615EEENSM_IdLm18446744073709551615EEENSM_I11MulawSampleLm18446744073709551615EEENSM_I10AlawSampleLm18446744073709551615EEENSM_I8IMA4DataLm18446744073709551615EEENSM_I11MSADPCMDataLm18446744073709551615EEEEEEEEEDcT_DpT0_', symObjAddr: 0x8088, symBinAddr: 0xE650, symSize: 0x8 }
  - { offset: 0xBFDA1, size: 0x8, addend: 0x0, symName: '__ZNSt3__116__variant_detail12__visitation6__base12__dispatcherIJLm6EEE10__dispatchB8fe200100IONS1_9__variant15__value_visitorIZN12_GLOBAL__N_119alBufferSubDataSOFTEN3gsl8not_nullIPN2al7ContextEEEjiPKviiE3$_0EEJRNS0_6__baseILNS0_6_TraitE0EJNS_4spanIhLm18446744073709551615EEENSM_IsLm18446744073709551615EEENSM_IiLm18446744073709551615EEENSM_IfLm18446744073709551615EEENSM_IdLm18446744073709551615EEENSM_I11MulawSampleLm18446744073709551615EEENSM_I10AlawSampleLm18446744073709551615EEENSM_I8IMA4DataLm18446744073709551615EEENSM_I11MSADPCMDataLm18446744073709551615EEEEEEEEEDcT_DpT0_', symObjAddr: 0x8088, symBinAddr: 0xE650, symSize: 0x8 }
  - { offset: 0xBFDBC, size: 0x8, addend: 0x0, symName: '__ZNSt3__116__variant_detail12__visitation6__base12__dispatcherIJLm6EEE10__dispatchB8fe200100IONS1_9__variant15__value_visitorIZN12_GLOBAL__N_119alBufferSubDataSOFTEN3gsl8not_nullIPN2al7ContextEEEjiPKviiE3$_0EEJRNS0_6__baseILNS0_6_TraitE0EJNS_4spanIhLm18446744073709551615EEENSM_IsLm18446744073709551615EEENSM_IiLm18446744073709551615EEENSM_IfLm18446744073709551615EEENSM_IdLm18446744073709551615EEENSM_I11MulawSampleLm18446744073709551615EEENSM_I10AlawSampleLm18446744073709551615EEENSM_I8IMA4DataLm18446744073709551615EEENSM_I11MSADPCMDataLm18446744073709551615EEEEEEEEEDcT_DpT0_', symObjAddr: 0x8088, symBinAddr: 0xE650, symSize: 0x8 }
  - { offset: 0xBFDD8, size: 0x8, addend: 0x0, symName: '__ZNSt3__116__variant_detail12__visitation6__base12__dispatcherIJLm6EEE10__dispatchB8fe200100IONS1_9__variant15__value_visitorIZN12_GLOBAL__N_119alBufferSubDataSOFTEN3gsl8not_nullIPN2al7ContextEEEjiPKviiE3$_0EEJRNS0_6__baseILNS0_6_TraitE0EJNS_4spanIhLm18446744073709551615EEENSM_IsLm18446744073709551615EEENSM_IiLm18446744073709551615EEENSM_IfLm18446744073709551615EEENSM_IdLm18446744073709551615EEENSM_I11MulawSampleLm18446744073709551615EEENSM_I10AlawSampleLm18446744073709551615EEENSM_I8IMA4DataLm18446744073709551615EEENSM_I11MSADPCMDataLm18446744073709551615EEEEEEEEEDcT_DpT0_', symObjAddr: 0x8088, symBinAddr: 0xE650, symSize: 0x8 }
  - { offset: 0xBFE67, size: 0x8, addend: 0x0, symName: '__ZNSt3__116__variant_detail12__visitation6__base12__dispatcherIJLm7EEE10__dispatchB8fe200100IONS1_9__variant15__value_visitorIZN12_GLOBAL__N_119alBufferSubDataSOFTEN3gsl8not_nullIPN2al7ContextEEEjiPKviiE3$_0EEJRNS0_6__baseILNS0_6_TraitE0EJNS_4spanIhLm18446744073709551615EEENSM_IsLm18446744073709551615EEENSM_IiLm18446744073709551615EEENSM_IfLm18446744073709551615EEENSM_IdLm18446744073709551615EEENSM_I11MulawSampleLm18446744073709551615EEENSM_I10AlawSampleLm18446744073709551615EEENSM_I8IMA4DataLm18446744073709551615EEENSM_I11MSADPCMDataLm18446744073709551615EEEEEEEEEDcT_DpT0_', symObjAddr: 0x8090, symBinAddr: 0xE658, symSize: 0x8 }
  - { offset: 0xBFE9B, size: 0x8, addend: 0x0, symName: '__ZNSt3__116__variant_detail12__visitation6__base12__dispatcherIJLm7EEE10__dispatchB8fe200100IONS1_9__variant15__value_visitorIZN12_GLOBAL__N_119alBufferSubDataSOFTEN3gsl8not_nullIPN2al7ContextEEEjiPKviiE3$_0EEJRNS0_6__baseILNS0_6_TraitE0EJNS_4spanIhLm18446744073709551615EEENSM_IsLm18446744073709551615EEENSM_IiLm18446744073709551615EEENSM_IfLm18446744073709551615EEENSM_IdLm18446744073709551615EEENSM_I11MulawSampleLm18446744073709551615EEENSM_I10AlawSampleLm18446744073709551615EEENSM_I8IMA4DataLm18446744073709551615EEENSM_I11MSADPCMDataLm18446744073709551615EEEEEEEEEDcT_DpT0_', symObjAddr: 0x8090, symBinAddr: 0xE658, symSize: 0x8 }
  - { offset: 0xBFEB7, size: 0x8, addend: 0x0, symName: '__ZNSt3__116__variant_detail12__visitation6__base12__dispatcherIJLm7EEE10__dispatchB8fe200100IONS1_9__variant15__value_visitorIZN12_GLOBAL__N_119alBufferSubDataSOFTEN3gsl8not_nullIPN2al7ContextEEEjiPKviiE3$_0EEJRNS0_6__baseILNS0_6_TraitE0EJNS_4spanIhLm18446744073709551615EEENSM_IsLm18446744073709551615EEENSM_IiLm18446744073709551615EEENSM_IfLm18446744073709551615EEENSM_IdLm18446744073709551615EEENSM_I11MulawSampleLm18446744073709551615EEENSM_I10AlawSampleLm18446744073709551615EEENSM_I8IMA4DataLm18446744073709551615EEENSM_I11MSADPCMDataLm18446744073709551615EEEEEEEEEDcT_DpT0_', symObjAddr: 0x8090, symBinAddr: 0xE658, symSize: 0x8 }
  - { offset: 0xBFED2, size: 0x8, addend: 0x0, symName: '__ZNSt3__116__variant_detail12__visitation6__base12__dispatcherIJLm7EEE10__dispatchB8fe200100IONS1_9__variant15__value_visitorIZN12_GLOBAL__N_119alBufferSubDataSOFTEN3gsl8not_nullIPN2al7ContextEEEjiPKviiE3$_0EEJRNS0_6__baseILNS0_6_TraitE0EJNS_4spanIhLm18446744073709551615EEENSM_IsLm18446744073709551615EEENSM_IiLm18446744073709551615EEENSM_IfLm18446744073709551615EEENSM_IdLm18446744073709551615EEENSM_I11MulawSampleLm18446744073709551615EEENSM_I10AlawSampleLm18446744073709551615EEENSM_I8IMA4DataLm18446744073709551615EEENSM_I11MSADPCMDataLm18446744073709551615EEEEEEEEEDcT_DpT0_', symObjAddr: 0x8090, symBinAddr: 0xE658, symSize: 0x8 }
  - { offset: 0xBFEEE, size: 0x8, addend: 0x0, symName: '__ZNSt3__116__variant_detail12__visitation6__base12__dispatcherIJLm7EEE10__dispatchB8fe200100IONS1_9__variant15__value_visitorIZN12_GLOBAL__N_119alBufferSubDataSOFTEN3gsl8not_nullIPN2al7ContextEEEjiPKviiE3$_0EEJRNS0_6__baseILNS0_6_TraitE0EJNS_4spanIhLm18446744073709551615EEENSM_IsLm18446744073709551615EEENSM_IiLm18446744073709551615EEENSM_IfLm18446744073709551615EEENSM_IdLm18446744073709551615EEENSM_I11MulawSampleLm18446744073709551615EEENSM_I10AlawSampleLm18446744073709551615EEENSM_I8IMA4DataLm18446744073709551615EEENSM_I11MSADPCMDataLm18446744073709551615EEEEEEEEEDcT_DpT0_', symObjAddr: 0x8090, symBinAddr: 0xE658, symSize: 0x8 }
  - { offset: 0xBFF7D, size: 0x8, addend: 0x0, symName: '__ZNSt3__116__variant_detail12__visitation6__base12__dispatcherIJLm8EEE10__dispatchB8fe200100IONS1_9__variant15__value_visitorIZN12_GLOBAL__N_119alBufferSubDataSOFTEN3gsl8not_nullIPN2al7ContextEEEjiPKviiE3$_0EEJRNS0_6__baseILNS0_6_TraitE0EJNS_4spanIhLm18446744073709551615EEENSM_IsLm18446744073709551615EEENSM_IiLm18446744073709551615EEENSM_IfLm18446744073709551615EEENSM_IdLm18446744073709551615EEENSM_I11MulawSampleLm18446744073709551615EEENSM_I10AlawSampleLm18446744073709551615EEENSM_I8IMA4DataLm18446744073709551615EEENSM_I11MSADPCMDataLm18446744073709551615EEEEEEEEEDcT_DpT0_', symObjAddr: 0x8098, symBinAddr: 0xE660, symSize: 0x8 }
  - { offset: 0xBFFB1, size: 0x8, addend: 0x0, symName: '__ZNSt3__116__variant_detail12__visitation6__base12__dispatcherIJLm8EEE10__dispatchB8fe200100IONS1_9__variant15__value_visitorIZN12_GLOBAL__N_119alBufferSubDataSOFTEN3gsl8not_nullIPN2al7ContextEEEjiPKviiE3$_0EEJRNS0_6__baseILNS0_6_TraitE0EJNS_4spanIhLm18446744073709551615EEENSM_IsLm18446744073709551615EEENSM_IiLm18446744073709551615EEENSM_IfLm18446744073709551615EEENSM_IdLm18446744073709551615EEENSM_I11MulawSampleLm18446744073709551615EEENSM_I10AlawSampleLm18446744073709551615EEENSM_I8IMA4DataLm18446744073709551615EEENSM_I11MSADPCMDataLm18446744073709551615EEEEEEEEEDcT_DpT0_', symObjAddr: 0x8098, symBinAddr: 0xE660, symSize: 0x8 }
  - { offset: 0xBFFCD, size: 0x8, addend: 0x0, symName: '__ZNSt3__116__variant_detail12__visitation6__base12__dispatcherIJLm8EEE10__dispatchB8fe200100IONS1_9__variant15__value_visitorIZN12_GLOBAL__N_119alBufferSubDataSOFTEN3gsl8not_nullIPN2al7ContextEEEjiPKviiE3$_0EEJRNS0_6__baseILNS0_6_TraitE0EJNS_4spanIhLm18446744073709551615EEENSM_IsLm18446744073709551615EEENSM_IiLm18446744073709551615EEENSM_IfLm18446744073709551615EEENSM_IdLm18446744073709551615EEENSM_I11MulawSampleLm18446744073709551615EEENSM_I10AlawSampleLm18446744073709551615EEENSM_I8IMA4DataLm18446744073709551615EEENSM_I11MSADPCMDataLm18446744073709551615EEEEEEEEEDcT_DpT0_', symObjAddr: 0x8098, symBinAddr: 0xE660, symSize: 0x8 }
  - { offset: 0xBFFE8, size: 0x8, addend: 0x0, symName: '__ZNSt3__116__variant_detail12__visitation6__base12__dispatcherIJLm8EEE10__dispatchB8fe200100IONS1_9__variant15__value_visitorIZN12_GLOBAL__N_119alBufferSubDataSOFTEN3gsl8not_nullIPN2al7ContextEEEjiPKviiE3$_0EEJRNS0_6__baseILNS0_6_TraitE0EJNS_4spanIhLm18446744073709551615EEENSM_IsLm18446744073709551615EEENSM_IiLm18446744073709551615EEENSM_IfLm18446744073709551615EEENSM_IdLm18446744073709551615EEENSM_I11MulawSampleLm18446744073709551615EEENSM_I10AlawSampleLm18446744073709551615EEENSM_I8IMA4DataLm18446744073709551615EEENSM_I11MSADPCMDataLm18446744073709551615EEEEEEEEEDcT_DpT0_', symObjAddr: 0x8098, symBinAddr: 0xE660, symSize: 0x8 }
  - { offset: 0xC0004, size: 0x8, addend: 0x0, symName: '__ZNSt3__116__variant_detail12__visitation6__base12__dispatcherIJLm8EEE10__dispatchB8fe200100IONS1_9__variant15__value_visitorIZN12_GLOBAL__N_119alBufferSubDataSOFTEN3gsl8not_nullIPN2al7ContextEEEjiPKviiE3$_0EEJRNS0_6__baseILNS0_6_TraitE0EJNS_4spanIhLm18446744073709551615EEENSM_IsLm18446744073709551615EEENSM_IiLm18446744073709551615EEENSM_IfLm18446744073709551615EEENSM_IdLm18446744073709551615EEENSM_I11MulawSampleLm18446744073709551615EEENSM_I10AlawSampleLm18446744073709551615EEENSM_I8IMA4DataLm18446744073709551615EEENSM_I11MSADPCMDataLm18446744073709551615EEEEEEEEEDcT_DpT0_', symObjAddr: 0x8098, symBinAddr: 0xE660, symSize: 0x8 }
  - { offset: 0xC00E1, size: 0x8, addend: 0x0, symName: '__ZNSt3__116__variant_detail12__visitation6__base12__dispatcherIJLm0EEE10__dispatchB8fe200100IONS1_9__variant15__value_visitorIZN12_GLOBAL__N_115alMapBufferSOFTEN3gsl8not_nullIPN2al7ContextEEEjiijE3$_0EEJRNS0_6__baseILNS0_6_TraitE0EJNS_4spanIhLm18446744073709551615EEENSK_IsLm18446744073709551615EEENSK_IiLm18446744073709551615EEENSK_IfLm18446744073709551615EEENSK_IdLm18446744073709551615EEENSK_I11MulawSampleLm18446744073709551615EEENSK_I10AlawSampleLm18446744073709551615EEENSK_I8IMA4DataLm18446744073709551615EEENSK_I11MSADPCMDataLm18446744073709551615EEEEEEEEEDcT_DpT0_', symObjAddr: 0x80A0, symBinAddr: 0xE668, symSize: 0x24 }
  - { offset: 0xC0227, size: 0x8, addend: 0x0, symName: '__ZNSt3__116__variant_detail12__visitation6__base12__dispatcherIJLm1EEE10__dispatchB8fe200100IONS1_9__variant15__value_visitorIZN12_GLOBAL__N_115alMapBufferSOFTEN3gsl8not_nullIPN2al7ContextEEEjiijE3$_0EEJRNS0_6__baseILNS0_6_TraitE0EJNS_4spanIhLm18446744073709551615EEENSK_IsLm18446744073709551615EEENSK_IiLm18446744073709551615EEENSK_IfLm18446744073709551615EEENSK_IdLm18446744073709551615EEENSK_I11MulawSampleLm18446744073709551615EEENSK_I10AlawSampleLm18446744073709551615EEENSK_I8IMA4DataLm18446744073709551615EEENSK_I11MSADPCMDataLm18446744073709551615EEEEEEEEEDcT_DpT0_', symObjAddr: 0x80C4, symBinAddr: 0xE68C, symSize: 0x24 }
  - { offset: 0xC036D, size: 0x8, addend: 0x0, symName: '__ZNSt3__116__variant_detail12__visitation6__base12__dispatcherIJLm2EEE10__dispatchB8fe200100IONS1_9__variant15__value_visitorIZN12_GLOBAL__N_115alMapBufferSOFTEN3gsl8not_nullIPN2al7ContextEEEjiijE3$_0EEJRNS0_6__baseILNS0_6_TraitE0EJNS_4spanIhLm18446744073709551615EEENSK_IsLm18446744073709551615EEENSK_IiLm18446744073709551615EEENSK_IfLm18446744073709551615EEENSK_IdLm18446744073709551615EEENSK_I11MulawSampleLm18446744073709551615EEENSK_I10AlawSampleLm18446744073709551615EEENSK_I8IMA4DataLm18446744073709551615EEENSK_I11MSADPCMDataLm18446744073709551615EEEEEEEEEDcT_DpT0_', symObjAddr: 0x80E8, symBinAddr: 0xE6B0, symSize: 0x24 }
  - { offset: 0xC04B3, size: 0x8, addend: 0x0, symName: '__ZNSt3__116__variant_detail12__visitation6__base12__dispatcherIJLm3EEE10__dispatchB8fe200100IONS1_9__variant15__value_visitorIZN12_GLOBAL__N_115alMapBufferSOFTEN3gsl8not_nullIPN2al7ContextEEEjiijE3$_0EEJRNS0_6__baseILNS0_6_TraitE0EJNS_4spanIhLm18446744073709551615EEENSK_IsLm18446744073709551615EEENSK_IiLm18446744073709551615EEENSK_IfLm18446744073709551615EEENSK_IdLm18446744073709551615EEENSK_I11MulawSampleLm18446744073709551615EEENSK_I10AlawSampleLm18446744073709551615EEENSK_I8IMA4DataLm18446744073709551615EEENSK_I11MSADPCMDataLm18446744073709551615EEEEEEEEEDcT_DpT0_', symObjAddr: 0x810C, symBinAddr: 0xE6D4, symSize: 0x24 }
  - { offset: 0xC05F9, size: 0x8, addend: 0x0, symName: '__ZNSt3__116__variant_detail12__visitation6__base12__dispatcherIJLm4EEE10__dispatchB8fe200100IONS1_9__variant15__value_visitorIZN12_GLOBAL__N_115alMapBufferSOFTEN3gsl8not_nullIPN2al7ContextEEEjiijE3$_0EEJRNS0_6__baseILNS0_6_TraitE0EJNS_4spanIhLm18446744073709551615EEENSK_IsLm18446744073709551615EEENSK_IiLm18446744073709551615EEENSK_IfLm18446744073709551615EEENSK_IdLm18446744073709551615EEENSK_I11MulawSampleLm18446744073709551615EEENSK_I10AlawSampleLm18446744073709551615EEENSK_I8IMA4DataLm18446744073709551615EEENSK_I11MSADPCMDataLm18446744073709551615EEEEEEEEEDcT_DpT0_', symObjAddr: 0x8130, symBinAddr: 0xE6F8, symSize: 0x24 }
  - { offset: 0xC073F, size: 0x8, addend: 0x0, symName: '__ZNSt3__116__variant_detail12__visitation6__base12__dispatcherIJLm5EEE10__dispatchB8fe200100IONS1_9__variant15__value_visitorIZN12_GLOBAL__N_115alMapBufferSOFTEN3gsl8not_nullIPN2al7ContextEEEjiijE3$_0EEJRNS0_6__baseILNS0_6_TraitE0EJNS_4spanIhLm18446744073709551615EEENSK_IsLm18446744073709551615EEENSK_IiLm18446744073709551615EEENSK_IfLm18446744073709551615EEENSK_IdLm18446744073709551615EEENSK_I11MulawSampleLm18446744073709551615EEENSK_I10AlawSampleLm18446744073709551615EEENSK_I8IMA4DataLm18446744073709551615EEENSK_I11MSADPCMDataLm18446744073709551615EEEEEEEEEDcT_DpT0_', symObjAddr: 0x8154, symBinAddr: 0xE71C, symSize: 0x24 }
  - { offset: 0xC0885, size: 0x8, addend: 0x0, symName: '__ZNSt3__116__variant_detail12__visitation6__base12__dispatcherIJLm6EEE10__dispatchB8fe200100IONS1_9__variant15__value_visitorIZN12_GLOBAL__N_115alMapBufferSOFTEN3gsl8not_nullIPN2al7ContextEEEjiijE3$_0EEJRNS0_6__baseILNS0_6_TraitE0EJNS_4spanIhLm18446744073709551615EEENSK_IsLm18446744073709551615EEENSK_IiLm18446744073709551615EEENSK_IfLm18446744073709551615EEENSK_IdLm18446744073709551615EEENSK_I11MulawSampleLm18446744073709551615EEENSK_I10AlawSampleLm18446744073709551615EEENSK_I8IMA4DataLm18446744073709551615EEENSK_I11MSADPCMDataLm18446744073709551615EEEEEEEEEDcT_DpT0_', symObjAddr: 0x8178, symBinAddr: 0xE740, symSize: 0x24 }
  - { offset: 0xC09CB, size: 0x8, addend: 0x0, symName: '__ZNSt3__116__variant_detail12__visitation6__base12__dispatcherIJLm7EEE10__dispatchB8fe200100IONS1_9__variant15__value_visitorIZN12_GLOBAL__N_115alMapBufferSOFTEN3gsl8not_nullIPN2al7ContextEEEjiijE3$_0EEJRNS0_6__baseILNS0_6_TraitE0EJNS_4spanIhLm18446744073709551615EEENSK_IsLm18446744073709551615EEENSK_IiLm18446744073709551615EEENSK_IfLm18446744073709551615EEENSK_IdLm18446744073709551615EEENSK_I11MulawSampleLm18446744073709551615EEENSK_I10AlawSampleLm18446744073709551615EEENSK_I8IMA4DataLm18446744073709551615EEENSK_I11MSADPCMDataLm18446744073709551615EEEEEEEEEDcT_DpT0_', symObjAddr: 0x819C, symBinAddr: 0xE764, symSize: 0x24 }
  - { offset: 0xC0B11, size: 0x8, addend: 0x0, symName: '__ZNSt3__116__variant_detail12__visitation6__base12__dispatcherIJLm8EEE10__dispatchB8fe200100IONS1_9__variant15__value_visitorIZN12_GLOBAL__N_115alMapBufferSOFTEN3gsl8not_nullIPN2al7ContextEEEjiijE3$_0EEJRNS0_6__baseILNS0_6_TraitE0EJNS_4spanIhLm18446744073709551615EEENSK_IsLm18446744073709551615EEENSK_IiLm18446744073709551615EEENSK_IfLm18446744073709551615EEENSK_IdLm18446744073709551615EEENSK_I11MulawSampleLm18446744073709551615EEENSK_I10AlawSampleLm18446744073709551615EEENSK_I8IMA4DataLm18446744073709551615EEENSK_I11MSADPCMDataLm18446744073709551615EEEEEEEEEDcT_DpT0_', symObjAddr: 0x81C0, symBinAddr: 0xE788, symSize: 0x24 }
  - { offset: 0xC0CAD, size: 0x8, addend: 0x0, symName: '__ZNSt3__116__variant_detail12__visitation6__base12__dispatcherIJLm0EEE10__dispatchB8fe200100IONS1_9__variant15__value_visitorIZN12_GLOBAL__N_112alGetBufferiEN3gsl8not_nullIPN2al7ContextEEEjiPiE3$_0EEJRNS0_6__baseILNS0_6_TraitE0EJNS_4spanIhLm18446744073709551615EEENSL_IsLm18446744073709551615EEENSL_IiLm18446744073709551615EEENSL_IfLm18446744073709551615EEENSL_IdLm18446744073709551615EEENSL_I11MulawSampleLm18446744073709551615EEENSL_I10AlawSampleLm18446744073709551615EEENSL_I8IMA4DataLm18446744073709551615EEENSL_I11MSADPCMDataLm18446744073709551615EEEEEEEEEDcT_DpT0_', symObjAddr: 0x8270, symBinAddr: 0xE838, symSize: 0x8 }
  - { offset: 0xC0CE0, size: 0x8, addend: 0x0, symName: '__ZNSt3__116__variant_detail12__visitation6__base12__dispatcherIJLm0EEE10__dispatchB8fe200100IONS1_9__variant15__value_visitorIZN12_GLOBAL__N_112alGetBufferiEN3gsl8not_nullIPN2al7ContextEEEjiPiE3$_0EEJRNS0_6__baseILNS0_6_TraitE0EJNS_4spanIhLm18446744073709551615EEENSL_IsLm18446744073709551615EEENSL_IiLm18446744073709551615EEENSL_IfLm18446744073709551615EEENSL_IdLm18446744073709551615EEENSL_I11MulawSampleLm18446744073709551615EEENSL_I10AlawSampleLm18446744073709551615EEENSL_I8IMA4DataLm18446744073709551615EEENSL_I11MSADPCMDataLm18446744073709551615EEEEEEEEEDcT_DpT0_', symObjAddr: 0x8270, symBinAddr: 0xE838, symSize: 0x8 }
  - { offset: 0xC0CFC, size: 0x8, addend: 0x0, symName: '__ZNSt3__116__variant_detail12__visitation6__base12__dispatcherIJLm0EEE10__dispatchB8fe200100IONS1_9__variant15__value_visitorIZN12_GLOBAL__N_112alGetBufferiEN3gsl8not_nullIPN2al7ContextEEEjiPiE3$_0EEJRNS0_6__baseILNS0_6_TraitE0EJNS_4spanIhLm18446744073709551615EEENSL_IsLm18446744073709551615EEENSL_IiLm18446744073709551615EEENSL_IfLm18446744073709551615EEENSL_IdLm18446744073709551615EEENSL_I11MulawSampleLm18446744073709551615EEENSL_I10AlawSampleLm18446744073709551615EEENSL_I8IMA4DataLm18446744073709551615EEENSL_I11MSADPCMDataLm18446744073709551615EEEEEEEEEDcT_DpT0_', symObjAddr: 0x8270, symBinAddr: 0xE838, symSize: 0x8 }
  - { offset: 0xC0D17, size: 0x8, addend: 0x0, symName: '__ZNSt3__116__variant_detail12__visitation6__base12__dispatcherIJLm0EEE10__dispatchB8fe200100IONS1_9__variant15__value_visitorIZN12_GLOBAL__N_112alGetBufferiEN3gsl8not_nullIPN2al7ContextEEEjiPiE3$_0EEJRNS0_6__baseILNS0_6_TraitE0EJNS_4spanIhLm18446744073709551615EEENSL_IsLm18446744073709551615EEENSL_IiLm18446744073709551615EEENSL_IfLm18446744073709551615EEENSL_IdLm18446744073709551615EEENSL_I11MulawSampleLm18446744073709551615EEENSL_I10AlawSampleLm18446744073709551615EEENSL_I8IMA4DataLm18446744073709551615EEENSL_I11MSADPCMDataLm18446744073709551615EEEEEEEEEDcT_DpT0_', symObjAddr: 0x8270, symBinAddr: 0xE838, symSize: 0x8 }
  - { offset: 0xC0D33, size: 0x8, addend: 0x0, symName: '__ZNSt3__116__variant_detail12__visitation6__base12__dispatcherIJLm0EEE10__dispatchB8fe200100IONS1_9__variant15__value_visitorIZN12_GLOBAL__N_112alGetBufferiEN3gsl8not_nullIPN2al7ContextEEEjiPiE3$_0EEJRNS0_6__baseILNS0_6_TraitE0EJNS_4spanIhLm18446744073709551615EEENSL_IsLm18446744073709551615EEENSL_IiLm18446744073709551615EEENSL_IfLm18446744073709551615EEENSL_IdLm18446744073709551615EEENSL_I11MulawSampleLm18446744073709551615EEENSL_I10AlawSampleLm18446744073709551615EEENSL_I8IMA4DataLm18446744073709551615EEENSL_I11MSADPCMDataLm18446744073709551615EEEEEEEEEDcT_DpT0_', symObjAddr: 0x8270, symBinAddr: 0xE838, symSize: 0x8 }
  - { offset: 0xC0D4E, size: 0x8, addend: 0x0, symName: '__ZNSt3__116__variant_detail12__visitation6__base12__dispatcherIJLm0EEE10__dispatchB8fe200100IONS1_9__variant15__value_visitorIZN12_GLOBAL__N_112alGetBufferiEN3gsl8not_nullIPN2al7ContextEEEjiPiE3$_0EEJRNS0_6__baseILNS0_6_TraitE0EJNS_4spanIhLm18446744073709551615EEENSL_IsLm18446744073709551615EEENSL_IiLm18446744073709551615EEENSL_IfLm18446744073709551615EEENSL_IdLm18446744073709551615EEENSL_I11MulawSampleLm18446744073709551615EEENSL_I10AlawSampleLm18446744073709551615EEENSL_I8IMA4DataLm18446744073709551615EEENSL_I11MSADPCMDataLm18446744073709551615EEEEEEEEEDcT_DpT0_', symObjAddr: 0x8270, symBinAddr: 0xE838, symSize: 0x8 }
  - { offset: 0xC0DDF, size: 0x8, addend: 0x0, symName: '__ZNSt3__116__variant_detail12__visitation6__base12__dispatcherIJLm1EEE10__dispatchB8fe200100IONS1_9__variant15__value_visitorIZN12_GLOBAL__N_112alGetBufferiEN3gsl8not_nullIPN2al7ContextEEEjiPiE3$_0EEJRNS0_6__baseILNS0_6_TraitE0EJNS_4spanIhLm18446744073709551615EEENSL_IsLm18446744073709551615EEENSL_IiLm18446744073709551615EEENSL_IfLm18446744073709551615EEENSL_IdLm18446744073709551615EEENSL_I11MulawSampleLm18446744073709551615EEENSL_I10AlawSampleLm18446744073709551615EEENSL_I8IMA4DataLm18446744073709551615EEENSL_I11MSADPCMDataLm18446744073709551615EEEEEEEEEDcT_DpT0_', symObjAddr: 0x8278, symBinAddr: 0xE840, symSize: 0xC }
  - { offset: 0xC0E12, size: 0x8, addend: 0x0, symName: '__ZNSt3__116__variant_detail12__visitation6__base12__dispatcherIJLm1EEE10__dispatchB8fe200100IONS1_9__variant15__value_visitorIZN12_GLOBAL__N_112alGetBufferiEN3gsl8not_nullIPN2al7ContextEEEjiPiE3$_0EEJRNS0_6__baseILNS0_6_TraitE0EJNS_4spanIhLm18446744073709551615EEENSL_IsLm18446744073709551615EEENSL_IiLm18446744073709551615EEENSL_IfLm18446744073709551615EEENSL_IdLm18446744073709551615EEENSL_I11MulawSampleLm18446744073709551615EEENSL_I10AlawSampleLm18446744073709551615EEENSL_I8IMA4DataLm18446744073709551615EEENSL_I11MSADPCMDataLm18446744073709551615EEEEEEEEEDcT_DpT0_', symObjAddr: 0x8278, symBinAddr: 0xE840, symSize: 0xC }
  - { offset: 0xC0E2E, size: 0x8, addend: 0x0, symName: '__ZNSt3__116__variant_detail12__visitation6__base12__dispatcherIJLm1EEE10__dispatchB8fe200100IONS1_9__variant15__value_visitorIZN12_GLOBAL__N_112alGetBufferiEN3gsl8not_nullIPN2al7ContextEEEjiPiE3$_0EEJRNS0_6__baseILNS0_6_TraitE0EJNS_4spanIhLm18446744073709551615EEENSL_IsLm18446744073709551615EEENSL_IiLm18446744073709551615EEENSL_IfLm18446744073709551615EEENSL_IdLm18446744073709551615EEENSL_I11MulawSampleLm18446744073709551615EEENSL_I10AlawSampleLm18446744073709551615EEENSL_I8IMA4DataLm18446744073709551615EEENSL_I11MSADPCMDataLm18446744073709551615EEEEEEEEEDcT_DpT0_', symObjAddr: 0x8278, symBinAddr: 0xE840, symSize: 0xC }
  - { offset: 0xC0E49, size: 0x8, addend: 0x0, symName: '__ZNSt3__116__variant_detail12__visitation6__base12__dispatcherIJLm1EEE10__dispatchB8fe200100IONS1_9__variant15__value_visitorIZN12_GLOBAL__N_112alGetBufferiEN3gsl8not_nullIPN2al7ContextEEEjiPiE3$_0EEJRNS0_6__baseILNS0_6_TraitE0EJNS_4spanIhLm18446744073709551615EEENSL_IsLm18446744073709551615EEENSL_IiLm18446744073709551615EEENSL_IfLm18446744073709551615EEENSL_IdLm18446744073709551615EEENSL_I11MulawSampleLm18446744073709551615EEENSL_I10AlawSampleLm18446744073709551615EEENSL_I8IMA4DataLm18446744073709551615EEENSL_I11MSADPCMDataLm18446744073709551615EEEEEEEEEDcT_DpT0_', symObjAddr: 0x8278, symBinAddr: 0xE840, symSize: 0xC }
  - { offset: 0xC0E65, size: 0x8, addend: 0x0, symName: '__ZNSt3__116__variant_detail12__visitation6__base12__dispatcherIJLm1EEE10__dispatchB8fe200100IONS1_9__variant15__value_visitorIZN12_GLOBAL__N_112alGetBufferiEN3gsl8not_nullIPN2al7ContextEEEjiPiE3$_0EEJRNS0_6__baseILNS0_6_TraitE0EJNS_4spanIhLm18446744073709551615EEENSL_IsLm18446744073709551615EEENSL_IiLm18446744073709551615EEENSL_IfLm18446744073709551615EEENSL_IdLm18446744073709551615EEENSL_I11MulawSampleLm18446744073709551615EEENSL_I10AlawSampleLm18446744073709551615EEENSL_I8IMA4DataLm18446744073709551615EEENSL_I11MSADPCMDataLm18446744073709551615EEEEEEEEEDcT_DpT0_', symObjAddr: 0x8278, symBinAddr: 0xE840, symSize: 0xC }
  - { offset: 0xC0E80, size: 0x8, addend: 0x0, symName: '__ZNSt3__116__variant_detail12__visitation6__base12__dispatcherIJLm1EEE10__dispatchB8fe200100IONS1_9__variant15__value_visitorIZN12_GLOBAL__N_112alGetBufferiEN3gsl8not_nullIPN2al7ContextEEEjiPiE3$_0EEJRNS0_6__baseILNS0_6_TraitE0EJNS_4spanIhLm18446744073709551615EEENSL_IsLm18446744073709551615EEENSL_IiLm18446744073709551615EEENSL_IfLm18446744073709551615EEENSL_IdLm18446744073709551615EEENSL_I11MulawSampleLm18446744073709551615EEENSL_I10AlawSampleLm18446744073709551615EEENSL_I8IMA4DataLm18446744073709551615EEENSL_I11MSADPCMDataLm18446744073709551615EEEEEEEEEDcT_DpT0_', symObjAddr: 0x8278, symBinAddr: 0xE840, symSize: 0xC }
  - { offset: 0xC0F26, size: 0x8, addend: 0x0, symName: '__ZNSt3__116__variant_detail12__visitation6__base12__dispatcherIJLm2EEE10__dispatchB8fe200100IONS1_9__variant15__value_visitorIZN12_GLOBAL__N_112alGetBufferiEN3gsl8not_nullIPN2al7ContextEEEjiPiE3$_0EEJRNS0_6__baseILNS0_6_TraitE0EJNS_4spanIhLm18446744073709551615EEENSL_IsLm18446744073709551615EEENSL_IiLm18446744073709551615EEENSL_IfLm18446744073709551615EEENSL_IdLm18446744073709551615EEENSL_I11MulawSampleLm18446744073709551615EEENSL_I10AlawSampleLm18446744073709551615EEENSL_I8IMA4DataLm18446744073709551615EEENSL_I11MSADPCMDataLm18446744073709551615EEEEEEEEEDcT_DpT0_', symObjAddr: 0x8284, symBinAddr: 0xE84C, symSize: 0xC }
  - { offset: 0xC0F59, size: 0x8, addend: 0x0, symName: '__ZNSt3__116__variant_detail12__visitation6__base12__dispatcherIJLm2EEE10__dispatchB8fe200100IONS1_9__variant15__value_visitorIZN12_GLOBAL__N_112alGetBufferiEN3gsl8not_nullIPN2al7ContextEEEjiPiE3$_0EEJRNS0_6__baseILNS0_6_TraitE0EJNS_4spanIhLm18446744073709551615EEENSL_IsLm18446744073709551615EEENSL_IiLm18446744073709551615EEENSL_IfLm18446744073709551615EEENSL_IdLm18446744073709551615EEENSL_I11MulawSampleLm18446744073709551615EEENSL_I10AlawSampleLm18446744073709551615EEENSL_I8IMA4DataLm18446744073709551615EEENSL_I11MSADPCMDataLm18446744073709551615EEEEEEEEEDcT_DpT0_', symObjAddr: 0x8284, symBinAddr: 0xE84C, symSize: 0xC }
  - { offset: 0xC0F75, size: 0x8, addend: 0x0, symName: '__ZNSt3__116__variant_detail12__visitation6__base12__dispatcherIJLm2EEE10__dispatchB8fe200100IONS1_9__variant15__value_visitorIZN12_GLOBAL__N_112alGetBufferiEN3gsl8not_nullIPN2al7ContextEEEjiPiE3$_0EEJRNS0_6__baseILNS0_6_TraitE0EJNS_4spanIhLm18446744073709551615EEENSL_IsLm18446744073709551615EEENSL_IiLm18446744073709551615EEENSL_IfLm18446744073709551615EEENSL_IdLm18446744073709551615EEENSL_I11MulawSampleLm18446744073709551615EEENSL_I10AlawSampleLm18446744073709551615EEENSL_I8IMA4DataLm18446744073709551615EEENSL_I11MSADPCMDataLm18446744073709551615EEEEEEEEEDcT_DpT0_', symObjAddr: 0x8284, symBinAddr: 0xE84C, symSize: 0xC }
  - { offset: 0xC0F90, size: 0x8, addend: 0x0, symName: '__ZNSt3__116__variant_detail12__visitation6__base12__dispatcherIJLm2EEE10__dispatchB8fe200100IONS1_9__variant15__value_visitorIZN12_GLOBAL__N_112alGetBufferiEN3gsl8not_nullIPN2al7ContextEEEjiPiE3$_0EEJRNS0_6__baseILNS0_6_TraitE0EJNS_4spanIhLm18446744073709551615EEENSL_IsLm18446744073709551615EEENSL_IiLm18446744073709551615EEENSL_IfLm18446744073709551615EEENSL_IdLm18446744073709551615EEENSL_I11MulawSampleLm18446744073709551615EEENSL_I10AlawSampleLm18446744073709551615EEENSL_I8IMA4DataLm18446744073709551615EEENSL_I11MSADPCMDataLm18446744073709551615EEEEEEEEEDcT_DpT0_', symObjAddr: 0x8284, symBinAddr: 0xE84C, symSize: 0xC }
  - { offset: 0xC0FAC, size: 0x8, addend: 0x0, symName: '__ZNSt3__116__variant_detail12__visitation6__base12__dispatcherIJLm2EEE10__dispatchB8fe200100IONS1_9__variant15__value_visitorIZN12_GLOBAL__N_112alGetBufferiEN3gsl8not_nullIPN2al7ContextEEEjiPiE3$_0EEJRNS0_6__baseILNS0_6_TraitE0EJNS_4spanIhLm18446744073709551615EEENSL_IsLm18446744073709551615EEENSL_IiLm18446744073709551615EEENSL_IfLm18446744073709551615EEENSL_IdLm18446744073709551615EEENSL_I11MulawSampleLm18446744073709551615EEENSL_I10AlawSampleLm18446744073709551615EEENSL_I8IMA4DataLm18446744073709551615EEENSL_I11MSADPCMDataLm18446744073709551615EEEEEEEEEDcT_DpT0_', symObjAddr: 0x8284, symBinAddr: 0xE84C, symSize: 0xC }
  - { offset: 0xC0FC7, size: 0x8, addend: 0x0, symName: '__ZNSt3__116__variant_detail12__visitation6__base12__dispatcherIJLm2EEE10__dispatchB8fe200100IONS1_9__variant15__value_visitorIZN12_GLOBAL__N_112alGetBufferiEN3gsl8not_nullIPN2al7ContextEEEjiPiE3$_0EEJRNS0_6__baseILNS0_6_TraitE0EJNS_4spanIhLm18446744073709551615EEENSL_IsLm18446744073709551615EEENSL_IiLm18446744073709551615EEENSL_IfLm18446744073709551615EEENSL_IdLm18446744073709551615EEENSL_I11MulawSampleLm18446744073709551615EEENSL_I10AlawSampleLm18446744073709551615EEENSL_I8IMA4DataLm18446744073709551615EEENSL_I11MSADPCMDataLm18446744073709551615EEEEEEEEEDcT_DpT0_', symObjAddr: 0x8284, symBinAddr: 0xE84C, symSize: 0xC }
  - { offset: 0xC106D, size: 0x8, addend: 0x0, symName: '__ZNSt3__116__variant_detail12__visitation6__base12__dispatcherIJLm3EEE10__dispatchB8fe200100IONS1_9__variant15__value_visitorIZN12_GLOBAL__N_112alGetBufferiEN3gsl8not_nullIPN2al7ContextEEEjiPiE3$_0EEJRNS0_6__baseILNS0_6_TraitE0EJNS_4spanIhLm18446744073709551615EEENSL_IsLm18446744073709551615EEENSL_IiLm18446744073709551615EEENSL_IfLm18446744073709551615EEENSL_IdLm18446744073709551615EEENSL_I11MulawSampleLm18446744073709551615EEENSL_I10AlawSampleLm18446744073709551615EEENSL_I8IMA4DataLm18446744073709551615EEENSL_I11MSADPCMDataLm18446744073709551615EEEEEEEEEDcT_DpT0_', symObjAddr: 0x8290, symBinAddr: 0xE858, symSize: 0xC }
  - { offset: 0xC10A0, size: 0x8, addend: 0x0, symName: '__ZNSt3__116__variant_detail12__visitation6__base12__dispatcherIJLm3EEE10__dispatchB8fe200100IONS1_9__variant15__value_visitorIZN12_GLOBAL__N_112alGetBufferiEN3gsl8not_nullIPN2al7ContextEEEjiPiE3$_0EEJRNS0_6__baseILNS0_6_TraitE0EJNS_4spanIhLm18446744073709551615EEENSL_IsLm18446744073709551615EEENSL_IiLm18446744073709551615EEENSL_IfLm18446744073709551615EEENSL_IdLm18446744073709551615EEENSL_I11MulawSampleLm18446744073709551615EEENSL_I10AlawSampleLm18446744073709551615EEENSL_I8IMA4DataLm18446744073709551615EEENSL_I11MSADPCMDataLm18446744073709551615EEEEEEEEEDcT_DpT0_', symObjAddr: 0x8290, symBinAddr: 0xE858, symSize: 0xC }
  - { offset: 0xC10BC, size: 0x8, addend: 0x0, symName: '__ZNSt3__116__variant_detail12__visitation6__base12__dispatcherIJLm3EEE10__dispatchB8fe200100IONS1_9__variant15__value_visitorIZN12_GLOBAL__N_112alGetBufferiEN3gsl8not_nullIPN2al7ContextEEEjiPiE3$_0EEJRNS0_6__baseILNS0_6_TraitE0EJNS_4spanIhLm18446744073709551615EEENSL_IsLm18446744073709551615EEENSL_IiLm18446744073709551615EEENSL_IfLm18446744073709551615EEENSL_IdLm18446744073709551615EEENSL_I11MulawSampleLm18446744073709551615EEENSL_I10AlawSampleLm18446744073709551615EEENSL_I8IMA4DataLm18446744073709551615EEENSL_I11MSADPCMDataLm18446744073709551615EEEEEEEEEDcT_DpT0_', symObjAddr: 0x8290, symBinAddr: 0xE858, symSize: 0xC }
  - { offset: 0xC10D7, size: 0x8, addend: 0x0, symName: '__ZNSt3__116__variant_detail12__visitation6__base12__dispatcherIJLm3EEE10__dispatchB8fe200100IONS1_9__variant15__value_visitorIZN12_GLOBAL__N_112alGetBufferiEN3gsl8not_nullIPN2al7ContextEEEjiPiE3$_0EEJRNS0_6__baseILNS0_6_TraitE0EJNS_4spanIhLm18446744073709551615EEENSL_IsLm18446744073709551615EEENSL_IiLm18446744073709551615EEENSL_IfLm18446744073709551615EEENSL_IdLm18446744073709551615EEENSL_I11MulawSampleLm18446744073709551615EEENSL_I10AlawSampleLm18446744073709551615EEENSL_I8IMA4DataLm18446744073709551615EEENSL_I11MSADPCMDataLm18446744073709551615EEEEEEEEEDcT_DpT0_', symObjAddr: 0x8290, symBinAddr: 0xE858, symSize: 0xC }
  - { offset: 0xC10F3, size: 0x8, addend: 0x0, symName: '__ZNSt3__116__variant_detail12__visitation6__base12__dispatcherIJLm3EEE10__dispatchB8fe200100IONS1_9__variant15__value_visitorIZN12_GLOBAL__N_112alGetBufferiEN3gsl8not_nullIPN2al7ContextEEEjiPiE3$_0EEJRNS0_6__baseILNS0_6_TraitE0EJNS_4spanIhLm18446744073709551615EEENSL_IsLm18446744073709551615EEENSL_IiLm18446744073709551615EEENSL_IfLm18446744073709551615EEENSL_IdLm18446744073709551615EEENSL_I11MulawSampleLm18446744073709551615EEENSL_I10AlawSampleLm18446744073709551615EEENSL_I8IMA4DataLm18446744073709551615EEENSL_I11MSADPCMDataLm18446744073709551615EEEEEEEEEDcT_DpT0_', symObjAddr: 0x8290, symBinAddr: 0xE858, symSize: 0xC }
  - { offset: 0xC110E, size: 0x8, addend: 0x0, symName: '__ZNSt3__116__variant_detail12__visitation6__base12__dispatcherIJLm3EEE10__dispatchB8fe200100IONS1_9__variant15__value_visitorIZN12_GLOBAL__N_112alGetBufferiEN3gsl8not_nullIPN2al7ContextEEEjiPiE3$_0EEJRNS0_6__baseILNS0_6_TraitE0EJNS_4spanIhLm18446744073709551615EEENSL_IsLm18446744073709551615EEENSL_IiLm18446744073709551615EEENSL_IfLm18446744073709551615EEENSL_IdLm18446744073709551615EEENSL_I11MulawSampleLm18446744073709551615EEENSL_I10AlawSampleLm18446744073709551615EEENSL_I8IMA4DataLm18446744073709551615EEENSL_I11MSADPCMDataLm18446744073709551615EEEEEEEEEDcT_DpT0_', symObjAddr: 0x8290, symBinAddr: 0xE858, symSize: 0xC }
  - { offset: 0xC11B4, size: 0x8, addend: 0x0, symName: '__ZNSt3__116__variant_detail12__visitation6__base12__dispatcherIJLm4EEE10__dispatchB8fe200100IONS1_9__variant15__value_visitorIZN12_GLOBAL__N_112alGetBufferiEN3gsl8not_nullIPN2al7ContextEEEjiPiE3$_0EEJRNS0_6__baseILNS0_6_TraitE0EJNS_4spanIhLm18446744073709551615EEENSL_IsLm18446744073709551615EEENSL_IiLm18446744073709551615EEENSL_IfLm18446744073709551615EEENSL_IdLm18446744073709551615EEENSL_I11MulawSampleLm18446744073709551615EEENSL_I10AlawSampleLm18446744073709551615EEENSL_I8IMA4DataLm18446744073709551615EEENSL_I11MSADPCMDataLm18446744073709551615EEEEEEEEEDcT_DpT0_', symObjAddr: 0x829C, symBinAddr: 0xE864, symSize: 0xC }
  - { offset: 0xC11E7, size: 0x8, addend: 0x0, symName: '__ZNSt3__116__variant_detail12__visitation6__base12__dispatcherIJLm4EEE10__dispatchB8fe200100IONS1_9__variant15__value_visitorIZN12_GLOBAL__N_112alGetBufferiEN3gsl8not_nullIPN2al7ContextEEEjiPiE3$_0EEJRNS0_6__baseILNS0_6_TraitE0EJNS_4spanIhLm18446744073709551615EEENSL_IsLm18446744073709551615EEENSL_IiLm18446744073709551615EEENSL_IfLm18446744073709551615EEENSL_IdLm18446744073709551615EEENSL_I11MulawSampleLm18446744073709551615EEENSL_I10AlawSampleLm18446744073709551615EEENSL_I8IMA4DataLm18446744073709551615EEENSL_I11MSADPCMDataLm18446744073709551615EEEEEEEEEDcT_DpT0_', symObjAddr: 0x829C, symBinAddr: 0xE864, symSize: 0xC }
  - { offset: 0xC1203, size: 0x8, addend: 0x0, symName: '__ZNSt3__116__variant_detail12__visitation6__base12__dispatcherIJLm4EEE10__dispatchB8fe200100IONS1_9__variant15__value_visitorIZN12_GLOBAL__N_112alGetBufferiEN3gsl8not_nullIPN2al7ContextEEEjiPiE3$_0EEJRNS0_6__baseILNS0_6_TraitE0EJNS_4spanIhLm18446744073709551615EEENSL_IsLm18446744073709551615EEENSL_IiLm18446744073709551615EEENSL_IfLm18446744073709551615EEENSL_IdLm18446744073709551615EEENSL_I11MulawSampleLm18446744073709551615EEENSL_I10AlawSampleLm18446744073709551615EEENSL_I8IMA4DataLm18446744073709551615EEENSL_I11MSADPCMDataLm18446744073709551615EEEEEEEEEDcT_DpT0_', symObjAddr: 0x829C, symBinAddr: 0xE864, symSize: 0xC }
  - { offset: 0xC121E, size: 0x8, addend: 0x0, symName: '__ZNSt3__116__variant_detail12__visitation6__base12__dispatcherIJLm4EEE10__dispatchB8fe200100IONS1_9__variant15__value_visitorIZN12_GLOBAL__N_112alGetBufferiEN3gsl8not_nullIPN2al7ContextEEEjiPiE3$_0EEJRNS0_6__baseILNS0_6_TraitE0EJNS_4spanIhLm18446744073709551615EEENSL_IsLm18446744073709551615EEENSL_IiLm18446744073709551615EEENSL_IfLm18446744073709551615EEENSL_IdLm18446744073709551615EEENSL_I11MulawSampleLm18446744073709551615EEENSL_I10AlawSampleLm18446744073709551615EEENSL_I8IMA4DataLm18446744073709551615EEENSL_I11MSADPCMDataLm18446744073709551615EEEEEEEEEDcT_DpT0_', symObjAddr: 0x829C, symBinAddr: 0xE864, symSize: 0xC }
  - { offset: 0xC123A, size: 0x8, addend: 0x0, symName: '__ZNSt3__116__variant_detail12__visitation6__base12__dispatcherIJLm4EEE10__dispatchB8fe200100IONS1_9__variant15__value_visitorIZN12_GLOBAL__N_112alGetBufferiEN3gsl8not_nullIPN2al7ContextEEEjiPiE3$_0EEJRNS0_6__baseILNS0_6_TraitE0EJNS_4spanIhLm18446744073709551615EEENSL_IsLm18446744073709551615EEENSL_IiLm18446744073709551615EEENSL_IfLm18446744073709551615EEENSL_IdLm18446744073709551615EEENSL_I11MulawSampleLm18446744073709551615EEENSL_I10AlawSampleLm18446744073709551615EEENSL_I8IMA4DataLm18446744073709551615EEENSL_I11MSADPCMDataLm18446744073709551615EEEEEEEEEDcT_DpT0_', symObjAddr: 0x829C, symBinAddr: 0xE864, symSize: 0xC }
  - { offset: 0xC1255, size: 0x8, addend: 0x0, symName: '__ZNSt3__116__variant_detail12__visitation6__base12__dispatcherIJLm4EEE10__dispatchB8fe200100IONS1_9__variant15__value_visitorIZN12_GLOBAL__N_112alGetBufferiEN3gsl8not_nullIPN2al7ContextEEEjiPiE3$_0EEJRNS0_6__baseILNS0_6_TraitE0EJNS_4spanIhLm18446744073709551615EEENSL_IsLm18446744073709551615EEENSL_IiLm18446744073709551615EEENSL_IfLm18446744073709551615EEENSL_IdLm18446744073709551615EEENSL_I11MulawSampleLm18446744073709551615EEENSL_I10AlawSampleLm18446744073709551615EEENSL_I8IMA4DataLm18446744073709551615EEENSL_I11MSADPCMDataLm18446744073709551615EEEEEEEEEDcT_DpT0_', symObjAddr: 0x829C, symBinAddr: 0xE864, symSize: 0xC }
  - { offset: 0xC1317, size: 0x8, addend: 0x0, symName: '__ZNSt3__116__variant_detail12__visitation6__base12__dispatcherIJLm5EEE10__dispatchB8fe200100IONS1_9__variant15__value_visitorIZN12_GLOBAL__N_112alGetBufferiEN3gsl8not_nullIPN2al7ContextEEEjiPiE3$_0EEJRNS0_6__baseILNS0_6_TraitE0EJNS_4spanIhLm18446744073709551615EEENSL_IsLm18446744073709551615EEENSL_IiLm18446744073709551615EEENSL_IfLm18446744073709551615EEENSL_IdLm18446744073709551615EEENSL_I11MulawSampleLm18446744073709551615EEENSL_I10AlawSampleLm18446744073709551615EEENSL_I8IMA4DataLm18446744073709551615EEENSL_I11MSADPCMDataLm18446744073709551615EEEEEEEEEDcT_DpT0_', symObjAddr: 0x82A8, symBinAddr: 0xE870, symSize: 0x8 }
  - { offset: 0xC134A, size: 0x8, addend: 0x0, symName: '__ZNSt3__116__variant_detail12__visitation6__base12__dispatcherIJLm5EEE10__dispatchB8fe200100IONS1_9__variant15__value_visitorIZN12_GLOBAL__N_112alGetBufferiEN3gsl8not_nullIPN2al7ContextEEEjiPiE3$_0EEJRNS0_6__baseILNS0_6_TraitE0EJNS_4spanIhLm18446744073709551615EEENSL_IsLm18446744073709551615EEENSL_IiLm18446744073709551615EEENSL_IfLm18446744073709551615EEENSL_IdLm18446744073709551615EEENSL_I11MulawSampleLm18446744073709551615EEENSL_I10AlawSampleLm18446744073709551615EEENSL_I8IMA4DataLm18446744073709551615EEENSL_I11MSADPCMDataLm18446744073709551615EEEEEEEEEDcT_DpT0_', symObjAddr: 0x82A8, symBinAddr: 0xE870, symSize: 0x8 }
  - { offset: 0xC1366, size: 0x8, addend: 0x0, symName: '__ZNSt3__116__variant_detail12__visitation6__base12__dispatcherIJLm5EEE10__dispatchB8fe200100IONS1_9__variant15__value_visitorIZN12_GLOBAL__N_112alGetBufferiEN3gsl8not_nullIPN2al7ContextEEEjiPiE3$_0EEJRNS0_6__baseILNS0_6_TraitE0EJNS_4spanIhLm18446744073709551615EEENSL_IsLm18446744073709551615EEENSL_IiLm18446744073709551615EEENSL_IfLm18446744073709551615EEENSL_IdLm18446744073709551615EEENSL_I11MulawSampleLm18446744073709551615EEENSL_I10AlawSampleLm18446744073709551615EEENSL_I8IMA4DataLm18446744073709551615EEENSL_I11MSADPCMDataLm18446744073709551615EEEEEEEEEDcT_DpT0_', symObjAddr: 0x82A8, symBinAddr: 0xE870, symSize: 0x8 }
  - { offset: 0xC1381, size: 0x8, addend: 0x0, symName: '__ZNSt3__116__variant_detail12__visitation6__base12__dispatcherIJLm5EEE10__dispatchB8fe200100IONS1_9__variant15__value_visitorIZN12_GLOBAL__N_112alGetBufferiEN3gsl8not_nullIPN2al7ContextEEEjiPiE3$_0EEJRNS0_6__baseILNS0_6_TraitE0EJNS_4spanIhLm18446744073709551615EEENSL_IsLm18446744073709551615EEENSL_IiLm18446744073709551615EEENSL_IfLm18446744073709551615EEENSL_IdLm18446744073709551615EEENSL_I11MulawSampleLm18446744073709551615EEENSL_I10AlawSampleLm18446744073709551615EEENSL_I8IMA4DataLm18446744073709551615EEENSL_I11MSADPCMDataLm18446744073709551615EEEEEEEEEDcT_DpT0_', symObjAddr: 0x82A8, symBinAddr: 0xE870, symSize: 0x8 }
  - { offset: 0xC139D, size: 0x8, addend: 0x0, symName: '__ZNSt3__116__variant_detail12__visitation6__base12__dispatcherIJLm5EEE10__dispatchB8fe200100IONS1_9__variant15__value_visitorIZN12_GLOBAL__N_112alGetBufferiEN3gsl8not_nullIPN2al7ContextEEEjiPiE3$_0EEJRNS0_6__baseILNS0_6_TraitE0EJNS_4spanIhLm18446744073709551615EEENSL_IsLm18446744073709551615EEENSL_IiLm18446744073709551615EEENSL_IfLm18446744073709551615EEENSL_IdLm18446744073709551615EEENSL_I11MulawSampleLm18446744073709551615EEENSL_I10AlawSampleLm18446744073709551615EEENSL_I8IMA4DataLm18446744073709551615EEENSL_I11MSADPCMDataLm18446744073709551615EEEEEEEEEDcT_DpT0_', symObjAddr: 0x82A8, symBinAddr: 0xE870, symSize: 0x8 }
  - { offset: 0xC13B8, size: 0x8, addend: 0x0, symName: '__ZNSt3__116__variant_detail12__visitation6__base12__dispatcherIJLm5EEE10__dispatchB8fe200100IONS1_9__variant15__value_visitorIZN12_GLOBAL__N_112alGetBufferiEN3gsl8not_nullIPN2al7ContextEEEjiPiE3$_0EEJRNS0_6__baseILNS0_6_TraitE0EJNS_4spanIhLm18446744073709551615EEENSL_IsLm18446744073709551615EEENSL_IiLm18446744073709551615EEENSL_IfLm18446744073709551615EEENSL_IdLm18446744073709551615EEENSL_I11MulawSampleLm18446744073709551615EEENSL_I10AlawSampleLm18446744073709551615EEENSL_I8IMA4DataLm18446744073709551615EEENSL_I11MSADPCMDataLm18446744073709551615EEEEEEEEEDcT_DpT0_', symObjAddr: 0x82A8, symBinAddr: 0xE870, symSize: 0x8 }
  - { offset: 0xC1465, size: 0x8, addend: 0x0, symName: '__ZNSt3__116__variant_detail12__visitation6__base12__dispatcherIJLm6EEE10__dispatchB8fe200100IONS1_9__variant15__value_visitorIZN12_GLOBAL__N_112alGetBufferiEN3gsl8not_nullIPN2al7ContextEEEjiPiE3$_0EEJRNS0_6__baseILNS0_6_TraitE0EJNS_4spanIhLm18446744073709551615EEENSL_IsLm18446744073709551615EEENSL_IiLm18446744073709551615EEENSL_IfLm18446744073709551615EEENSL_IdLm18446744073709551615EEENSL_I11MulawSampleLm18446744073709551615EEENSL_I10AlawSampleLm18446744073709551615EEENSL_I8IMA4DataLm18446744073709551615EEENSL_I11MSADPCMDataLm18446744073709551615EEEEEEEEEDcT_DpT0_', symObjAddr: 0x82B0, symBinAddr: 0xE878, symSize: 0x8 }
  - { offset: 0xC1498, size: 0x8, addend: 0x0, symName: '__ZNSt3__116__variant_detail12__visitation6__base12__dispatcherIJLm6EEE10__dispatchB8fe200100IONS1_9__variant15__value_visitorIZN12_GLOBAL__N_112alGetBufferiEN3gsl8not_nullIPN2al7ContextEEEjiPiE3$_0EEJRNS0_6__baseILNS0_6_TraitE0EJNS_4spanIhLm18446744073709551615EEENSL_IsLm18446744073709551615EEENSL_IiLm18446744073709551615EEENSL_IfLm18446744073709551615EEENSL_IdLm18446744073709551615EEENSL_I11MulawSampleLm18446744073709551615EEENSL_I10AlawSampleLm18446744073709551615EEENSL_I8IMA4DataLm18446744073709551615EEENSL_I11MSADPCMDataLm18446744073709551615EEEEEEEEEDcT_DpT0_', symObjAddr: 0x82B0, symBinAddr: 0xE878, symSize: 0x8 }
  - { offset: 0xC14B4, size: 0x8, addend: 0x0, symName: '__ZNSt3__116__variant_detail12__visitation6__base12__dispatcherIJLm6EEE10__dispatchB8fe200100IONS1_9__variant15__value_visitorIZN12_GLOBAL__N_112alGetBufferiEN3gsl8not_nullIPN2al7ContextEEEjiPiE3$_0EEJRNS0_6__baseILNS0_6_TraitE0EJNS_4spanIhLm18446744073709551615EEENSL_IsLm18446744073709551615EEENSL_IiLm18446744073709551615EEENSL_IfLm18446744073709551615EEENSL_IdLm18446744073709551615EEENSL_I11MulawSampleLm18446744073709551615EEENSL_I10AlawSampleLm18446744073709551615EEENSL_I8IMA4DataLm18446744073709551615EEENSL_I11MSADPCMDataLm18446744073709551615EEEEEEEEEDcT_DpT0_', symObjAddr: 0x82B0, symBinAddr: 0xE878, symSize: 0x8 }
  - { offset: 0xC14CF, size: 0x8, addend: 0x0, symName: '__ZNSt3__116__variant_detail12__visitation6__base12__dispatcherIJLm6EEE10__dispatchB8fe200100IONS1_9__variant15__value_visitorIZN12_GLOBAL__N_112alGetBufferiEN3gsl8not_nullIPN2al7ContextEEEjiPiE3$_0EEJRNS0_6__baseILNS0_6_TraitE0EJNS_4spanIhLm18446744073709551615EEENSL_IsLm18446744073709551615EEENSL_IiLm18446744073709551615EEENSL_IfLm18446744073709551615EEENSL_IdLm18446744073709551615EEENSL_I11MulawSampleLm18446744073709551615EEENSL_I10AlawSampleLm18446744073709551615EEENSL_I8IMA4DataLm18446744073709551615EEENSL_I11MSADPCMDataLm18446744073709551615EEEEEEEEEDcT_DpT0_', symObjAddr: 0x82B0, symBinAddr: 0xE878, symSize: 0x8 }
  - { offset: 0xC14EB, size: 0x8, addend: 0x0, symName: '__ZNSt3__116__variant_detail12__visitation6__base12__dispatcherIJLm6EEE10__dispatchB8fe200100IONS1_9__variant15__value_visitorIZN12_GLOBAL__N_112alGetBufferiEN3gsl8not_nullIPN2al7ContextEEEjiPiE3$_0EEJRNS0_6__baseILNS0_6_TraitE0EJNS_4spanIhLm18446744073709551615EEENSL_IsLm18446744073709551615EEENSL_IiLm18446744073709551615EEENSL_IfLm18446744073709551615EEENSL_IdLm18446744073709551615EEENSL_I11MulawSampleLm18446744073709551615EEENSL_I10AlawSampleLm18446744073709551615EEENSL_I8IMA4DataLm18446744073709551615EEENSL_I11MSADPCMDataLm18446744073709551615EEEEEEEEEDcT_DpT0_', symObjAddr: 0x82B0, symBinAddr: 0xE878, symSize: 0x8 }
  - { offset: 0xC1506, size: 0x8, addend: 0x0, symName: '__ZNSt3__116__variant_detail12__visitation6__base12__dispatcherIJLm6EEE10__dispatchB8fe200100IONS1_9__variant15__value_visitorIZN12_GLOBAL__N_112alGetBufferiEN3gsl8not_nullIPN2al7ContextEEEjiPiE3$_0EEJRNS0_6__baseILNS0_6_TraitE0EJNS_4spanIhLm18446744073709551615EEENSL_IsLm18446744073709551615EEENSL_IiLm18446744073709551615EEENSL_IfLm18446744073709551615EEENSL_IdLm18446744073709551615EEENSL_I11MulawSampleLm18446744073709551615EEENSL_I10AlawSampleLm18446744073709551615EEENSL_I8IMA4DataLm18446744073709551615EEENSL_I11MSADPCMDataLm18446744073709551615EEEEEEEEEDcT_DpT0_', symObjAddr: 0x82B0, symBinAddr: 0xE878, symSize: 0x8 }
  - { offset: 0xC15B3, size: 0x8, addend: 0x0, symName: '__ZNSt3__116__variant_detail12__visitation6__base12__dispatcherIJLm7EEE10__dispatchB8fe200100IONS1_9__variant15__value_visitorIZN12_GLOBAL__N_112alGetBufferiEN3gsl8not_nullIPN2al7ContextEEEjiPiE3$_0EEJRNS0_6__baseILNS0_6_TraitE0EJNS_4spanIhLm18446744073709551615EEENSL_IsLm18446744073709551615EEENSL_IiLm18446744073709551615EEENSL_IfLm18446744073709551615EEENSL_IdLm18446744073709551615EEENSL_I11MulawSampleLm18446744073709551615EEENSL_I10AlawSampleLm18446744073709551615EEENSL_I8IMA4DataLm18446744073709551615EEENSL_I11MSADPCMDataLm18446744073709551615EEEEEEEEEDcT_DpT0_', symObjAddr: 0x82B8, symBinAddr: 0xE880, symSize: 0x8 }
  - { offset: 0xC15E6, size: 0x8, addend: 0x0, symName: '__ZNSt3__116__variant_detail12__visitation6__base12__dispatcherIJLm7EEE10__dispatchB8fe200100IONS1_9__variant15__value_visitorIZN12_GLOBAL__N_112alGetBufferiEN3gsl8not_nullIPN2al7ContextEEEjiPiE3$_0EEJRNS0_6__baseILNS0_6_TraitE0EJNS_4spanIhLm18446744073709551615EEENSL_IsLm18446744073709551615EEENSL_IiLm18446744073709551615EEENSL_IfLm18446744073709551615EEENSL_IdLm18446744073709551615EEENSL_I11MulawSampleLm18446744073709551615EEENSL_I10AlawSampleLm18446744073709551615EEENSL_I8IMA4DataLm18446744073709551615EEENSL_I11MSADPCMDataLm18446744073709551615EEEEEEEEEDcT_DpT0_', symObjAddr: 0x82B8, symBinAddr: 0xE880, symSize: 0x8 }
  - { offset: 0xC1602, size: 0x8, addend: 0x0, symName: '__ZNSt3__116__variant_detail12__visitation6__base12__dispatcherIJLm7EEE10__dispatchB8fe200100IONS1_9__variant15__value_visitorIZN12_GLOBAL__N_112alGetBufferiEN3gsl8not_nullIPN2al7ContextEEEjiPiE3$_0EEJRNS0_6__baseILNS0_6_TraitE0EJNS_4spanIhLm18446744073709551615EEENSL_IsLm18446744073709551615EEENSL_IiLm18446744073709551615EEENSL_IfLm18446744073709551615EEENSL_IdLm18446744073709551615EEENSL_I11MulawSampleLm18446744073709551615EEENSL_I10AlawSampleLm18446744073709551615EEENSL_I8IMA4DataLm18446744073709551615EEENSL_I11MSADPCMDataLm18446744073709551615EEEEEEEEEDcT_DpT0_', symObjAddr: 0x82B8, symBinAddr: 0xE880, symSize: 0x8 }
  - { offset: 0xC161D, size: 0x8, addend: 0x0, symName: '__ZNSt3__116__variant_detail12__visitation6__base12__dispatcherIJLm7EEE10__dispatchB8fe200100IONS1_9__variant15__value_visitorIZN12_GLOBAL__N_112alGetBufferiEN3gsl8not_nullIPN2al7ContextEEEjiPiE3$_0EEJRNS0_6__baseILNS0_6_TraitE0EJNS_4spanIhLm18446744073709551615EEENSL_IsLm18446744073709551615EEENSL_IiLm18446744073709551615EEENSL_IfLm18446744073709551615EEENSL_IdLm18446744073709551615EEENSL_I11MulawSampleLm18446744073709551615EEENSL_I10AlawSampleLm18446744073709551615EEENSL_I8IMA4DataLm18446744073709551615EEENSL_I11MSADPCMDataLm18446744073709551615EEEEEEEEEDcT_DpT0_', symObjAddr: 0x82B8, symBinAddr: 0xE880, symSize: 0x8 }
  - { offset: 0xC1639, size: 0x8, addend: 0x0, symName: '__ZNSt3__116__variant_detail12__visitation6__base12__dispatcherIJLm7EEE10__dispatchB8fe200100IONS1_9__variant15__value_visitorIZN12_GLOBAL__N_112alGetBufferiEN3gsl8not_nullIPN2al7ContextEEEjiPiE3$_0EEJRNS0_6__baseILNS0_6_TraitE0EJNS_4spanIhLm18446744073709551615EEENSL_IsLm18446744073709551615EEENSL_IiLm18446744073709551615EEENSL_IfLm18446744073709551615EEENSL_IdLm18446744073709551615EEENSL_I11MulawSampleLm18446744073709551615EEENSL_I10AlawSampleLm18446744073709551615EEENSL_I8IMA4DataLm18446744073709551615EEENSL_I11MSADPCMDataLm18446744073709551615EEEEEEEEEDcT_DpT0_', symObjAddr: 0x82B8, symBinAddr: 0xE880, symSize: 0x8 }
  - { offset: 0xC1654, size: 0x8, addend: 0x0, symName: '__ZNSt3__116__variant_detail12__visitation6__base12__dispatcherIJLm7EEE10__dispatchB8fe200100IONS1_9__variant15__value_visitorIZN12_GLOBAL__N_112alGetBufferiEN3gsl8not_nullIPN2al7ContextEEEjiPiE3$_0EEJRNS0_6__baseILNS0_6_TraitE0EJNS_4spanIhLm18446744073709551615EEENSL_IsLm18446744073709551615EEENSL_IiLm18446744073709551615EEENSL_IfLm18446744073709551615EEENSL_IdLm18446744073709551615EEENSL_I11MulawSampleLm18446744073709551615EEENSL_I10AlawSampleLm18446744073709551615EEENSL_I8IMA4DataLm18446744073709551615EEENSL_I11MSADPCMDataLm18446744073709551615EEEEEEEEEDcT_DpT0_', symObjAddr: 0x82B8, symBinAddr: 0xE880, symSize: 0x8 }
  - { offset: 0xC1701, size: 0x8, addend: 0x0, symName: '__ZNSt3__116__variant_detail12__visitation6__base12__dispatcherIJLm8EEE10__dispatchB8fe200100IONS1_9__variant15__value_visitorIZN12_GLOBAL__N_112alGetBufferiEN3gsl8not_nullIPN2al7ContextEEEjiPiE3$_0EEJRNS0_6__baseILNS0_6_TraitE0EJNS_4spanIhLm18446744073709551615EEENSL_IsLm18446744073709551615EEENSL_IiLm18446744073709551615EEENSL_IfLm18446744073709551615EEENSL_IdLm18446744073709551615EEENSL_I11MulawSampleLm18446744073709551615EEENSL_I10AlawSampleLm18446744073709551615EEENSL_I8IMA4DataLm18446744073709551615EEENSL_I11MSADPCMDataLm18446744073709551615EEEEEEEEEDcT_DpT0_', symObjAddr: 0x82C0, symBinAddr: 0xE888, symSize: 0x8 }
  - { offset: 0xC1734, size: 0x8, addend: 0x0, symName: '__ZNSt3__116__variant_detail12__visitation6__base12__dispatcherIJLm8EEE10__dispatchB8fe200100IONS1_9__variant15__value_visitorIZN12_GLOBAL__N_112alGetBufferiEN3gsl8not_nullIPN2al7ContextEEEjiPiE3$_0EEJRNS0_6__baseILNS0_6_TraitE0EJNS_4spanIhLm18446744073709551615EEENSL_IsLm18446744073709551615EEENSL_IiLm18446744073709551615EEENSL_IfLm18446744073709551615EEENSL_IdLm18446744073709551615EEENSL_I11MulawSampleLm18446744073709551615EEENSL_I10AlawSampleLm18446744073709551615EEENSL_I8IMA4DataLm18446744073709551615EEENSL_I11MSADPCMDataLm18446744073709551615EEEEEEEEEDcT_DpT0_', symObjAddr: 0x82C0, symBinAddr: 0xE888, symSize: 0x8 }
  - { offset: 0xC1750, size: 0x8, addend: 0x0, symName: '__ZNSt3__116__variant_detail12__visitation6__base12__dispatcherIJLm8EEE10__dispatchB8fe200100IONS1_9__variant15__value_visitorIZN12_GLOBAL__N_112alGetBufferiEN3gsl8not_nullIPN2al7ContextEEEjiPiE3$_0EEJRNS0_6__baseILNS0_6_TraitE0EJNS_4spanIhLm18446744073709551615EEENSL_IsLm18446744073709551615EEENSL_IiLm18446744073709551615EEENSL_IfLm18446744073709551615EEENSL_IdLm18446744073709551615EEENSL_I11MulawSampleLm18446744073709551615EEENSL_I10AlawSampleLm18446744073709551615EEENSL_I8IMA4DataLm18446744073709551615EEENSL_I11MSADPCMDataLm18446744073709551615EEEEEEEEEDcT_DpT0_', symObjAddr: 0x82C0, symBinAddr: 0xE888, symSize: 0x8 }
  - { offset: 0xC176B, size: 0x8, addend: 0x0, symName: '__ZNSt3__116__variant_detail12__visitation6__base12__dispatcherIJLm8EEE10__dispatchB8fe200100IONS1_9__variant15__value_visitorIZN12_GLOBAL__N_112alGetBufferiEN3gsl8not_nullIPN2al7ContextEEEjiPiE3$_0EEJRNS0_6__baseILNS0_6_TraitE0EJNS_4spanIhLm18446744073709551615EEENSL_IsLm18446744073709551615EEENSL_IiLm18446744073709551615EEENSL_IfLm18446744073709551615EEENSL_IdLm18446744073709551615EEENSL_I11MulawSampleLm18446744073709551615EEENSL_I10AlawSampleLm18446744073709551615EEENSL_I8IMA4DataLm18446744073709551615EEENSL_I11MSADPCMDataLm18446744073709551615EEEEEEEEEDcT_DpT0_', symObjAddr: 0x82C0, symBinAddr: 0xE888, symSize: 0x8 }
  - { offset: 0xC1787, size: 0x8, addend: 0x0, symName: '__ZNSt3__116__variant_detail12__visitation6__base12__dispatcherIJLm8EEE10__dispatchB8fe200100IONS1_9__variant15__value_visitorIZN12_GLOBAL__N_112alGetBufferiEN3gsl8not_nullIPN2al7ContextEEEjiPiE3$_0EEJRNS0_6__baseILNS0_6_TraitE0EJNS_4spanIhLm18446744073709551615EEENSL_IsLm18446744073709551615EEENSL_IiLm18446744073709551615EEENSL_IfLm18446744073709551615EEENSL_IdLm18446744073709551615EEENSL_I11MulawSampleLm18446744073709551615EEENSL_I10AlawSampleLm18446744073709551615EEENSL_I8IMA4DataLm18446744073709551615EEENSL_I11MSADPCMDataLm18446744073709551615EEEEEEEEEDcT_DpT0_', symObjAddr: 0x82C0, symBinAddr: 0xE888, symSize: 0x8 }
  - { offset: 0xC17A2, size: 0x8, addend: 0x0, symName: '__ZNSt3__116__variant_detail12__visitation6__base12__dispatcherIJLm8EEE10__dispatchB8fe200100IONS1_9__variant15__value_visitorIZN12_GLOBAL__N_112alGetBufferiEN3gsl8not_nullIPN2al7ContextEEEjiPiE3$_0EEJRNS0_6__baseILNS0_6_TraitE0EJNS_4spanIhLm18446744073709551615EEENSL_IsLm18446744073709551615EEENSL_IiLm18446744073709551615EEENSL_IfLm18446744073709551615EEENSL_IdLm18446744073709551615EEENSL_I11MulawSampleLm18446744073709551615EEENSL_I10AlawSampleLm18446744073709551615EEENSL_I8IMA4DataLm18446744073709551615EEENSL_I11MSADPCMDataLm18446744073709551615EEEEEEEEEDcT_DpT0_', symObjAddr: 0x82C0, symBinAddr: 0xE888, symSize: 0x8 }
  - { offset: 0xE7BBB, size: 0x8, addend: 0x0, symName: __ZN12_GLOBAL__N_124alDebugMessageControlEXTEN3gsl8not_nullIPN2al7ContextEEEiiiiPKjc, symObjAddr: 0xDA0, symBinAddr: 0xF598, symSize: 0x638 }
  - { offset: 0xE7BEF, size: 0x8, addend: 0x0, symName: __ZZN12_GLOBAL__N_124alDebugMessageControlEXTEN3gsl8not_nullIPN2al7ContextEEEiiiiPKjcE6Values, symObjAddr: 0x49FE, symBinAddr: 0xB0D6E, symSize: 0x0 }
  - { offset: 0xE8AAE, size: 0x8, addend: 0x0, symName: __ZN12_GLOBAL__N_118GetDebugSourceEnumE11DebugSource, symObjAddr: 0x3C4, symBinAddr: 0xECA4, symSize: 0xD0 }
  - { offset: 0xE8C69, size: 0x8, addend: 0x0, symName: __ZN12_GLOBAL__N_116GetDebugTypeEnumE9DebugType, symObjAddr: 0x494, symBinAddr: 0xED74, symSize: 0xD0 }
  - { offset: 0xE8E23, size: 0x8, addend: 0x0, symName: __ZN12_GLOBAL__N_120GetDebugSeverityEnumE13DebugSeverity, symObjAddr: 0x564, symBinAddr: 0xEE44, symSize: 0xD0 }
  - { offset: 0xE8FDE, size: 0x8, addend: 0x0, symName: __ZN12_GLOBAL__N_116GetDebugTypeNameE9DebugType, symObjAddr: 0x81C, symBinAddr: 0xF0FC, symSize: 0xFC }
  - { offset: 0xE9048, size: 0x8, addend: 0x0, symName: __ZN12_GLOBAL__N_123alDebugMessageInsertEXTEN3gsl8not_nullIPN2al7ContextEEEiijiiPKc, symObjAddr: 0xA68, symBinAddr: 0xF2CC, symSize: 0x2B8 }
  - { offset: 0xE94FA, size: 0x8, addend: 0x0, symName: __ZN12_GLOBAL__N_119alPushDebugGroupEXTEN3gsl8not_nullIPN2al7ContextEEEijiPKc, symObjAddr: 0x1444, symBinAddr: 0xFBE4, symSize: 0x388 }
  - { offset: 0xE9DE8, size: 0x8, addend: 0x0, symName: __ZN12_GLOBAL__N_118alPopDebugGroupEXTEN3gsl8not_nullIPN2al7ContextEEE, symObjAddr: 0x1820, symBinAddr: 0xFF80, symSize: 0x1BC }
  - { offset: 0xEA38D, size: 0x8, addend: 0x0, symName: __ZN12_GLOBAL__N_123alGetDebugMessageLogEXTEN3gsl8not_nullIPN2al7ContextEEEjiPiS6_PjS6_S6_Pc, symObjAddr: 0x1AA0, symBinAddr: 0x10150, symSize: 0x860 }
  - { offset: 0xEC000, size: 0x8, addend: 0x0, symName: __ZN12_GLOBAL__N_116alObjectLabelEXTEN3gsl8not_nullIPN2al7ContextEEEijiPKc, symObjAddr: 0x2378, symBinAddr: 0x109D0, symSize: 0x1D8 }
  - { offset: 0xEC2B9, size: 0x8, addend: 0x0, symName: __ZN12_GLOBAL__N_119alGetObjectLabelEXTEN3gsl8not_nullIPN2al7ContextEEEijiPiPc, symObjAddr: 0x25D4, symBinAddr: 0x10BBC, symSize: 0x594 }
  - { offset: 0xF413E, size: 0x8, addend: 0x0, symName: __ZN2al7Context16sendDebugMessageERNSt3__111unique_lockINS1_5mutexEEE11DebugSource9DebugTypej13DebugSeverityNS1_17basic_string_viewIcNS1_11char_traitsIcEEEE, symObjAddr: 0x0, symBinAddr: 0xE8E0, symSize: 0x360 }
  - { offset: 0xF4715, size: 0x8, addend: 0x0, symName: __Z3ERRIJmRKtRNSt3__117basic_string_viewIcNS2_11char_traitsIcEEEEEEvN3fmt10alsoft_v117fstringIJDpT_EE1tEDpOSB_, symObjAddr: 0x360, symBinAddr: 0xEC40, symSize: 0x64 }
  - { offset: 0xF4738, size: 0x8, addend: 0x0, symName: __ZNSt3__15dequeI13DebugLogEntryNS_9allocatorIS1_EEE12emplace_backIJR11DebugSourceR9DebugTypeRjR13DebugSeverityRNS_17basic_string_viewIcNS_11char_traitsIcEEEEEEERS1_DpOT_, symObjAddr: 0x634, symBinAddr: 0xEF14, symSize: 0x170 }
  - { offset: 0xF4C14, size: 0x8, addend: 0x0, symName: __Z3ERRIJNSt3__117basic_string_viewIcNS0_11char_traitsIcEEEES4_RjS4_RS4_EEvN3fmt10alsoft_v117fstringIJDpT_EE1tEDpOSA_, symObjAddr: 0x7A4, symBinAddr: 0xF084, symSize: 0x78 }
  - { offset: 0xF4C3E, size: 0x8, addend: 0x0, symName: __Z3ERRIJmRKtRNSt3__117basic_string_viewIcNS2_11char_traitsIcEEEEEEvN3fmt10alsoft_v117fstringIJDpT_EE1tEDpOSB_, symObjAddr: 0x360, symBinAddr: 0xEC40, symSize: 0x64 }
  - { offset: 0xF4ED2, size: 0x8, addend: 0x0, symName: __Z3ERRIJNSt3__117basic_string_viewIcNS0_11char_traitsIcEEEES4_RjS4_RS4_EEvN3fmt10alsoft_v117fstringIJDpT_EE1tEDpOSA_, symObjAddr: 0x7A4, symBinAddr: 0xF084, symSize: 0x78 }
  - { offset: 0xF5BCC, size: 0x8, addend: 0x0, symName: __ZNSt3__15dequeI13DebugLogEntryNS_9allocatorIS1_EEE19__add_back_capacityEv, symObjAddr: 0x38EC, symBinAddr: 0x11D28, symSize: 0x260 }
  - { offset: 0xF65AE, size: 0x8, addend: 0x0, symName: __ZNSt3__114__split_bufferI10DebugGroupRNS_9allocatorIS1_EEED1Ev, symObjAddr: 0x35CC, symBinAddr: 0x11A1C, symSize: 0x50 }
  - { offset: 0xF6893, size: 0x8, addend: 0x0, symName: _alDebugMessageCallbackEXT, symObjAddr: 0x918, symBinAddr: 0xF1F8, symSize: 0x88 }
  - { offset: 0xF6A97, size: 0x8, addend: 0x0, symName: _alDebugMessageCallbackDirectEXT, symObjAddr: 0x9A0, symBinAddr: 0xF280, symSize: 0x4C }
  - { offset: 0xF6BB8, size: 0x8, addend: 0x0, symName: _alDebugMessageInsertEXT, symObjAddr: 0x9FC, symBinAddr: 0xAC204, symSize: 0x6C }
  - { offset: 0xF6D19, size: 0x8, addend: 0x0, symName: _OUTLINED_FUNCTION_6, symObjAddr: 0x41D4, symBinAddr: 0x122B0, symSize: 0x14 }
  - { offset: 0xF7043, size: 0x8, addend: 0x0, symName: __ZN2al7Context11throw_errorIJmRKtEEEviN3fmt10alsoft_v117fstringIJDpT_EE1tEDpOS7_, symObjAddr: 0x2BA0, symBinAddr: 0x11164, symSize: 0x28 }
  - { offset: 0xF72A0, size: 0x8, addend: 0x0, symName: _alDebugMessageInsertDirectEXT, symObjAddr: 0xD20, symBinAddr: 0xF584, symSize: 0x14 }
  - { offset: 0xF7388, size: 0x8, addend: 0x0, symName: _alDebugMessageControlEXT, symObjAddr: 0xD34, symBinAddr: 0xAC270, symSize: 0x6C }
  - { offset: 0xF7393, size: 0x8, addend: 0x0, symName: _alDebugMessageControlEXT, symObjAddr: 0xD34, symBinAddr: 0xAC270, symSize: 0x6C }
  - { offset: 0xF7D27, size: 0x8, addend: 0x0, symName: __ZNSt3__16vectorIyNS_9allocatorIyEEE6insertENS_11__wrap_iterIPKyEERS5_, symObjAddr: 0x2C5C, symBinAddr: 0x111AC, symSize: 0x214 }
  - { offset: 0xF8630, size: 0x8, addend: 0x0, symName: __ZNSt3__16vectorIjNS_9allocatorIjEEE6insertENS_11__wrap_iterIPKjEERS5_, symObjAddr: 0x2F20, symBinAddr: 0x113C0, symSize: 0x210 }
  - { offset: 0xF8DC8, size: 0x8, addend: 0x0, symName: __ZN2al7Context11throw_errorIJRcEEEviN3fmt10alsoft_v117fstringIJDpT_EE1tEDpOS6_, symObjAddr: 0x2C3C, symBinAddr: 0x1118C, symSize: 0x20 }
  - { offset: 0xF8E41, size: 0x8, addend: 0x0, symName: _alDebugMessageControlDirectEXT, symObjAddr: 0x13D8, symBinAddr: 0xFBD0, symSize: 0x14 }
  - { offset: 0xF8F29, size: 0x8, addend: 0x0, symName: _alPushDebugGroupEXT, symObjAddr: 0x13EC, symBinAddr: 0xAC2DC, symSize: 0x58 }
  - { offset: 0xF8F34, size: 0x8, addend: 0x0, symName: _alPushDebugGroupEXT, symObjAddr: 0x13EC, symBinAddr: 0xAC2DC, symSize: 0x58 }
  - { offset: 0xF905F, size: 0x8, addend: 0x0, symName: _OUTLINED_FUNCTION_5, symObjAddr: 0x41C0, symBinAddr: 0x1229C, symSize: 0x14 }
  - { offset: 0xF9439, size: 0x8, addend: 0x0, symName: __ZN2al7Context11throw_errorIJRiRKtEEEviN3fmt10alsoft_v117fstringIJDpT_EE1tEDpOS8_, symObjAddr: 0x3340, symBinAddr: 0x117A4, symSize: 0x28 }
  - { offset: 0xF9541, size: 0x8, addend: 0x0, symName: __ZNSt3__16vectorI10DebugGroupNS_9allocatorIS1_EEE24__emplace_back_slow_pathIJRK11DebugSourceRjNS_17basic_string_viewIcNS_11char_traitsIcEEEEEEEPS1_DpOT_, symObjAddr: 0x3368, symBinAddr: 0x117CC, symSize: 0x250 }
  - { offset: 0xF9E43, size: 0x8, addend: 0x0, symName: __ZNSt3__16vectorIjNS_9allocatorIjEEE18__assign_with_sizeB8fe200100IPjS5_EEvT_T0_l, symObjAddr: 0x3684, symBinAddr: 0x11AC0, symSize: 0x134 }
  - { offset: 0xFA84D, size: 0x8, addend: 0x0, symName: __ZNSt3__16vectorIyNS_9allocatorIyEEE18__assign_with_sizeB8fe200100IPyS5_EEvT_T0_l, symObjAddr: 0x37B8, symBinAddr: 0x11BF4, symSize: 0x134 }
  - { offset: 0xFA86A, size: 0x8, addend: 0x0, symName: __ZNSt3__16vectorIyNS_9allocatorIyEEE18__assign_with_sizeB8fe200100IPyS5_EEvT_T0_l, symObjAddr: 0x37B8, symBinAddr: 0x11BF4, symSize: 0x134 }
  - { offset: 0xFB274, size: 0x8, addend: 0x0, symName: __ZNSt3__15dequeI13DebugLogEntryNS_9allocatorIS1_EEE19__add_back_capacityEv, symObjAddr: 0x38EC, symBinAddr: 0x11D28, symSize: 0x260 }
  - { offset: 0xFB36A, size: 0x8, addend: 0x0, symName: _alPushDebugGroupDirectEXT, symObjAddr: 0x17CC, symBinAddr: 0xFF6C, symSize: 0x14 }
  - { offset: 0xFB432, size: 0x8, addend: 0x0, symName: _alPopDebugGroupEXT, symObjAddr: 0x17E0, symBinAddr: 0xAC334, symSize: 0x40 }
  - { offset: 0xFB43D, size: 0x8, addend: 0x0, symName: _alPopDebugGroupEXT, symObjAddr: 0x17E0, symBinAddr: 0xAC334, symSize: 0x40 }
  - { offset: 0xFB5FD, size: 0x8, addend: 0x0, symName: __ZN10DebugGroupD1Ev, symObjAddr: 0x3630, symBinAddr: 0x11A6C, symSize: 0x4 }
  - { offset: 0xFB629, size: 0x8, addend: 0x0, symName: __ZN10DebugGroupD1Ev, symObjAddr: 0x3630, symBinAddr: 0x11A6C, symSize: 0x4 }
  - { offset: 0xFB63C, size: 0x8, addend: 0x0, symName: _alPopDebugGroupDirectEXT, symObjAddr: 0x19DC, symBinAddr: 0x1013C, symSize: 0x14 }
  - { offset: 0xFB6C4, size: 0x8, addend: 0x0, symName: _alGetDebugMessageLogEXT, symObjAddr: 0x19F0, symBinAddr: 0xAC374, symSize: 0xB0 }
  - { offset: 0xFB6CF, size: 0x8, addend: 0x0, symName: _alGetDebugMessageLogEXT, symObjAddr: 0x19F0, symBinAddr: 0xAC374, symSize: 0xB0 }
  - { offset: 0xFC910, size: 0x8, addend: 0x0, symName: _alGetDebugMessageLogDirectEXT, symObjAddr: 0x2300, symBinAddr: 0x109B0, symSize: 0x20 }
  - { offset: 0xFCA1C, size: 0x8, addend: 0x0, symName: _alObjectLabelEXT, symObjAddr: 0x2320, symBinAddr: 0xAC424, symSize: 0x58 }
  - { offset: 0xFCA27, size: 0x8, addend: 0x0, symName: _alObjectLabelEXT, symObjAddr: 0x2320, symBinAddr: 0xAC424, symSize: 0x58 }
  - { offset: 0xFCB52, size: 0x8, addend: 0x0, symName: _alObjectLabelDirectEXT, symObjAddr: 0x2550, symBinAddr: 0x10BA8, symSize: 0x14 }
  - { offset: 0xFCC1A, size: 0x8, addend: 0x0, symName: _alGetObjectLabelEXT, symObjAddr: 0x2564, symBinAddr: 0xAC47C, symSize: 0x70 }
  - { offset: 0xFCC25, size: 0x8, addend: 0x0, symName: _alGetObjectLabelEXT, symObjAddr: 0x2564, symBinAddr: 0xAC47C, symSize: 0x70 }
  - { offset: 0xFD1DD, size: 0x8, addend: 0x0, symName: _alGetObjectLabelDirectEXT, symObjAddr: 0x2B68, symBinAddr: 0x11150, symSize: 0x14 }
  - { offset: 0xFDDA1, size: 0x8, addend: 0x0, symName: __ZNSt3__114__split_bufferIjRNS_9allocatorIjEEE12emplace_backIJRKjEEEvDpOT_, symObjAddr: 0x3130, symBinAddr: 0x115D0, symSize: 0x1D4 }
  - { offset: 0xFE5DB, size: 0x8, addend: 0x0, symName: __ZN10DebugGroupD1Ev, symObjAddr: 0x3630, symBinAddr: 0x11A6C, symSize: 0x4 }
  - { offset: 0xFE5E6, size: 0x8, addend: 0x0, symName: __ZNSt3__114__split_bufferI10DebugGroupRNS_9allocatorIS1_EEED1Ev, symObjAddr: 0x35CC, symBinAddr: 0x11A1C, symSize: 0x50 }
  - { offset: 0xFE7A9, size: 0x8, addend: 0x0, symName: __ZN10DebugGroupD2Ev, symObjAddr: 0x3634, symBinAddr: 0x11A70, symSize: 0x50 }
  - { offset: 0xFF180, size: 0x8, addend: 0x0, symName: __ZNSt3__114__split_bufferIP13DebugLogEntryNS_9allocatorIS2_EEE12emplace_backIJRS2_EEEvDpOT_, symObjAddr: 0x3B4C, symBinAddr: 0x11F88, symSize: 0x184 }
  - { offset: 0xFF941, size: 0x8, addend: 0x0, symName: __ZNSt3__114__split_bufferIP13DebugLogEntryNS_9allocatorIS2_EEE13emplace_frontIJS2_EEEvDpOT_, symObjAddr: 0x3E54, symBinAddr: 0x1210C, symSize: 0x190 }
  - { offset: 0xFF957, size: 0x8, addend: 0x0, symName: __ZNSt3__114__split_bufferIP13DebugLogEntryNS_9allocatorIS2_EEE13emplace_frontIJS2_EEEvDpOT_, symObjAddr: 0x3E54, symBinAddr: 0x1210C, symSize: 0x190 }
  - { offset: 0x102254, size: 0x8, addend: 0x0, symName: _gEffectList, symObjAddr: 0x54E8, symBinAddr: 0xFC968, symSize: 0x0 }
  - { offset: 0x11E179, size: 0x8, addend: 0x0, symName: __ZNSt3__120__throw_out_of_rangeB8fe200100EPKc, symObjAddr: 0x3FB8, symBinAddr: 0x15A80, symSize: 0x50 }
  - { offset: 0x12AB10, size: 0x8, addend: 0x0, symName: _DisabledEffects, symObjAddr: 0x9340, symBinAddr: 0x108000, symSize: 0x0 }
  - { offset: 0x12AB99, size: 0x8, addend: 0x0, symName: __ZL10reverblist, symObjAddr: 0x5AC0, symBinAddr: 0xFCF28, symSize: 0x0 }
  - { offset: 0x12ADE0, size: 0x8, addend: 0x0, symName: __ZN12_GLOBAL__N_19alEffectiEN3gsl8not_nullIPN2al7ContextEEEjii, symObjAddr: 0x7C8, symBinAddr: 0x12988, symSize: 0x3A8 }
  - { offset: 0x12B6C4, size: 0x8, addend: 0x0, symName: __ZN12_GLOBAL__N_110alEffectivEN3gsl8not_nullIPN2al7ContextEEEjiPKi, symObjAddr: 0xBD0, symBinAddr: 0x12D44, symSize: 0x1A8 }
  - { offset: 0x12BEE2, size: 0x8, addend: 0x0, symName: __ZN12_GLOBAL__N_19alEffectfEN3gsl8not_nullIPN2al7ContextEEEjif, symObjAddr: 0xDF4, symBinAddr: 0x12F00, symSize: 0x17C }
  - { offset: 0x12C6C0, size: 0x8, addend: 0x0, symName: __ZN12_GLOBAL__N_110alEffectfvEN3gsl8not_nullIPN2al7ContextEEEjiPKf, symObjAddr: 0xFD0, symBinAddr: 0x13090, symSize: 0x174 }
  - { offset: 0x12CEA4, size: 0x8, addend: 0x0, symName: __ZN12_GLOBAL__N_112alGetEffectiEN3gsl8not_nullIPN2al7ContextEEEjiPi, symObjAddr: 0x11A4, symBinAddr: 0x13218, symSize: 0x18C }
  - { offset: 0x12D689, size: 0x8, addend: 0x0, symName: __ZN12_GLOBAL__N_113alGetEffectivEN3gsl8not_nullIPN2al7ContextEEEjiPi, symObjAddr: 0x1390, symBinAddr: 0x133B8, symSize: 0x1A4 }
  - { offset: 0x12DEA8, size: 0x8, addend: 0x0, symName: __ZN12_GLOBAL__N_112alGetEffectfEN3gsl8not_nullIPN2al7ContextEEEjiPf, symObjAddr: 0x1594, symBinAddr: 0x13570, symSize: 0x174 }
  - { offset: 0x12E68C, size: 0x8, addend: 0x0, symName: __ZN12_GLOBAL__N_113alGetEffectfvEN3gsl8not_nullIPN2al7ContextEEEjiPf, symObjAddr: 0x1768, symBinAddr: 0x136F8, symSize: 0x174 }
  - { offset: 0x12EE70, size: 0x8, addend: 0x0, symName: __ZN12_GLOBAL__N_112alGenEffectsEN3gsl8not_nullIPN2al7ContextEEEiPj, symObjAddr: 0x50, symBinAddr: 0x122C4, symSize: 0x328 }
  - { offset: 0x12F573, size: 0x8, addend: 0x0, symName: __ZN12_GLOBAL__N_115alDeleteEffectsEN3gsl8not_nullIPN2al7ContextEEEiPKj, symObjAddr: 0x3EC, symBinAddr: 0x12600, symSize: 0x248 }
  - { offset: 0x12FF98, size: 0x8, addend: 0x0, symName: _alGenEffects, symObjAddr: 0x0, symBinAddr: 0xAC4EC, symSize: 0x50 }
  - { offset: 0x130589, size: 0x8, addend: 0x0, symName: __ZNSt3__16vectorI13EffectSubListNS_9allocatorIS1_EEE24__emplace_back_slow_pathIJS1_EEEPS1_DpOT_, symObjAddr: 0x1EB0, symBinAddr: 0x13D64, symSize: 0x1E0 }
  - { offset: 0x130ADA, size: 0x8, addend: 0x0, symName: __ZN12_GLOBAL__N_112alGenEffectsEN3gsl8not_nullIPN2al7ContextEEEiPj.cold.1, symObjAddr: 0x46BC, symBinAddr: 0xAC810, symSize: 0xE4 }
  - { offset: 0x130FA8, size: 0x8, addend: 0x0, symName: _alGenEffectsDirect, symObjAddr: 0x378, symBinAddr: 0x125EC, symSize: 0x14 }
  - { offset: 0x13105B, size: 0x8, addend: 0x0, symName: _alDeleteEffects, symObjAddr: 0x39C, symBinAddr: 0xAC53C, symSize: 0x50 }
  - { offset: 0x1317EE, size: 0x8, addend: 0x0, symName: _alDeleteEffectsDirect, symObjAddr: 0x634, symBinAddr: 0x12848, symSize: 0x14 }
  - { offset: 0x131896, size: 0x8, addend: 0x0, symName: _alIsEffect, symObjAddr: 0x648, symBinAddr: 0x1285C, symSize: 0xB4 }
  - { offset: 0x1318D9, size: 0x8, addend: 0x0, symName: _alIsEffect, symObjAddr: 0x648, symBinAddr: 0x1285C, symSize: 0xB4 }
  - { offset: 0x131B8B, size: 0x8, addend: 0x0, symName: _alIsEffect.cold.1, symObjAddr: 0x47A0, symBinAddr: 0xAC8F4, symSize: 0x4C }
  - { offset: 0x131BA6, size: 0x8, addend: 0x0, symName: _alIsEffect.cold.1, symObjAddr: 0x47A0, symBinAddr: 0xAC8F4, symSize: 0x4C }
  - { offset: 0x131BBB, size: 0x8, addend: 0x0, symName: _alIsEffect.cold.1, symObjAddr: 0x47A0, symBinAddr: 0xAC8F4, symSize: 0x4C }
  - { offset: 0x131C25, size: 0x8, addend: 0x0, symName: _alIsEffectDirect, symObjAddr: 0x6FC, symBinAddr: 0x12910, symSize: 0x78 }
  - { offset: 0x131EA7, size: 0x8, addend: 0x0, symName: _alEffecti, symObjAddr: 0x774, symBinAddr: 0xAC58C, symSize: 0x54 }
  - { offset: 0x13232F, size: 0x8, addend: 0x0, symName: _alEffectiDirect, symObjAddr: 0xB70, symBinAddr: 0x12D30, symSize: 0x14 }
  - { offset: 0x1323E7, size: 0x8, addend: 0x0, symName: _alEffectiv, symObjAddr: 0xB84, symBinAddr: 0xAC5E0, symSize: 0x4C }
  - { offset: 0x1323F2, size: 0x8, addend: 0x0, symName: _alEffectiv, symObjAddr: 0xB84, symBinAddr: 0xAC5E0, symSize: 0x4C }
  - { offset: 0x13267F, size: 0x8, addend: 0x0, symName: _alEffectivDirect, symObjAddr: 0xD78, symBinAddr: 0x12EEC, symSize: 0x14 }
  - { offset: 0x132737, size: 0x8, addend: 0x0, symName: _alEffectf, symObjAddr: 0xD8C, symBinAddr: 0xAC62C, symSize: 0x68 }
  - { offset: 0x132742, size: 0x8, addend: 0x0, symName: _alEffectf, symObjAddr: 0xD8C, symBinAddr: 0xAC62C, symSize: 0x68 }
  - { offset: 0x1329B6, size: 0x8, addend: 0x0, symName: _alEffectfDirect, symObjAddr: 0xF70, symBinAddr: 0x1307C, symSize: 0x14 }
  - { offset: 0x132A6E, size: 0x8, addend: 0x0, symName: _alEffectfv, symObjAddr: 0xF84, symBinAddr: 0xAC694, symSize: 0x4C }
  - { offset: 0x132A79, size: 0x8, addend: 0x0, symName: _alEffectfv, symObjAddr: 0xF84, symBinAddr: 0xAC694, symSize: 0x4C }
  - { offset: 0x132CFC, size: 0x8, addend: 0x0, symName: _alEffectfvDirect, symObjAddr: 0x1144, symBinAddr: 0x13204, symSize: 0x14 }
  - { offset: 0x132DB4, size: 0x8, addend: 0x0, symName: _alGetEffecti, symObjAddr: 0x1158, symBinAddr: 0xAC6E0, symSize: 0x4C }
  - { offset: 0x132DBF, size: 0x8, addend: 0x0, symName: _alGetEffecti, symObjAddr: 0x1158, symBinAddr: 0xAC6E0, symSize: 0x4C }
  - { offset: 0x133042, size: 0x8, addend: 0x0, symName: _alGetEffectiDirect, symObjAddr: 0x1330, symBinAddr: 0x133A4, symSize: 0x14 }
  - { offset: 0x1330FA, size: 0x8, addend: 0x0, symName: _alGetEffectiv, symObjAddr: 0x1344, symBinAddr: 0xAC72C, symSize: 0x4C }
  - { offset: 0x133105, size: 0x8, addend: 0x0, symName: _alGetEffectiv, symObjAddr: 0x1344, symBinAddr: 0xAC72C, symSize: 0x4C }
  - { offset: 0x133388, size: 0x8, addend: 0x0, symName: _alGetEffectivDirect, symObjAddr: 0x1534, symBinAddr: 0x1355C, symSize: 0x14 }
  - { offset: 0x133440, size: 0x8, addend: 0x0, symName: _alGetEffectf, symObjAddr: 0x1548, symBinAddr: 0xAC778, symSize: 0x4C }
  - { offset: 0x13344B, size: 0x8, addend: 0x0, symName: _alGetEffectf, symObjAddr: 0x1548, symBinAddr: 0xAC778, symSize: 0x4C }
  - { offset: 0x1336CE, size: 0x8, addend: 0x0, symName: _alGetEffectfDirect, symObjAddr: 0x1708, symBinAddr: 0x136E4, symSize: 0x14 }
  - { offset: 0x133786, size: 0x8, addend: 0x0, symName: _alGetEffectfv, symObjAddr: 0x171C, symBinAddr: 0xAC7C4, symSize: 0x4C }
  - { offset: 0x133791, size: 0x8, addend: 0x0, symName: _alGetEffectfv, symObjAddr: 0x171C, symBinAddr: 0xAC7C4, symSize: 0x4C }
  - { offset: 0x133A14, size: 0x8, addend: 0x0, symName: _alGetEffectfvDirect, symObjAddr: 0x18DC, symBinAddr: 0x1386C, symSize: 0x14 }
  - { offset: 0x133ACC, size: 0x8, addend: 0x0, symName: __Z10InitEffectPN2al6EffectE, symObjAddr: 0x18F0, symBinAddr: 0x13880, symSize: 0x40 }
  - { offset: 0x133AD7, size: 0x8, addend: 0x0, symName: __Z10InitEffectPN2al6EffectE, symObjAddr: 0x18F0, symBinAddr: 0x13880, symSize: 0x40 }
  - { offset: 0x133B04, size: 0x8, addend: 0x0, symName: __Z10InitEffectPN2al6EffectE, symObjAddr: 0x18F0, symBinAddr: 0x13880, symSize: 0x40 }
  - { offset: 0x133C1F, size: 0x8, addend: 0x0, symName: __ZN2al6Effect7SetNameEN3gsl8not_nullIPNS_7ContextEEEjNSt3__117basic_string_viewIcNS6_11char_traitsIcEEEE, symObjAddr: 0x1930, symBinAddr: 0x138C0, symSize: 0xF4 }
  - { offset: 0x134670, size: 0x8, addend: 0x0, symName: __ZN12_GLOBAL__N_112alGenEffectsEN3gsl8not_nullIPN2al7ContextEEEiPj.cold.1, symObjAddr: 0x46BC, symBinAddr: 0xAC810, symSize: 0xE4 }
  - { offset: 0x13467B, size: 0x8, addend: 0x0, symName: __ZN13EffectSubListD2Ev, symObjAddr: 0x1A24, symBinAddr: 0x139B4, symSize: 0x40 }
  - { offset: 0x13469B, size: 0x8, addend: 0x0, symName: __ZN13EffectSubListD2Ev, symObjAddr: 0x1A24, symBinAddr: 0x139B4, symSize: 0x40 }
  - { offset: 0x13485C, size: 0x8, addend: 0x0, symName: __Z16LoadReverbPresetNSt3__117basic_string_viewIcNS_11char_traitsIcEEEEPN2al6EffectE, symObjAddr: 0x1AA4, symBinAddr: 0x139F4, symSize: 0x2F4 }
  - { offset: 0x134FF0, size: 0x8, addend: 0x0, symName: __Z17IsValidEffectTypei, symObjAddr: 0x1D98, symBinAddr: 0x13CE8, symSize: 0x7C }
  - { offset: 0x135D8F, size: 0x8, addend: 0x0, symName: '__ZNSt3__116__variant_detail12__visitation6__base12__dispatcherIJLm0EEE10__dispatchB8fe200100IONS1_9__variant15__value_visitorIZN12_GLOBAL__N_19alEffectiEN3gsl8not_nullIPN2al7ContextEEEjiiE3$_1EEJRNS0_6__baseILNS0_6_TraitE0EJ17NullEffectHandler19ReverbEffectHandler22StdReverbEffectHandler20AutowahEffectHandler19ChorusEffectHandler23CompressorEffectHandler23DistortionEffectHandler17EchoEffectHandler22EqualizerEffectHandler20FlangerEffectHandler21FshifterEffectHandler22ModulatorEffectHandler21PshifterEffectHandler21VmorpherEffectHandler28DedicatedDialogEffectHandler25DedicatedLfeEffectHandler24ConvolutionEffectHandlerEEEEEEDcT_DpT0_', symObjAddr: 0x245C, symBinAddr: 0x13F44, symSize: 0x2C }
  - { offset: 0x135DC3, size: 0x8, addend: 0x0, symName: '__ZNSt3__116__variant_detail12__visitation6__base12__dispatcherIJLm0EEE10__dispatchB8fe200100IONS1_9__variant15__value_visitorIZN12_GLOBAL__N_19alEffectiEN3gsl8not_nullIPN2al7ContextEEEjiiE3$_1EEJRNS0_6__baseILNS0_6_TraitE0EJ17NullEffectHandler19ReverbEffectHandler22StdReverbEffectHandler20AutowahEffectHandler19ChorusEffectHandler23CompressorEffectHandler23DistortionEffectHandler17EchoEffectHandler22EqualizerEffectHandler20FlangerEffectHandler21FshifterEffectHandler22ModulatorEffectHandler21PshifterEffectHandler21VmorpherEffectHandler28DedicatedDialogEffectHandler25DedicatedLfeEffectHandler24ConvolutionEffectHandlerEEEEEEDcT_DpT0_', symObjAddr: 0x245C, symBinAddr: 0x13F44, symSize: 0x2C }
  - { offset: 0x135DE1, size: 0x8, addend: 0x0, symName: '__ZNSt3__116__variant_detail12__visitation6__base12__dispatcherIJLm0EEE10__dispatchB8fe200100IONS1_9__variant15__value_visitorIZN12_GLOBAL__N_19alEffectiEN3gsl8not_nullIPN2al7ContextEEEjiiE3$_1EEJRNS0_6__baseILNS0_6_TraitE0EJ17NullEffectHandler19ReverbEffectHandler22StdReverbEffectHandler20AutowahEffectHandler19ChorusEffectHandler23CompressorEffectHandler23DistortionEffectHandler17EchoEffectHandler22EqualizerEffectHandler20FlangerEffectHandler21FshifterEffectHandler22ModulatorEffectHandler21PshifterEffectHandler21VmorpherEffectHandler28DedicatedDialogEffectHandler25DedicatedLfeEffectHandler24ConvolutionEffectHandlerEEEEEEDcT_DpT0_', symObjAddr: 0x245C, symBinAddr: 0x13F44, symSize: 0x2C }
  - { offset: 0x135F52, size: 0x8, addend: 0x0, symName: '__ZNSt3__116__variant_detail12__visitation6__base12__dispatcherIJLm1EEE10__dispatchB8fe200100IONS1_9__variant15__value_visitorIZN12_GLOBAL__N_19alEffectiEN3gsl8not_nullIPN2al7ContextEEEjiiE3$_1EEJRNS0_6__baseILNS0_6_TraitE0EJ17NullEffectHandler19ReverbEffectHandler22StdReverbEffectHandler20AutowahEffectHandler19ChorusEffectHandler23CompressorEffectHandler23DistortionEffectHandler17EchoEffectHandler22EqualizerEffectHandler20FlangerEffectHandler21FshifterEffectHandler22ModulatorEffectHandler21PshifterEffectHandler21VmorpherEffectHandler28DedicatedDialogEffectHandler25DedicatedLfeEffectHandler24ConvolutionEffectHandlerEEEEEEDcT_DpT0_', symObjAddr: 0x2488, symBinAddr: 0x13F70, symSize: 0x30 }
  - { offset: 0x135FDB, size: 0x8, addend: 0x0, symName: '__ZNSt3__116__variant_detail12__visitation6__base12__dispatcherIJLm1EEE10__dispatchB8fe200100IONS1_9__variant15__value_visitorIZN12_GLOBAL__N_19alEffectiEN3gsl8not_nullIPN2al7ContextEEEjiiE3$_1EEJRNS0_6__baseILNS0_6_TraitE0EJ17NullEffectHandler19ReverbEffectHandler22StdReverbEffectHandler20AutowahEffectHandler19ChorusEffectHandler23CompressorEffectHandler23DistortionEffectHandler17EchoEffectHandler22EqualizerEffectHandler20FlangerEffectHandler21FshifterEffectHandler22ModulatorEffectHandler21PshifterEffectHandler21VmorpherEffectHandler28DedicatedDialogEffectHandler25DedicatedLfeEffectHandler24ConvolutionEffectHandlerEEEEEEDcT_DpT0_', symObjAddr: 0x2488, symBinAddr: 0x13F70, symSize: 0x30 }
  - { offset: 0x13600F, size: 0x8, addend: 0x0, symName: '__ZNSt3__116__variant_detail12__visitation6__base12__dispatcherIJLm1EEE10__dispatchB8fe200100IONS1_9__variant15__value_visitorIZN12_GLOBAL__N_19alEffectiEN3gsl8not_nullIPN2al7ContextEEEjiiE3$_1EEJRNS0_6__baseILNS0_6_TraitE0EJ17NullEffectHandler19ReverbEffectHandler22StdReverbEffectHandler20AutowahEffectHandler19ChorusEffectHandler23CompressorEffectHandler23DistortionEffectHandler17EchoEffectHandler22EqualizerEffectHandler20FlangerEffectHandler21FshifterEffectHandler22ModulatorEffectHandler21PshifterEffectHandler21VmorpherEffectHandler28DedicatedDialogEffectHandler25DedicatedLfeEffectHandler24ConvolutionEffectHandlerEEEEEEDcT_DpT0_', symObjAddr: 0x2488, symBinAddr: 0x13F70, symSize: 0x30 }
  - { offset: 0x13602D, size: 0x8, addend: 0x0, symName: '__ZNSt3__116__variant_detail12__visitation6__base12__dispatcherIJLm1EEE10__dispatchB8fe200100IONS1_9__variant15__value_visitorIZN12_GLOBAL__N_19alEffectiEN3gsl8not_nullIPN2al7ContextEEEjiiE3$_1EEJRNS0_6__baseILNS0_6_TraitE0EJ17NullEffectHandler19ReverbEffectHandler22StdReverbEffectHandler20AutowahEffectHandler19ChorusEffectHandler23CompressorEffectHandler23DistortionEffectHandler17EchoEffectHandler22EqualizerEffectHandler20FlangerEffectHandler21FshifterEffectHandler22ModulatorEffectHandler21PshifterEffectHandler21VmorpherEffectHandler28DedicatedDialogEffectHandler25DedicatedLfeEffectHandler24ConvolutionEffectHandlerEEEEEEDcT_DpT0_', symObjAddr: 0x2488, symBinAddr: 0x13F70, symSize: 0x30 }
  - { offset: 0x13619E, size: 0x8, addend: 0x0, symName: '__ZNSt3__116__variant_detail12__visitation6__base12__dispatcherIJLm2EEE10__dispatchB8fe200100IONS1_9__variant15__value_visitorIZN12_GLOBAL__N_19alEffectiEN3gsl8not_nullIPN2al7ContextEEEjiiE3$_1EEJRNS0_6__baseILNS0_6_TraitE0EJ17NullEffectHandler19ReverbEffectHandler22StdReverbEffectHandler20AutowahEffectHandler19ChorusEffectHandler23CompressorEffectHandler23DistortionEffectHandler17EchoEffectHandler22EqualizerEffectHandler20FlangerEffectHandler21FshifterEffectHandler22ModulatorEffectHandler21PshifterEffectHandler21VmorpherEffectHandler28DedicatedDialogEffectHandler25DedicatedLfeEffectHandler24ConvolutionEffectHandlerEEEEEEDcT_DpT0_', symObjAddr: 0x24B8, symBinAddr: 0x13FA0, symSize: 0x30 }
  - { offset: 0x136227, size: 0x8, addend: 0x0, symName: '__ZNSt3__116__variant_detail12__visitation6__base12__dispatcherIJLm2EEE10__dispatchB8fe200100IONS1_9__variant15__value_visitorIZN12_GLOBAL__N_19alEffectiEN3gsl8not_nullIPN2al7ContextEEEjiiE3$_1EEJRNS0_6__baseILNS0_6_TraitE0EJ17NullEffectHandler19ReverbEffectHandler22StdReverbEffectHandler20AutowahEffectHandler19ChorusEffectHandler23CompressorEffectHandler23DistortionEffectHandler17EchoEffectHandler22EqualizerEffectHandler20FlangerEffectHandler21FshifterEffectHandler22ModulatorEffectHandler21PshifterEffectHandler21VmorpherEffectHandler28DedicatedDialogEffectHandler25DedicatedLfeEffectHandler24ConvolutionEffectHandlerEEEEEEDcT_DpT0_', symObjAddr: 0x24B8, symBinAddr: 0x13FA0, symSize: 0x30 }
  - { offset: 0x13625B, size: 0x8, addend: 0x0, symName: '__ZNSt3__116__variant_detail12__visitation6__base12__dispatcherIJLm2EEE10__dispatchB8fe200100IONS1_9__variant15__value_visitorIZN12_GLOBAL__N_19alEffectiEN3gsl8not_nullIPN2al7ContextEEEjiiE3$_1EEJRNS0_6__baseILNS0_6_TraitE0EJ17NullEffectHandler19ReverbEffectHandler22StdReverbEffectHandler20AutowahEffectHandler19ChorusEffectHandler23CompressorEffectHandler23DistortionEffectHandler17EchoEffectHandler22EqualizerEffectHandler20FlangerEffectHandler21FshifterEffectHandler22ModulatorEffectHandler21PshifterEffectHandler21VmorpherEffectHandler28DedicatedDialogEffectHandler25DedicatedLfeEffectHandler24ConvolutionEffectHandlerEEEEEEDcT_DpT0_', symObjAddr: 0x24B8, symBinAddr: 0x13FA0, symSize: 0x30 }
  - { offset: 0x136279, size: 0x8, addend: 0x0, symName: '__ZNSt3__116__variant_detail12__visitation6__base12__dispatcherIJLm2EEE10__dispatchB8fe200100IONS1_9__variant15__value_visitorIZN12_GLOBAL__N_19alEffectiEN3gsl8not_nullIPN2al7ContextEEEjiiE3$_1EEJRNS0_6__baseILNS0_6_TraitE0EJ17NullEffectHandler19ReverbEffectHandler22StdReverbEffectHandler20AutowahEffectHandler19ChorusEffectHandler23CompressorEffectHandler23DistortionEffectHandler17EchoEffectHandler22EqualizerEffectHandler20FlangerEffectHandler21FshifterEffectHandler22ModulatorEffectHandler21PshifterEffectHandler21VmorpherEffectHandler28DedicatedDialogEffectHandler25DedicatedLfeEffectHandler24ConvolutionEffectHandlerEEEEEEDcT_DpT0_', symObjAddr: 0x24B8, symBinAddr: 0x13FA0, symSize: 0x30 }
  - { offset: 0x1363EA, size: 0x8, addend: 0x0, symName: '__ZNSt3__116__variant_detail12__visitation6__base12__dispatcherIJLm3EEE10__dispatchB8fe200100IONS1_9__variant15__value_visitorIZN12_GLOBAL__N_19alEffectiEN3gsl8not_nullIPN2al7ContextEEEjiiE3$_1EEJRNS0_6__baseILNS0_6_TraitE0EJ17NullEffectHandler19ReverbEffectHandler22StdReverbEffectHandler20AutowahEffectHandler19ChorusEffectHandler23CompressorEffectHandler23DistortionEffectHandler17EchoEffectHandler22EqualizerEffectHandler20FlangerEffectHandler21FshifterEffectHandler22ModulatorEffectHandler21PshifterEffectHandler21VmorpherEffectHandler28DedicatedDialogEffectHandler25DedicatedLfeEffectHandler24ConvolutionEffectHandlerEEEEEEDcT_DpT0_', symObjAddr: 0x24E8, symBinAddr: 0x13FD0, symSize: 0x30 }
  - { offset: 0x13647F, size: 0x8, addend: 0x0, symName: '__ZNSt3__116__variant_detail12__visitation6__base12__dispatcherIJLm3EEE10__dispatchB8fe200100IONS1_9__variant15__value_visitorIZN12_GLOBAL__N_19alEffectiEN3gsl8not_nullIPN2al7ContextEEEjiiE3$_1EEJRNS0_6__baseILNS0_6_TraitE0EJ17NullEffectHandler19ReverbEffectHandler22StdReverbEffectHandler20AutowahEffectHandler19ChorusEffectHandler23CompressorEffectHandler23DistortionEffectHandler17EchoEffectHandler22EqualizerEffectHandler20FlangerEffectHandler21FshifterEffectHandler22ModulatorEffectHandler21PshifterEffectHandler21VmorpherEffectHandler28DedicatedDialogEffectHandler25DedicatedLfeEffectHandler24ConvolutionEffectHandlerEEEEEEDcT_DpT0_', symObjAddr: 0x24E8, symBinAddr: 0x13FD0, symSize: 0x30 }
  - { offset: 0x1364B3, size: 0x8, addend: 0x0, symName: '__ZNSt3__116__variant_detail12__visitation6__base12__dispatcherIJLm3EEE10__dispatchB8fe200100IONS1_9__variant15__value_visitorIZN12_GLOBAL__N_19alEffectiEN3gsl8not_nullIPN2al7ContextEEEjiiE3$_1EEJRNS0_6__baseILNS0_6_TraitE0EJ17NullEffectHandler19ReverbEffectHandler22StdReverbEffectHandler20AutowahEffectHandler19ChorusEffectHandler23CompressorEffectHandler23DistortionEffectHandler17EchoEffectHandler22EqualizerEffectHandler20FlangerEffectHandler21FshifterEffectHandler22ModulatorEffectHandler21PshifterEffectHandler21VmorpherEffectHandler28DedicatedDialogEffectHandler25DedicatedLfeEffectHandler24ConvolutionEffectHandlerEEEEEEDcT_DpT0_', symObjAddr: 0x24E8, symBinAddr: 0x13FD0, symSize: 0x30 }
  - { offset: 0x1364D1, size: 0x8, addend: 0x0, symName: '__ZNSt3__116__variant_detail12__visitation6__base12__dispatcherIJLm3EEE10__dispatchB8fe200100IONS1_9__variant15__value_visitorIZN12_GLOBAL__N_19alEffectiEN3gsl8not_nullIPN2al7ContextEEEjiiE3$_1EEJRNS0_6__baseILNS0_6_TraitE0EJ17NullEffectHandler19ReverbEffectHandler22StdReverbEffectHandler20AutowahEffectHandler19ChorusEffectHandler23CompressorEffectHandler23DistortionEffectHandler17EchoEffectHandler22EqualizerEffectHandler20FlangerEffectHandler21FshifterEffectHandler22ModulatorEffectHandler21PshifterEffectHandler21VmorpherEffectHandler28DedicatedDialogEffectHandler25DedicatedLfeEffectHandler24ConvolutionEffectHandlerEEEEEEDcT_DpT0_', symObjAddr: 0x24E8, symBinAddr: 0x13FD0, symSize: 0x30 }
  - { offset: 0x136642, size: 0x8, addend: 0x0, symName: '__ZNSt3__116__variant_detail12__visitation6__base12__dispatcherIJLm4EEE10__dispatchB8fe200100IONS1_9__variant15__value_visitorIZN12_GLOBAL__N_19alEffectiEN3gsl8not_nullIPN2al7ContextEEEjiiE3$_1EEJRNS0_6__baseILNS0_6_TraitE0EJ17NullEffectHandler19ReverbEffectHandler22StdReverbEffectHandler20AutowahEffectHandler19ChorusEffectHandler23CompressorEffectHandler23DistortionEffectHandler17EchoEffectHandler22EqualizerEffectHandler20FlangerEffectHandler21FshifterEffectHandler22ModulatorEffectHandler21PshifterEffectHandler21VmorpherEffectHandler28DedicatedDialogEffectHandler25DedicatedLfeEffectHandler24ConvolutionEffectHandlerEEEEEEDcT_DpT0_', symObjAddr: 0x2518, symBinAddr: 0x14000, symSize: 0x30 }
  - { offset: 0x1366D7, size: 0x8, addend: 0x0, symName: '__ZNSt3__116__variant_detail12__visitation6__base12__dispatcherIJLm4EEE10__dispatchB8fe200100IONS1_9__variant15__value_visitorIZN12_GLOBAL__N_19alEffectiEN3gsl8not_nullIPN2al7ContextEEEjiiE3$_1EEJRNS0_6__baseILNS0_6_TraitE0EJ17NullEffectHandler19ReverbEffectHandler22StdReverbEffectHandler20AutowahEffectHandler19ChorusEffectHandler23CompressorEffectHandler23DistortionEffectHandler17EchoEffectHandler22EqualizerEffectHandler20FlangerEffectHandler21FshifterEffectHandler22ModulatorEffectHandler21PshifterEffectHandler21VmorpherEffectHandler28DedicatedDialogEffectHandler25DedicatedLfeEffectHandler24ConvolutionEffectHandlerEEEEEEDcT_DpT0_', symObjAddr: 0x2518, symBinAddr: 0x14000, symSize: 0x30 }
  - { offset: 0x13670B, size: 0x8, addend: 0x0, symName: '__ZNSt3__116__variant_detail12__visitation6__base12__dispatcherIJLm4EEE10__dispatchB8fe200100IONS1_9__variant15__value_visitorIZN12_GLOBAL__N_19alEffectiEN3gsl8not_nullIPN2al7ContextEEEjiiE3$_1EEJRNS0_6__baseILNS0_6_TraitE0EJ17NullEffectHandler19ReverbEffectHandler22StdReverbEffectHandler20AutowahEffectHandler19ChorusEffectHandler23CompressorEffectHandler23DistortionEffectHandler17EchoEffectHandler22EqualizerEffectHandler20FlangerEffectHandler21FshifterEffectHandler22ModulatorEffectHandler21PshifterEffectHandler21VmorpherEffectHandler28DedicatedDialogEffectHandler25DedicatedLfeEffectHandler24ConvolutionEffectHandlerEEEEEEDcT_DpT0_', symObjAddr: 0x2518, symBinAddr: 0x14000, symSize: 0x30 }
  - { offset: 0x136729, size: 0x8, addend: 0x0, symName: '__ZNSt3__116__variant_detail12__visitation6__base12__dispatcherIJLm4EEE10__dispatchB8fe200100IONS1_9__variant15__value_visitorIZN12_GLOBAL__N_19alEffectiEN3gsl8not_nullIPN2al7ContextEEEjiiE3$_1EEJRNS0_6__baseILNS0_6_TraitE0EJ17NullEffectHandler19ReverbEffectHandler22StdReverbEffectHandler20AutowahEffectHandler19ChorusEffectHandler23CompressorEffectHandler23DistortionEffectHandler17EchoEffectHandler22EqualizerEffectHandler20FlangerEffectHandler21FshifterEffectHandler22ModulatorEffectHandler21PshifterEffectHandler21VmorpherEffectHandler28DedicatedDialogEffectHandler25DedicatedLfeEffectHandler24ConvolutionEffectHandlerEEEEEEDcT_DpT0_', symObjAddr: 0x2518, symBinAddr: 0x14000, symSize: 0x30 }
  - { offset: 0x13689A, size: 0x8, addend: 0x0, symName: '__ZNSt3__116__variant_detail12__visitation6__base12__dispatcherIJLm5EEE10__dispatchB8fe200100IONS1_9__variant15__value_visitorIZN12_GLOBAL__N_19alEffectiEN3gsl8not_nullIPN2al7ContextEEEjiiE3$_1EEJRNS0_6__baseILNS0_6_TraitE0EJ17NullEffectHandler19ReverbEffectHandler22StdReverbEffectHandler20AutowahEffectHandler19ChorusEffectHandler23CompressorEffectHandler23DistortionEffectHandler17EchoEffectHandler22EqualizerEffectHandler20FlangerEffectHandler21FshifterEffectHandler22ModulatorEffectHandler21PshifterEffectHandler21VmorpherEffectHandler28DedicatedDialogEffectHandler25DedicatedLfeEffectHandler24ConvolutionEffectHandlerEEEEEEDcT_DpT0_', symObjAddr: 0x2548, symBinAddr: 0x14030, symSize: 0x30 }
  - { offset: 0x13692F, size: 0x8, addend: 0x0, symName: '__ZNSt3__116__variant_detail12__visitation6__base12__dispatcherIJLm5EEE10__dispatchB8fe200100IONS1_9__variant15__value_visitorIZN12_GLOBAL__N_19alEffectiEN3gsl8not_nullIPN2al7ContextEEEjiiE3$_1EEJRNS0_6__baseILNS0_6_TraitE0EJ17NullEffectHandler19ReverbEffectHandler22StdReverbEffectHandler20AutowahEffectHandler19ChorusEffectHandler23CompressorEffectHandler23DistortionEffectHandler17EchoEffectHandler22EqualizerEffectHandler20FlangerEffectHandler21FshifterEffectHandler22ModulatorEffectHandler21PshifterEffectHandler21VmorpherEffectHandler28DedicatedDialogEffectHandler25DedicatedLfeEffectHandler24ConvolutionEffectHandlerEEEEEEDcT_DpT0_', symObjAddr: 0x2548, symBinAddr: 0x14030, symSize: 0x30 }
  - { offset: 0x136963, size: 0x8, addend: 0x0, symName: '__ZNSt3__116__variant_detail12__visitation6__base12__dispatcherIJLm5EEE10__dispatchB8fe200100IONS1_9__variant15__value_visitorIZN12_GLOBAL__N_19alEffectiEN3gsl8not_nullIPN2al7ContextEEEjiiE3$_1EEJRNS0_6__baseILNS0_6_TraitE0EJ17NullEffectHandler19ReverbEffectHandler22StdReverbEffectHandler20AutowahEffectHandler19ChorusEffectHandler23CompressorEffectHandler23DistortionEffectHandler17EchoEffectHandler22EqualizerEffectHandler20FlangerEffectHandler21FshifterEffectHandler22ModulatorEffectHandler21PshifterEffectHandler21VmorpherEffectHandler28DedicatedDialogEffectHandler25DedicatedLfeEffectHandler24ConvolutionEffectHandlerEEEEEEDcT_DpT0_', symObjAddr: 0x2548, symBinAddr: 0x14030, symSize: 0x30 }
  - { offset: 0x136981, size: 0x8, addend: 0x0, symName: '__ZNSt3__116__variant_detail12__visitation6__base12__dispatcherIJLm5EEE10__dispatchB8fe200100IONS1_9__variant15__value_visitorIZN12_GLOBAL__N_19alEffectiEN3gsl8not_nullIPN2al7ContextEEEjiiE3$_1EEJRNS0_6__baseILNS0_6_TraitE0EJ17NullEffectHandler19ReverbEffectHandler22StdReverbEffectHandler20AutowahEffectHandler19ChorusEffectHandler23CompressorEffectHandler23DistortionEffectHandler17EchoEffectHandler22EqualizerEffectHandler20FlangerEffectHandler21FshifterEffectHandler22ModulatorEffectHandler21PshifterEffectHandler21VmorpherEffectHandler28DedicatedDialogEffectHandler25DedicatedLfeEffectHandler24ConvolutionEffectHandlerEEEEEEDcT_DpT0_', symObjAddr: 0x2548, symBinAddr: 0x14030, symSize: 0x30 }
  - { offset: 0x136AF2, size: 0x8, addend: 0x0, symName: '__ZNSt3__116__variant_detail12__visitation6__base12__dispatcherIJLm6EEE10__dispatchB8fe200100IONS1_9__variant15__value_visitorIZN12_GLOBAL__N_19alEffectiEN3gsl8not_nullIPN2al7ContextEEEjiiE3$_1EEJRNS0_6__baseILNS0_6_TraitE0EJ17NullEffectHandler19ReverbEffectHandler22StdReverbEffectHandler20AutowahEffectHandler19ChorusEffectHandler23CompressorEffectHandler23DistortionEffectHandler17EchoEffectHandler22EqualizerEffectHandler20FlangerEffectHandler21FshifterEffectHandler22ModulatorEffectHandler21PshifterEffectHandler21VmorpherEffectHandler28DedicatedDialogEffectHandler25DedicatedLfeEffectHandler24ConvolutionEffectHandlerEEEEEEDcT_DpT0_', symObjAddr: 0x2578, symBinAddr: 0x14060, symSize: 0x30 }
  - { offset: 0x136B87, size: 0x8, addend: 0x0, symName: '__ZNSt3__116__variant_detail12__visitation6__base12__dispatcherIJLm6EEE10__dispatchB8fe200100IONS1_9__variant15__value_visitorIZN12_GLOBAL__N_19alEffectiEN3gsl8not_nullIPN2al7ContextEEEjiiE3$_1EEJRNS0_6__baseILNS0_6_TraitE0EJ17NullEffectHandler19ReverbEffectHandler22StdReverbEffectHandler20AutowahEffectHandler19ChorusEffectHandler23CompressorEffectHandler23DistortionEffectHandler17EchoEffectHandler22EqualizerEffectHandler20FlangerEffectHandler21FshifterEffectHandler22ModulatorEffectHandler21PshifterEffectHandler21VmorpherEffectHandler28DedicatedDialogEffectHandler25DedicatedLfeEffectHandler24ConvolutionEffectHandlerEEEEEEDcT_DpT0_', symObjAddr: 0x2578, symBinAddr: 0x14060, symSize: 0x30 }
  - { offset: 0x136BBB, size: 0x8, addend: 0x0, symName: '__ZNSt3__116__variant_detail12__visitation6__base12__dispatcherIJLm6EEE10__dispatchB8fe200100IONS1_9__variant15__value_visitorIZN12_GLOBAL__N_19alEffectiEN3gsl8not_nullIPN2al7ContextEEEjiiE3$_1EEJRNS0_6__baseILNS0_6_TraitE0EJ17NullEffectHandler19ReverbEffectHandler22StdReverbEffectHandler20AutowahEffectHandler19ChorusEffectHandler23CompressorEffectHandler23DistortionEffectHandler17EchoEffectHandler22EqualizerEffectHandler20FlangerEffectHandler21FshifterEffectHandler22ModulatorEffectHandler21PshifterEffectHandler21VmorpherEffectHandler28DedicatedDialogEffectHandler25DedicatedLfeEffectHandler24ConvolutionEffectHandlerEEEEEEDcT_DpT0_', symObjAddr: 0x2578, symBinAddr: 0x14060, symSize: 0x30 }
  - { offset: 0x136BD9, size: 0x8, addend: 0x0, symName: '__ZNSt3__116__variant_detail12__visitation6__base12__dispatcherIJLm6EEE10__dispatchB8fe200100IONS1_9__variant15__value_visitorIZN12_GLOBAL__N_19alEffectiEN3gsl8not_nullIPN2al7ContextEEEjiiE3$_1EEJRNS0_6__baseILNS0_6_TraitE0EJ17NullEffectHandler19ReverbEffectHandler22StdReverbEffectHandler20AutowahEffectHandler19ChorusEffectHandler23CompressorEffectHandler23DistortionEffectHandler17EchoEffectHandler22EqualizerEffectHandler20FlangerEffectHandler21FshifterEffectHandler22ModulatorEffectHandler21PshifterEffectHandler21VmorpherEffectHandler28DedicatedDialogEffectHandler25DedicatedLfeEffectHandler24ConvolutionEffectHandlerEEEEEEDcT_DpT0_', symObjAddr: 0x2578, symBinAddr: 0x14060, symSize: 0x30 }
  - { offset: 0x136D4A, size: 0x8, addend: 0x0, symName: '__ZNSt3__116__variant_detail12__visitation6__base12__dispatcherIJLm7EEE10__dispatchB8fe200100IONS1_9__variant15__value_visitorIZN12_GLOBAL__N_19alEffectiEN3gsl8not_nullIPN2al7ContextEEEjiiE3$_1EEJRNS0_6__baseILNS0_6_TraitE0EJ17NullEffectHandler19ReverbEffectHandler22StdReverbEffectHandler20AutowahEffectHandler19ChorusEffectHandler23CompressorEffectHandler23DistortionEffectHandler17EchoEffectHandler22EqualizerEffectHandler20FlangerEffectHandler21FshifterEffectHandler22ModulatorEffectHandler21PshifterEffectHandler21VmorpherEffectHandler28DedicatedDialogEffectHandler25DedicatedLfeEffectHandler24ConvolutionEffectHandlerEEEEEEDcT_DpT0_', symObjAddr: 0x25A8, symBinAddr: 0x14090, symSize: 0x30 }
  - { offset: 0x136DDF, size: 0x8, addend: 0x0, symName: '__ZNSt3__116__variant_detail12__visitation6__base12__dispatcherIJLm7EEE10__dispatchB8fe200100IONS1_9__variant15__value_visitorIZN12_GLOBAL__N_19alEffectiEN3gsl8not_nullIPN2al7ContextEEEjiiE3$_1EEJRNS0_6__baseILNS0_6_TraitE0EJ17NullEffectHandler19ReverbEffectHandler22StdReverbEffectHandler20AutowahEffectHandler19ChorusEffectHandler23CompressorEffectHandler23DistortionEffectHandler17EchoEffectHandler22EqualizerEffectHandler20FlangerEffectHandler21FshifterEffectHandler22ModulatorEffectHandler21PshifterEffectHandler21VmorpherEffectHandler28DedicatedDialogEffectHandler25DedicatedLfeEffectHandler24ConvolutionEffectHandlerEEEEEEDcT_DpT0_', symObjAddr: 0x25A8, symBinAddr: 0x14090, symSize: 0x30 }
  - { offset: 0x136E13, size: 0x8, addend: 0x0, symName: '__ZNSt3__116__variant_detail12__visitation6__base12__dispatcherIJLm7EEE10__dispatchB8fe200100IONS1_9__variant15__value_visitorIZN12_GLOBAL__N_19alEffectiEN3gsl8not_nullIPN2al7ContextEEEjiiE3$_1EEJRNS0_6__baseILNS0_6_TraitE0EJ17NullEffectHandler19ReverbEffectHandler22StdReverbEffectHandler20AutowahEffectHandler19ChorusEffectHandler23CompressorEffectHandler23DistortionEffectHandler17EchoEffectHandler22EqualizerEffectHandler20FlangerEffectHandler21FshifterEffectHandler22ModulatorEffectHandler21PshifterEffectHandler21VmorpherEffectHandler28DedicatedDialogEffectHandler25DedicatedLfeEffectHandler24ConvolutionEffectHandlerEEEEEEDcT_DpT0_', symObjAddr: 0x25A8, symBinAddr: 0x14090, symSize: 0x30 }
  - { offset: 0x136E31, size: 0x8, addend: 0x0, symName: '__ZNSt3__116__variant_detail12__visitation6__base12__dispatcherIJLm7EEE10__dispatchB8fe200100IONS1_9__variant15__value_visitorIZN12_GLOBAL__N_19alEffectiEN3gsl8not_nullIPN2al7ContextEEEjiiE3$_1EEJRNS0_6__baseILNS0_6_TraitE0EJ17NullEffectHandler19ReverbEffectHandler22StdReverbEffectHandler20AutowahEffectHandler19ChorusEffectHandler23CompressorEffectHandler23DistortionEffectHandler17EchoEffectHandler22EqualizerEffectHandler20FlangerEffectHandler21FshifterEffectHandler22ModulatorEffectHandler21PshifterEffectHandler21VmorpherEffectHandler28DedicatedDialogEffectHandler25DedicatedLfeEffectHandler24ConvolutionEffectHandlerEEEEEEDcT_DpT0_', symObjAddr: 0x25A8, symBinAddr: 0x14090, symSize: 0x30 }
  - { offset: 0x136FA2, size: 0x8, addend: 0x0, symName: '__ZNSt3__116__variant_detail12__visitation6__base12__dispatcherIJLm8EEE10__dispatchB8fe200100IONS1_9__variant15__value_visitorIZN12_GLOBAL__N_19alEffectiEN3gsl8not_nullIPN2al7ContextEEEjiiE3$_1EEJRNS0_6__baseILNS0_6_TraitE0EJ17NullEffectHandler19ReverbEffectHandler22StdReverbEffectHandler20AutowahEffectHandler19ChorusEffectHandler23CompressorEffectHandler23DistortionEffectHandler17EchoEffectHandler22EqualizerEffectHandler20FlangerEffectHandler21FshifterEffectHandler22ModulatorEffectHandler21PshifterEffectHandler21VmorpherEffectHandler28DedicatedDialogEffectHandler25DedicatedLfeEffectHandler24ConvolutionEffectHandlerEEEEEEDcT_DpT0_', symObjAddr: 0x25D8, symBinAddr: 0x140C0, symSize: 0x30 }
  - { offset: 0x137037, size: 0x8, addend: 0x0, symName: '__ZNSt3__116__variant_detail12__visitation6__base12__dispatcherIJLm8EEE10__dispatchB8fe200100IONS1_9__variant15__value_visitorIZN12_GLOBAL__N_19alEffectiEN3gsl8not_nullIPN2al7ContextEEEjiiE3$_1EEJRNS0_6__baseILNS0_6_TraitE0EJ17NullEffectHandler19ReverbEffectHandler22StdReverbEffectHandler20AutowahEffectHandler19ChorusEffectHandler23CompressorEffectHandler23DistortionEffectHandler17EchoEffectHandler22EqualizerEffectHandler20FlangerEffectHandler21FshifterEffectHandler22ModulatorEffectHandler21PshifterEffectHandler21VmorpherEffectHandler28DedicatedDialogEffectHandler25DedicatedLfeEffectHandler24ConvolutionEffectHandlerEEEEEEDcT_DpT0_', symObjAddr: 0x25D8, symBinAddr: 0x140C0, symSize: 0x30 }
  - { offset: 0x13706B, size: 0x8, addend: 0x0, symName: '__ZNSt3__116__variant_detail12__visitation6__base12__dispatcherIJLm8EEE10__dispatchB8fe200100IONS1_9__variant15__value_visitorIZN12_GLOBAL__N_19alEffectiEN3gsl8not_nullIPN2al7ContextEEEjiiE3$_1EEJRNS0_6__baseILNS0_6_TraitE0EJ17NullEffectHandler19ReverbEffectHandler22StdReverbEffectHandler20AutowahEffectHandler19ChorusEffectHandler23CompressorEffectHandler23DistortionEffectHandler17EchoEffectHandler22EqualizerEffectHandler20FlangerEffectHandler21FshifterEffectHandler22ModulatorEffectHandler21PshifterEffectHandler21VmorpherEffectHandler28DedicatedDialogEffectHandler25DedicatedLfeEffectHandler24ConvolutionEffectHandlerEEEEEEDcT_DpT0_', symObjAddr: 0x25D8, symBinAddr: 0x140C0, symSize: 0x30 }
  - { offset: 0x137089, size: 0x8, addend: 0x0, symName: '__ZNSt3__116__variant_detail12__visitation6__base12__dispatcherIJLm8EEE10__dispatchB8fe200100IONS1_9__variant15__value_visitorIZN12_GLOBAL__N_19alEffectiEN3gsl8not_nullIPN2al7ContextEEEjiiE3$_1EEJRNS0_6__baseILNS0_6_TraitE0EJ17NullEffectHandler19ReverbEffectHandler22StdReverbEffectHandler20AutowahEffectHandler19ChorusEffectHandler23CompressorEffectHandler23DistortionEffectHandler17EchoEffectHandler22EqualizerEffectHandler20FlangerEffectHandler21FshifterEffectHandler22ModulatorEffectHandler21PshifterEffectHandler21VmorpherEffectHandler28DedicatedDialogEffectHandler25DedicatedLfeEffectHandler24ConvolutionEffectHandlerEEEEEEDcT_DpT0_', symObjAddr: 0x25D8, symBinAddr: 0x140C0, symSize: 0x30 }
  - { offset: 0x1371FA, size: 0x8, addend: 0x0, symName: '__ZNSt3__116__variant_detail12__visitation6__base12__dispatcherIJLm9EEE10__dispatchB8fe200100IONS1_9__variant15__value_visitorIZN12_GLOBAL__N_19alEffectiEN3gsl8not_nullIPN2al7ContextEEEjiiE3$_1EEJRNS0_6__baseILNS0_6_TraitE0EJ17NullEffectHandler19ReverbEffectHandler22StdReverbEffectHandler20AutowahEffectHandler19ChorusEffectHandler23CompressorEffectHandler23DistortionEffectHandler17EchoEffectHandler22EqualizerEffectHandler20FlangerEffectHandler21FshifterEffectHandler22ModulatorEffectHandler21PshifterEffectHandler21VmorpherEffectHandler28DedicatedDialogEffectHandler25DedicatedLfeEffectHandler24ConvolutionEffectHandlerEEEEEEDcT_DpT0_', symObjAddr: 0x2608, symBinAddr: 0x140F0, symSize: 0x30 }
  - { offset: 0x137283, size: 0x8, addend: 0x0, symName: '__ZNSt3__116__variant_detail12__visitation6__base12__dispatcherIJLm9EEE10__dispatchB8fe200100IONS1_9__variant15__value_visitorIZN12_GLOBAL__N_19alEffectiEN3gsl8not_nullIPN2al7ContextEEEjiiE3$_1EEJRNS0_6__baseILNS0_6_TraitE0EJ17NullEffectHandler19ReverbEffectHandler22StdReverbEffectHandler20AutowahEffectHandler19ChorusEffectHandler23CompressorEffectHandler23DistortionEffectHandler17EchoEffectHandler22EqualizerEffectHandler20FlangerEffectHandler21FshifterEffectHandler22ModulatorEffectHandler21PshifterEffectHandler21VmorpherEffectHandler28DedicatedDialogEffectHandler25DedicatedLfeEffectHandler24ConvolutionEffectHandlerEEEEEEDcT_DpT0_', symObjAddr: 0x2608, symBinAddr: 0x140F0, symSize: 0x30 }
  - { offset: 0x1372B7, size: 0x8, addend: 0x0, symName: '__ZNSt3__116__variant_detail12__visitation6__base12__dispatcherIJLm9EEE10__dispatchB8fe200100IONS1_9__variant15__value_visitorIZN12_GLOBAL__N_19alEffectiEN3gsl8not_nullIPN2al7ContextEEEjiiE3$_1EEJRNS0_6__baseILNS0_6_TraitE0EJ17NullEffectHandler19ReverbEffectHandler22StdReverbEffectHandler20AutowahEffectHandler19ChorusEffectHandler23CompressorEffectHandler23DistortionEffectHandler17EchoEffectHandler22EqualizerEffectHandler20FlangerEffectHandler21FshifterEffectHandler22ModulatorEffectHandler21PshifterEffectHandler21VmorpherEffectHandler28DedicatedDialogEffectHandler25DedicatedLfeEffectHandler24ConvolutionEffectHandlerEEEEEEDcT_DpT0_', symObjAddr: 0x2608, symBinAddr: 0x140F0, symSize: 0x30 }
  - { offset: 0x1372D5, size: 0x8, addend: 0x0, symName: '__ZNSt3__116__variant_detail12__visitation6__base12__dispatcherIJLm9EEE10__dispatchB8fe200100IONS1_9__variant15__value_visitorIZN12_GLOBAL__N_19alEffectiEN3gsl8not_nullIPN2al7ContextEEEjiiE3$_1EEJRNS0_6__baseILNS0_6_TraitE0EJ17NullEffectHandler19ReverbEffectHandler22StdReverbEffectHandler20AutowahEffectHandler19ChorusEffectHandler23CompressorEffectHandler23DistortionEffectHandler17EchoEffectHandler22EqualizerEffectHandler20FlangerEffectHandler21FshifterEffectHandler22ModulatorEffectHandler21PshifterEffectHandler21VmorpherEffectHandler28DedicatedDialogEffectHandler25DedicatedLfeEffectHandler24ConvolutionEffectHandlerEEEEEEDcT_DpT0_', symObjAddr: 0x2608, symBinAddr: 0x140F0, symSize: 0x30 }
  - { offset: 0x137446, size: 0x8, addend: 0x0, symName: '__ZNSt3__116__variant_detail12__visitation6__base12__dispatcherIJLm10EEE10__dispatchB8fe200100IONS1_9__variant15__value_visitorIZN12_GLOBAL__N_19alEffectiEN3gsl8not_nullIPN2al7ContextEEEjiiE3$_1EEJRNS0_6__baseILNS0_6_TraitE0EJ17NullEffectHandler19ReverbEffectHandler22StdReverbEffectHandler20AutowahEffectHandler19ChorusEffectHandler23CompressorEffectHandler23DistortionEffectHandler17EchoEffectHandler22EqualizerEffectHandler20FlangerEffectHandler21FshifterEffectHandler22ModulatorEffectHandler21PshifterEffectHandler21VmorpherEffectHandler28DedicatedDialogEffectHandler25DedicatedLfeEffectHandler24ConvolutionEffectHandlerEEEEEEDcT_DpT0_', symObjAddr: 0x2638, symBinAddr: 0x14120, symSize: 0x30 }
  - { offset: 0x1374DB, size: 0x8, addend: 0x0, symName: '__ZNSt3__116__variant_detail12__visitation6__base12__dispatcherIJLm10EEE10__dispatchB8fe200100IONS1_9__variant15__value_visitorIZN12_GLOBAL__N_19alEffectiEN3gsl8not_nullIPN2al7ContextEEEjiiE3$_1EEJRNS0_6__baseILNS0_6_TraitE0EJ17NullEffectHandler19ReverbEffectHandler22StdReverbEffectHandler20AutowahEffectHandler19ChorusEffectHandler23CompressorEffectHandler23DistortionEffectHandler17EchoEffectHandler22EqualizerEffectHandler20FlangerEffectHandler21FshifterEffectHandler22ModulatorEffectHandler21PshifterEffectHandler21VmorpherEffectHandler28DedicatedDialogEffectHandler25DedicatedLfeEffectHandler24ConvolutionEffectHandlerEEEEEEDcT_DpT0_', symObjAddr: 0x2638, symBinAddr: 0x14120, symSize: 0x30 }
  - { offset: 0x13750F, size: 0x8, addend: 0x0, symName: '__ZNSt3__116__variant_detail12__visitation6__base12__dispatcherIJLm10EEE10__dispatchB8fe200100IONS1_9__variant15__value_visitorIZN12_GLOBAL__N_19alEffectiEN3gsl8not_nullIPN2al7ContextEEEjiiE3$_1EEJRNS0_6__baseILNS0_6_TraitE0EJ17NullEffectHandler19ReverbEffectHandler22StdReverbEffectHandler20AutowahEffectHandler19ChorusEffectHandler23CompressorEffectHandler23DistortionEffectHandler17EchoEffectHandler22EqualizerEffectHandler20FlangerEffectHandler21FshifterEffectHandler22ModulatorEffectHandler21PshifterEffectHandler21VmorpherEffectHandler28DedicatedDialogEffectHandler25DedicatedLfeEffectHandler24ConvolutionEffectHandlerEEEEEEDcT_DpT0_', symObjAddr: 0x2638, symBinAddr: 0x14120, symSize: 0x30 }
  - { offset: 0x13752D, size: 0x8, addend: 0x0, symName: '__ZNSt3__116__variant_detail12__visitation6__base12__dispatcherIJLm10EEE10__dispatchB8fe200100IONS1_9__variant15__value_visitorIZN12_GLOBAL__N_19alEffectiEN3gsl8not_nullIPN2al7ContextEEEjiiE3$_1EEJRNS0_6__baseILNS0_6_TraitE0EJ17NullEffectHandler19ReverbEffectHandler22StdReverbEffectHandler20AutowahEffectHandler19ChorusEffectHandler23CompressorEffectHandler23DistortionEffectHandler17EchoEffectHandler22EqualizerEffectHandler20FlangerEffectHandler21FshifterEffectHandler22ModulatorEffectHandler21PshifterEffectHandler21VmorpherEffectHandler28DedicatedDialogEffectHandler25DedicatedLfeEffectHandler24ConvolutionEffectHandlerEEEEEEDcT_DpT0_', symObjAddr: 0x2638, symBinAddr: 0x14120, symSize: 0x30 }
  - { offset: 0x13769E, size: 0x8, addend: 0x0, symName: '__ZNSt3__116__variant_detail12__visitation6__base12__dispatcherIJLm11EEE10__dispatchB8fe200100IONS1_9__variant15__value_visitorIZN12_GLOBAL__N_19alEffectiEN3gsl8not_nullIPN2al7ContextEEEjiiE3$_1EEJRNS0_6__baseILNS0_6_TraitE0EJ17NullEffectHandler19ReverbEffectHandler22StdReverbEffectHandler20AutowahEffectHandler19ChorusEffectHandler23CompressorEffectHandler23DistortionEffectHandler17EchoEffectHandler22EqualizerEffectHandler20FlangerEffectHandler21FshifterEffectHandler22ModulatorEffectHandler21PshifterEffectHandler21VmorpherEffectHandler28DedicatedDialogEffectHandler25DedicatedLfeEffectHandler24ConvolutionEffectHandlerEEEEEEDcT_DpT0_', symObjAddr: 0x2668, symBinAddr: 0x14150, symSize: 0x30 }
  - { offset: 0x137733, size: 0x8, addend: 0x0, symName: '__ZNSt3__116__variant_detail12__visitation6__base12__dispatcherIJLm11EEE10__dispatchB8fe200100IONS1_9__variant15__value_visitorIZN12_GLOBAL__N_19alEffectiEN3gsl8not_nullIPN2al7ContextEEEjiiE3$_1EEJRNS0_6__baseILNS0_6_TraitE0EJ17NullEffectHandler19ReverbEffectHandler22StdReverbEffectHandler20AutowahEffectHandler19ChorusEffectHandler23CompressorEffectHandler23DistortionEffectHandler17EchoEffectHandler22EqualizerEffectHandler20FlangerEffectHandler21FshifterEffectHandler22ModulatorEffectHandler21PshifterEffectHandler21VmorpherEffectHandler28DedicatedDialogEffectHandler25DedicatedLfeEffectHandler24ConvolutionEffectHandlerEEEEEEDcT_DpT0_', symObjAddr: 0x2668, symBinAddr: 0x14150, symSize: 0x30 }
  - { offset: 0x137767, size: 0x8, addend: 0x0, symName: '__ZNSt3__116__variant_detail12__visitation6__base12__dispatcherIJLm11EEE10__dispatchB8fe200100IONS1_9__variant15__value_visitorIZN12_GLOBAL__N_19alEffectiEN3gsl8not_nullIPN2al7ContextEEEjiiE3$_1EEJRNS0_6__baseILNS0_6_TraitE0EJ17NullEffectHandler19ReverbEffectHandler22StdReverbEffectHandler20AutowahEffectHandler19ChorusEffectHandler23CompressorEffectHandler23DistortionEffectHandler17EchoEffectHandler22EqualizerEffectHandler20FlangerEffectHandler21FshifterEffectHandler22ModulatorEffectHandler21PshifterEffectHandler21VmorpherEffectHandler28DedicatedDialogEffectHandler25DedicatedLfeEffectHandler24ConvolutionEffectHandlerEEEEEEDcT_DpT0_', symObjAddr: 0x2668, symBinAddr: 0x14150, symSize: 0x30 }
  - { offset: 0x137785, size: 0x8, addend: 0x0, symName: '__ZNSt3__116__variant_detail12__visitation6__base12__dispatcherIJLm11EEE10__dispatchB8fe200100IONS1_9__variant15__value_visitorIZN12_GLOBAL__N_19alEffectiEN3gsl8not_nullIPN2al7ContextEEEjiiE3$_1EEJRNS0_6__baseILNS0_6_TraitE0EJ17NullEffectHandler19ReverbEffectHandler22StdReverbEffectHandler20AutowahEffectHandler19ChorusEffectHandler23CompressorEffectHandler23DistortionEffectHandler17EchoEffectHandler22EqualizerEffectHandler20FlangerEffectHandler21FshifterEffectHandler22ModulatorEffectHandler21PshifterEffectHandler21VmorpherEffectHandler28DedicatedDialogEffectHandler25DedicatedLfeEffectHandler24ConvolutionEffectHandlerEEEEEEDcT_DpT0_', symObjAddr: 0x2668, symBinAddr: 0x14150, symSize: 0x30 }
  - { offset: 0x1378F6, size: 0x8, addend: 0x0, symName: '__ZNSt3__116__variant_detail12__visitation6__base12__dispatcherIJLm12EEE10__dispatchB8fe200100IONS1_9__variant15__value_visitorIZN12_GLOBAL__N_19alEffectiEN3gsl8not_nullIPN2al7ContextEEEjiiE3$_1EEJRNS0_6__baseILNS0_6_TraitE0EJ17NullEffectHandler19ReverbEffectHandler22StdReverbEffectHandler20AutowahEffectHandler19ChorusEffectHandler23CompressorEffectHandler23DistortionEffectHandler17EchoEffectHandler22EqualizerEffectHandler20FlangerEffectHandler21FshifterEffectHandler22ModulatorEffectHandler21PshifterEffectHandler21VmorpherEffectHandler28DedicatedDialogEffectHandler25DedicatedLfeEffectHandler24ConvolutionEffectHandlerEEEEEEDcT_DpT0_', symObjAddr: 0x2698, symBinAddr: 0x14180, symSize: 0x30 }
  - { offset: 0x13798B, size: 0x8, addend: 0x0, symName: '__ZNSt3__116__variant_detail12__visitation6__base12__dispatcherIJLm12EEE10__dispatchB8fe200100IONS1_9__variant15__value_visitorIZN12_GLOBAL__N_19alEffectiEN3gsl8not_nullIPN2al7ContextEEEjiiE3$_1EEJRNS0_6__baseILNS0_6_TraitE0EJ17NullEffectHandler19ReverbEffectHandler22StdReverbEffectHandler20AutowahEffectHandler19ChorusEffectHandler23CompressorEffectHandler23DistortionEffectHandler17EchoEffectHandler22EqualizerEffectHandler20FlangerEffectHandler21FshifterEffectHandler22ModulatorEffectHandler21PshifterEffectHandler21VmorpherEffectHandler28DedicatedDialogEffectHandler25DedicatedLfeEffectHandler24ConvolutionEffectHandlerEEEEEEDcT_DpT0_', symObjAddr: 0x2698, symBinAddr: 0x14180, symSize: 0x30 }
  - { offset: 0x1379BF, size: 0x8, addend: 0x0, symName: '__ZNSt3__116__variant_detail12__visitation6__base12__dispatcherIJLm12EEE10__dispatchB8fe200100IONS1_9__variant15__value_visitorIZN12_GLOBAL__N_19alEffectiEN3gsl8not_nullIPN2al7ContextEEEjiiE3$_1EEJRNS0_6__baseILNS0_6_TraitE0EJ17NullEffectHandler19ReverbEffectHandler22StdReverbEffectHandler20AutowahEffectHandler19ChorusEffectHandler23CompressorEffectHandler23DistortionEffectHandler17EchoEffectHandler22EqualizerEffectHandler20FlangerEffectHandler21FshifterEffectHandler22ModulatorEffectHandler21PshifterEffectHandler21VmorpherEffectHandler28DedicatedDialogEffectHandler25DedicatedLfeEffectHandler24ConvolutionEffectHandlerEEEEEEDcT_DpT0_', symObjAddr: 0x2698, symBinAddr: 0x14180, symSize: 0x30 }
  - { offset: 0x1379DD, size: 0x8, addend: 0x0, symName: '__ZNSt3__116__variant_detail12__visitation6__base12__dispatcherIJLm12EEE10__dispatchB8fe200100IONS1_9__variant15__value_visitorIZN12_GLOBAL__N_19alEffectiEN3gsl8not_nullIPN2al7ContextEEEjiiE3$_1EEJRNS0_6__baseILNS0_6_TraitE0EJ17NullEffectHandler19ReverbEffectHandler22StdReverbEffectHandler20AutowahEffectHandler19ChorusEffectHandler23CompressorEffectHandler23DistortionEffectHandler17EchoEffectHandler22EqualizerEffectHandler20FlangerEffectHandler21FshifterEffectHandler22ModulatorEffectHandler21PshifterEffectHandler21VmorpherEffectHandler28DedicatedDialogEffectHandler25DedicatedLfeEffectHandler24ConvolutionEffectHandlerEEEEEEDcT_DpT0_', symObjAddr: 0x2698, symBinAddr: 0x14180, symSize: 0x30 }
  - { offset: 0x137B4E, size: 0x8, addend: 0x0, symName: '__ZNSt3__116__variant_detail12__visitation6__base12__dispatcherIJLm13EEE10__dispatchB8fe200100IONS1_9__variant15__value_visitorIZN12_GLOBAL__N_19alEffectiEN3gsl8not_nullIPN2al7ContextEEEjiiE3$_1EEJRNS0_6__baseILNS0_6_TraitE0EJ17NullEffectHandler19ReverbEffectHandler22StdReverbEffectHandler20AutowahEffectHandler19ChorusEffectHandler23CompressorEffectHandler23DistortionEffectHandler17EchoEffectHandler22EqualizerEffectHandler20FlangerEffectHandler21FshifterEffectHandler22ModulatorEffectHandler21PshifterEffectHandler21VmorpherEffectHandler28DedicatedDialogEffectHandler25DedicatedLfeEffectHandler24ConvolutionEffectHandlerEEEEEEDcT_DpT0_', symObjAddr: 0x26C8, symBinAddr: 0x141B0, symSize: 0x30 }
  - { offset: 0x137BE3, size: 0x8, addend: 0x0, symName: '__ZNSt3__116__variant_detail12__visitation6__base12__dispatcherIJLm13EEE10__dispatchB8fe200100IONS1_9__variant15__value_visitorIZN12_GLOBAL__N_19alEffectiEN3gsl8not_nullIPN2al7ContextEEEjiiE3$_1EEJRNS0_6__baseILNS0_6_TraitE0EJ17NullEffectHandler19ReverbEffectHandler22StdReverbEffectHandler20AutowahEffectHandler19ChorusEffectHandler23CompressorEffectHandler23DistortionEffectHandler17EchoEffectHandler22EqualizerEffectHandler20FlangerEffectHandler21FshifterEffectHandler22ModulatorEffectHandler21PshifterEffectHandler21VmorpherEffectHandler28DedicatedDialogEffectHandler25DedicatedLfeEffectHandler24ConvolutionEffectHandlerEEEEEEDcT_DpT0_', symObjAddr: 0x26C8, symBinAddr: 0x141B0, symSize: 0x30 }
  - { offset: 0x137C17, size: 0x8, addend: 0x0, symName: '__ZNSt3__116__variant_detail12__visitation6__base12__dispatcherIJLm13EEE10__dispatchB8fe200100IONS1_9__variant15__value_visitorIZN12_GLOBAL__N_19alEffectiEN3gsl8not_nullIPN2al7ContextEEEjiiE3$_1EEJRNS0_6__baseILNS0_6_TraitE0EJ17NullEffectHandler19ReverbEffectHandler22StdReverbEffectHandler20AutowahEffectHandler19ChorusEffectHandler23CompressorEffectHandler23DistortionEffectHandler17EchoEffectHandler22EqualizerEffectHandler20FlangerEffectHandler21FshifterEffectHandler22ModulatorEffectHandler21PshifterEffectHandler21VmorpherEffectHandler28DedicatedDialogEffectHandler25DedicatedLfeEffectHandler24ConvolutionEffectHandlerEEEEEEDcT_DpT0_', symObjAddr: 0x26C8, symBinAddr: 0x141B0, symSize: 0x30 }
  - { offset: 0x137C35, size: 0x8, addend: 0x0, symName: '__ZNSt3__116__variant_detail12__visitation6__base12__dispatcherIJLm13EEE10__dispatchB8fe200100IONS1_9__variant15__value_visitorIZN12_GLOBAL__N_19alEffectiEN3gsl8not_nullIPN2al7ContextEEEjiiE3$_1EEJRNS0_6__baseILNS0_6_TraitE0EJ17NullEffectHandler19ReverbEffectHandler22StdReverbEffectHandler20AutowahEffectHandler19ChorusEffectHandler23CompressorEffectHandler23DistortionEffectHandler17EchoEffectHandler22EqualizerEffectHandler20FlangerEffectHandler21FshifterEffectHandler22ModulatorEffectHandler21PshifterEffectHandler21VmorpherEffectHandler28DedicatedDialogEffectHandler25DedicatedLfeEffectHandler24ConvolutionEffectHandlerEEEEEEDcT_DpT0_', symObjAddr: 0x26C8, symBinAddr: 0x141B0, symSize: 0x30 }
  - { offset: 0x137DA6, size: 0x8, addend: 0x0, symName: '__ZNSt3__116__variant_detail12__visitation6__base12__dispatcherIJLm14EEE10__dispatchB8fe200100IONS1_9__variant15__value_visitorIZN12_GLOBAL__N_19alEffectiEN3gsl8not_nullIPN2al7ContextEEEjiiE3$_1EEJRNS0_6__baseILNS0_6_TraitE0EJ17NullEffectHandler19ReverbEffectHandler22StdReverbEffectHandler20AutowahEffectHandler19ChorusEffectHandler23CompressorEffectHandler23DistortionEffectHandler17EchoEffectHandler22EqualizerEffectHandler20FlangerEffectHandler21FshifterEffectHandler22ModulatorEffectHandler21PshifterEffectHandler21VmorpherEffectHandler28DedicatedDialogEffectHandler25DedicatedLfeEffectHandler24ConvolutionEffectHandlerEEEEEEDcT_DpT0_', symObjAddr: 0x26F8, symBinAddr: 0x141E0, symSize: 0x30 }
  - { offset: 0x137E3B, size: 0x8, addend: 0x0, symName: '__ZNSt3__116__variant_detail12__visitation6__base12__dispatcherIJLm14EEE10__dispatchB8fe200100IONS1_9__variant15__value_visitorIZN12_GLOBAL__N_19alEffectiEN3gsl8not_nullIPN2al7ContextEEEjiiE3$_1EEJRNS0_6__baseILNS0_6_TraitE0EJ17NullEffectHandler19ReverbEffectHandler22StdReverbEffectHandler20AutowahEffectHandler19ChorusEffectHandler23CompressorEffectHandler23DistortionEffectHandler17EchoEffectHandler22EqualizerEffectHandler20FlangerEffectHandler21FshifterEffectHandler22ModulatorEffectHandler21PshifterEffectHandler21VmorpherEffectHandler28DedicatedDialogEffectHandler25DedicatedLfeEffectHandler24ConvolutionEffectHandlerEEEEEEDcT_DpT0_', symObjAddr: 0x26F8, symBinAddr: 0x141E0, symSize: 0x30 }
  - { offset: 0x137E6F, size: 0x8, addend: 0x0, symName: '__ZNSt3__116__variant_detail12__visitation6__base12__dispatcherIJLm14EEE10__dispatchB8fe200100IONS1_9__variant15__value_visitorIZN12_GLOBAL__N_19alEffectiEN3gsl8not_nullIPN2al7ContextEEEjiiE3$_1EEJRNS0_6__baseILNS0_6_TraitE0EJ17NullEffectHandler19ReverbEffectHandler22StdReverbEffectHandler20AutowahEffectHandler19ChorusEffectHandler23CompressorEffectHandler23DistortionEffectHandler17EchoEffectHandler22EqualizerEffectHandler20FlangerEffectHandler21FshifterEffectHandler22ModulatorEffectHandler21PshifterEffectHandler21VmorpherEffectHandler28DedicatedDialogEffectHandler25DedicatedLfeEffectHandler24ConvolutionEffectHandlerEEEEEEDcT_DpT0_', symObjAddr: 0x26F8, symBinAddr: 0x141E0, symSize: 0x30 }
  - { offset: 0x137E8D, size: 0x8, addend: 0x0, symName: '__ZNSt3__116__variant_detail12__visitation6__base12__dispatcherIJLm14EEE10__dispatchB8fe200100IONS1_9__variant15__value_visitorIZN12_GLOBAL__N_19alEffectiEN3gsl8not_nullIPN2al7ContextEEEjiiE3$_1EEJRNS0_6__baseILNS0_6_TraitE0EJ17NullEffectHandler19ReverbEffectHandler22StdReverbEffectHandler20AutowahEffectHandler19ChorusEffectHandler23CompressorEffectHandler23DistortionEffectHandler17EchoEffectHandler22EqualizerEffectHandler20FlangerEffectHandler21FshifterEffectHandler22ModulatorEffectHandler21PshifterEffectHandler21VmorpherEffectHandler28DedicatedDialogEffectHandler25DedicatedLfeEffectHandler24ConvolutionEffectHandlerEEEEEEDcT_DpT0_', symObjAddr: 0x26F8, symBinAddr: 0x141E0, symSize: 0x30 }
  - { offset: 0x137FFE, size: 0x8, addend: 0x0, symName: '__ZNSt3__116__variant_detail12__visitation6__base12__dispatcherIJLm15EEE10__dispatchB8fe200100IONS1_9__variant15__value_visitorIZN12_GLOBAL__N_19alEffectiEN3gsl8not_nullIPN2al7ContextEEEjiiE3$_1EEJRNS0_6__baseILNS0_6_TraitE0EJ17NullEffectHandler19ReverbEffectHandler22StdReverbEffectHandler20AutowahEffectHandler19ChorusEffectHandler23CompressorEffectHandler23DistortionEffectHandler17EchoEffectHandler22EqualizerEffectHandler20FlangerEffectHandler21FshifterEffectHandler22ModulatorEffectHandler21PshifterEffectHandler21VmorpherEffectHandler28DedicatedDialogEffectHandler25DedicatedLfeEffectHandler24ConvolutionEffectHandlerEEEEEEDcT_DpT0_', symObjAddr: 0x2728, symBinAddr: 0x14210, symSize: 0x30 }
  - { offset: 0x138087, size: 0x8, addend: 0x0, symName: '__ZNSt3__116__variant_detail12__visitation6__base12__dispatcherIJLm15EEE10__dispatchB8fe200100IONS1_9__variant15__value_visitorIZN12_GLOBAL__N_19alEffectiEN3gsl8not_nullIPN2al7ContextEEEjiiE3$_1EEJRNS0_6__baseILNS0_6_TraitE0EJ17NullEffectHandler19ReverbEffectHandler22StdReverbEffectHandler20AutowahEffectHandler19ChorusEffectHandler23CompressorEffectHandler23DistortionEffectHandler17EchoEffectHandler22EqualizerEffectHandler20FlangerEffectHandler21FshifterEffectHandler22ModulatorEffectHandler21PshifterEffectHandler21VmorpherEffectHandler28DedicatedDialogEffectHandler25DedicatedLfeEffectHandler24ConvolutionEffectHandlerEEEEEEDcT_DpT0_', symObjAddr: 0x2728, symBinAddr: 0x14210, symSize: 0x30 }
  - { offset: 0x1380BB, size: 0x8, addend: 0x0, symName: '__ZNSt3__116__variant_detail12__visitation6__base12__dispatcherIJLm15EEE10__dispatchB8fe200100IONS1_9__variant15__value_visitorIZN12_GLOBAL__N_19alEffectiEN3gsl8not_nullIPN2al7ContextEEEjiiE3$_1EEJRNS0_6__baseILNS0_6_TraitE0EJ17NullEffectHandler19ReverbEffectHandler22StdReverbEffectHandler20AutowahEffectHandler19ChorusEffectHandler23CompressorEffectHandler23DistortionEffectHandler17EchoEffectHandler22EqualizerEffectHandler20FlangerEffectHandler21FshifterEffectHandler22ModulatorEffectHandler21PshifterEffectHandler21VmorpherEffectHandler28DedicatedDialogEffectHandler25DedicatedLfeEffectHandler24ConvolutionEffectHandlerEEEEEEDcT_DpT0_', symObjAddr: 0x2728, symBinAddr: 0x14210, symSize: 0x30 }
  - { offset: 0x1380D9, size: 0x8, addend: 0x0, symName: '__ZNSt3__116__variant_detail12__visitation6__base12__dispatcherIJLm15EEE10__dispatchB8fe200100IONS1_9__variant15__value_visitorIZN12_GLOBAL__N_19alEffectiEN3gsl8not_nullIPN2al7ContextEEEjiiE3$_1EEJRNS0_6__baseILNS0_6_TraitE0EJ17NullEffectHandler19ReverbEffectHandler22StdReverbEffectHandler20AutowahEffectHandler19ChorusEffectHandler23CompressorEffectHandler23DistortionEffectHandler17EchoEffectHandler22EqualizerEffectHandler20FlangerEffectHandler21FshifterEffectHandler22ModulatorEffectHandler21PshifterEffectHandler21VmorpherEffectHandler28DedicatedDialogEffectHandler25DedicatedLfeEffectHandler24ConvolutionEffectHandlerEEEEEEDcT_DpT0_', symObjAddr: 0x2728, symBinAddr: 0x14210, symSize: 0x30 }
  - { offset: 0x13824A, size: 0x8, addend: 0x0, symName: '__ZNSt3__116__variant_detail12__visitation6__base12__dispatcherIJLm16EEE10__dispatchB8fe200100IONS1_9__variant15__value_visitorIZN12_GLOBAL__N_19alEffectiEN3gsl8not_nullIPN2al7ContextEEEjiiE3$_1EEJRNS0_6__baseILNS0_6_TraitE0EJ17NullEffectHandler19ReverbEffectHandler22StdReverbEffectHandler20AutowahEffectHandler19ChorusEffectHandler23CompressorEffectHandler23DistortionEffectHandler17EchoEffectHandler22EqualizerEffectHandler20FlangerEffectHandler21FshifterEffectHandler22ModulatorEffectHandler21PshifterEffectHandler21VmorpherEffectHandler28DedicatedDialogEffectHandler25DedicatedLfeEffectHandler24ConvolutionEffectHandlerEEEEEEDcT_DpT0_', symObjAddr: 0x2758, symBinAddr: 0x14240, symSize: 0x30 }
  - { offset: 0x1382DF, size: 0x8, addend: 0x0, symName: '__ZNSt3__116__variant_detail12__visitation6__base12__dispatcherIJLm16EEE10__dispatchB8fe200100IONS1_9__variant15__value_visitorIZN12_GLOBAL__N_19alEffectiEN3gsl8not_nullIPN2al7ContextEEEjiiE3$_1EEJRNS0_6__baseILNS0_6_TraitE0EJ17NullEffectHandler19ReverbEffectHandler22StdReverbEffectHandler20AutowahEffectHandler19ChorusEffectHandler23CompressorEffectHandler23DistortionEffectHandler17EchoEffectHandler22EqualizerEffectHandler20FlangerEffectHandler21FshifterEffectHandler22ModulatorEffectHandler21PshifterEffectHandler21VmorpherEffectHandler28DedicatedDialogEffectHandler25DedicatedLfeEffectHandler24ConvolutionEffectHandlerEEEEEEDcT_DpT0_', symObjAddr: 0x2758, symBinAddr: 0x14240, symSize: 0x30 }
  - { offset: 0x138313, size: 0x8, addend: 0x0, symName: '__ZNSt3__116__variant_detail12__visitation6__base12__dispatcherIJLm16EEE10__dispatchB8fe200100IONS1_9__variant15__value_visitorIZN12_GLOBAL__N_19alEffectiEN3gsl8not_nullIPN2al7ContextEEEjiiE3$_1EEJRNS0_6__baseILNS0_6_TraitE0EJ17NullEffectHandler19ReverbEffectHandler22StdReverbEffectHandler20AutowahEffectHandler19ChorusEffectHandler23CompressorEffectHandler23DistortionEffectHandler17EchoEffectHandler22EqualizerEffectHandler20FlangerEffectHandler21FshifterEffectHandler22ModulatorEffectHandler21PshifterEffectHandler21VmorpherEffectHandler28DedicatedDialogEffectHandler25DedicatedLfeEffectHandler24ConvolutionEffectHandlerEEEEEEDcT_DpT0_', symObjAddr: 0x2758, symBinAddr: 0x14240, symSize: 0x30 }
  - { offset: 0x138331, size: 0x8, addend: 0x0, symName: '__ZNSt3__116__variant_detail12__visitation6__base12__dispatcherIJLm16EEE10__dispatchB8fe200100IONS1_9__variant15__value_visitorIZN12_GLOBAL__N_19alEffectiEN3gsl8not_nullIPN2al7ContextEEEjiiE3$_1EEJRNS0_6__baseILNS0_6_TraitE0EJ17NullEffectHandler19ReverbEffectHandler22StdReverbEffectHandler20AutowahEffectHandler19ChorusEffectHandler23CompressorEffectHandler23DistortionEffectHandler17EchoEffectHandler22EqualizerEffectHandler20FlangerEffectHandler21FshifterEffectHandler22ModulatorEffectHandler21PshifterEffectHandler21VmorpherEffectHandler28DedicatedDialogEffectHandler25DedicatedLfeEffectHandler24ConvolutionEffectHandlerEEEEEEDcT_DpT0_', symObjAddr: 0x2758, symBinAddr: 0x14240, symSize: 0x30 }
  - { offset: 0x1384A2, size: 0x8, addend: 0x0, symName: '__ZNSt3__116__variant_detail12__visitation6__base12__dispatcherIJLm0EEE10__dispatchB8fe200100IONS1_9__variant15__value_visitorIZN12_GLOBAL__N_110alEffectivEN3gsl8not_nullIPN2al7ContextEEEjiPKiE3$_0EEJRNS0_6__baseILNS0_6_TraitE0EJ17NullEffectHandler19ReverbEffectHandler22StdReverbEffectHandler20AutowahEffectHandler19ChorusEffectHandler23CompressorEffectHandler23DistortionEffectHandler17EchoEffectHandler22EqualizerEffectHandler20FlangerEffectHandler21FshifterEffectHandler22ModulatorEffectHandler21PshifterEffectHandler21VmorpherEffectHandler28DedicatedDialogEffectHandler25DedicatedLfeEffectHandler24ConvolutionEffectHandlerEEEEEEDcT_DpT0_', symObjAddr: 0x2788, symBinAddr: 0x14270, symSize: 0x30 }
  - { offset: 0x138543, size: 0x8, addend: 0x0, symName: '__ZNSt3__116__variant_detail12__visitation6__base12__dispatcherIJLm0EEE10__dispatchB8fe200100IONS1_9__variant15__value_visitorIZN12_GLOBAL__N_110alEffectivEN3gsl8not_nullIPN2al7ContextEEEjiPKiE3$_0EEJRNS0_6__baseILNS0_6_TraitE0EJ17NullEffectHandler19ReverbEffectHandler22StdReverbEffectHandler20AutowahEffectHandler19ChorusEffectHandler23CompressorEffectHandler23DistortionEffectHandler17EchoEffectHandler22EqualizerEffectHandler20FlangerEffectHandler21FshifterEffectHandler22ModulatorEffectHandler21PshifterEffectHandler21VmorpherEffectHandler28DedicatedDialogEffectHandler25DedicatedLfeEffectHandler24ConvolutionEffectHandlerEEEEEEDcT_DpT0_', symObjAddr: 0x2788, symBinAddr: 0x14270, symSize: 0x30 }
  - { offset: 0x138577, size: 0x8, addend: 0x0, symName: '__ZNSt3__116__variant_detail12__visitation6__base12__dispatcherIJLm0EEE10__dispatchB8fe200100IONS1_9__variant15__value_visitorIZN12_GLOBAL__N_110alEffectivEN3gsl8not_nullIPN2al7ContextEEEjiPKiE3$_0EEJRNS0_6__baseILNS0_6_TraitE0EJ17NullEffectHandler19ReverbEffectHandler22StdReverbEffectHandler20AutowahEffectHandler19ChorusEffectHandler23CompressorEffectHandler23DistortionEffectHandler17EchoEffectHandler22EqualizerEffectHandler20FlangerEffectHandler21FshifterEffectHandler22ModulatorEffectHandler21PshifterEffectHandler21VmorpherEffectHandler28DedicatedDialogEffectHandler25DedicatedLfeEffectHandler24ConvolutionEffectHandlerEEEEEEDcT_DpT0_', symObjAddr: 0x2788, symBinAddr: 0x14270, symSize: 0x30 }
  - { offset: 0x138595, size: 0x8, addend: 0x0, symName: '__ZNSt3__116__variant_detail12__visitation6__base12__dispatcherIJLm0EEE10__dispatchB8fe200100IONS1_9__variant15__value_visitorIZN12_GLOBAL__N_110alEffectivEN3gsl8not_nullIPN2al7ContextEEEjiPKiE3$_0EEJRNS0_6__baseILNS0_6_TraitE0EJ17NullEffectHandler19ReverbEffectHandler22StdReverbEffectHandler20AutowahEffectHandler19ChorusEffectHandler23CompressorEffectHandler23DistortionEffectHandler17EchoEffectHandler22EqualizerEffectHandler20FlangerEffectHandler21FshifterEffectHandler22ModulatorEffectHandler21PshifterEffectHandler21VmorpherEffectHandler28DedicatedDialogEffectHandler25DedicatedLfeEffectHandler24ConvolutionEffectHandlerEEEEEEDcT_DpT0_', symObjAddr: 0x2788, symBinAddr: 0x14270, symSize: 0x30 }
  - { offset: 0x138706, size: 0x8, addend: 0x0, symName: '__ZNSt3__116__variant_detail12__visitation6__base12__dispatcherIJLm1EEE10__dispatchB8fe200100IONS1_9__variant15__value_visitorIZN12_GLOBAL__N_110alEffectivEN3gsl8not_nullIPN2al7ContextEEEjiPKiE3$_0EEJRNS0_6__baseILNS0_6_TraitE0EJ17NullEffectHandler19ReverbEffectHandler22StdReverbEffectHandler20AutowahEffectHandler19ChorusEffectHandler23CompressorEffectHandler23DistortionEffectHandler17EchoEffectHandler22EqualizerEffectHandler20FlangerEffectHandler21FshifterEffectHandler22ModulatorEffectHandler21PshifterEffectHandler21VmorpherEffectHandler28DedicatedDialogEffectHandler25DedicatedLfeEffectHandler24ConvolutionEffectHandlerEEEEEEDcT_DpT0_', symObjAddr: 0x27B8, symBinAddr: 0x142A0, symSize: 0x34 }
  - { offset: 0x138783, size: 0x8, addend: 0x0, symName: '__ZNSt3__116__variant_detail12__visitation6__base12__dispatcherIJLm1EEE10__dispatchB8fe200100IONS1_9__variant15__value_visitorIZN12_GLOBAL__N_110alEffectivEN3gsl8not_nullIPN2al7ContextEEEjiPKiE3$_0EEJRNS0_6__baseILNS0_6_TraitE0EJ17NullEffectHandler19ReverbEffectHandler22StdReverbEffectHandler20AutowahEffectHandler19ChorusEffectHandler23CompressorEffectHandler23DistortionEffectHandler17EchoEffectHandler22EqualizerEffectHandler20FlangerEffectHandler21FshifterEffectHandler22ModulatorEffectHandler21PshifterEffectHandler21VmorpherEffectHandler28DedicatedDialogEffectHandler25DedicatedLfeEffectHandler24ConvolutionEffectHandlerEEEEEEDcT_DpT0_', symObjAddr: 0x27B8, symBinAddr: 0x142A0, symSize: 0x34 }
  - { offset: 0x1387B7, size: 0x8, addend: 0x0, symName: '__ZNSt3__116__variant_detail12__visitation6__base12__dispatcherIJLm1EEE10__dispatchB8fe200100IONS1_9__variant15__value_visitorIZN12_GLOBAL__N_110alEffectivEN3gsl8not_nullIPN2al7ContextEEEjiPKiE3$_0EEJRNS0_6__baseILNS0_6_TraitE0EJ17NullEffectHandler19ReverbEffectHandler22StdReverbEffectHandler20AutowahEffectHandler19ChorusEffectHandler23CompressorEffectHandler23DistortionEffectHandler17EchoEffectHandler22EqualizerEffectHandler20FlangerEffectHandler21FshifterEffectHandler22ModulatorEffectHandler21PshifterEffectHandler21VmorpherEffectHandler28DedicatedDialogEffectHandler25DedicatedLfeEffectHandler24ConvolutionEffectHandlerEEEEEEDcT_DpT0_', symObjAddr: 0x27B8, symBinAddr: 0x142A0, symSize: 0x34 }
  - { offset: 0x1387D5, size: 0x8, addend: 0x0, symName: '__ZNSt3__116__variant_detail12__visitation6__base12__dispatcherIJLm1EEE10__dispatchB8fe200100IONS1_9__variant15__value_visitorIZN12_GLOBAL__N_110alEffectivEN3gsl8not_nullIPN2al7ContextEEEjiPKiE3$_0EEJRNS0_6__baseILNS0_6_TraitE0EJ17NullEffectHandler19ReverbEffectHandler22StdReverbEffectHandler20AutowahEffectHandler19ChorusEffectHandler23CompressorEffectHandler23DistortionEffectHandler17EchoEffectHandler22EqualizerEffectHandler20FlangerEffectHandler21FshifterEffectHandler22ModulatorEffectHandler21PshifterEffectHandler21VmorpherEffectHandler28DedicatedDialogEffectHandler25DedicatedLfeEffectHandler24ConvolutionEffectHandlerEEEEEEDcT_DpT0_', symObjAddr: 0x27B8, symBinAddr: 0x142A0, symSize: 0x34 }
  - { offset: 0x138946, size: 0x8, addend: 0x0, symName: '__ZNSt3__116__variant_detail12__visitation6__base12__dispatcherIJLm2EEE10__dispatchB8fe200100IONS1_9__variant15__value_visitorIZN12_GLOBAL__N_110alEffectivEN3gsl8not_nullIPN2al7ContextEEEjiPKiE3$_0EEJRNS0_6__baseILNS0_6_TraitE0EJ17NullEffectHandler19ReverbEffectHandler22StdReverbEffectHandler20AutowahEffectHandler19ChorusEffectHandler23CompressorEffectHandler23DistortionEffectHandler17EchoEffectHandler22EqualizerEffectHandler20FlangerEffectHandler21FshifterEffectHandler22ModulatorEffectHandler21PshifterEffectHandler21VmorpherEffectHandler28DedicatedDialogEffectHandler25DedicatedLfeEffectHandler24ConvolutionEffectHandlerEEEEEEDcT_DpT0_', symObjAddr: 0x27EC, symBinAddr: 0x142D4, symSize: 0x34 }
  - { offset: 0x1389C3, size: 0x8, addend: 0x0, symName: '__ZNSt3__116__variant_detail12__visitation6__base12__dispatcherIJLm2EEE10__dispatchB8fe200100IONS1_9__variant15__value_visitorIZN12_GLOBAL__N_110alEffectivEN3gsl8not_nullIPN2al7ContextEEEjiPKiE3$_0EEJRNS0_6__baseILNS0_6_TraitE0EJ17NullEffectHandler19ReverbEffectHandler22StdReverbEffectHandler20AutowahEffectHandler19ChorusEffectHandler23CompressorEffectHandler23DistortionEffectHandler17EchoEffectHandler22EqualizerEffectHandler20FlangerEffectHandler21FshifterEffectHandler22ModulatorEffectHandler21PshifterEffectHandler21VmorpherEffectHandler28DedicatedDialogEffectHandler25DedicatedLfeEffectHandler24ConvolutionEffectHandlerEEEEEEDcT_DpT0_', symObjAddr: 0x27EC, symBinAddr: 0x142D4, symSize: 0x34 }
  - { offset: 0x1389F7, size: 0x8, addend: 0x0, symName: '__ZNSt3__116__variant_detail12__visitation6__base12__dispatcherIJLm2EEE10__dispatchB8fe200100IONS1_9__variant15__value_visitorIZN12_GLOBAL__N_110alEffectivEN3gsl8not_nullIPN2al7ContextEEEjiPKiE3$_0EEJRNS0_6__baseILNS0_6_TraitE0EJ17NullEffectHandler19ReverbEffectHandler22StdReverbEffectHandler20AutowahEffectHandler19ChorusEffectHandler23CompressorEffectHandler23DistortionEffectHandler17EchoEffectHandler22EqualizerEffectHandler20FlangerEffectHandler21FshifterEffectHandler22ModulatorEffectHandler21PshifterEffectHandler21VmorpherEffectHandler28DedicatedDialogEffectHandler25DedicatedLfeEffectHandler24ConvolutionEffectHandlerEEEEEEDcT_DpT0_', symObjAddr: 0x27EC, symBinAddr: 0x142D4, symSize: 0x34 }
  - { offset: 0x138A15, size: 0x8, addend: 0x0, symName: '__ZNSt3__116__variant_detail12__visitation6__base12__dispatcherIJLm2EEE10__dispatchB8fe200100IONS1_9__variant15__value_visitorIZN12_GLOBAL__N_110alEffectivEN3gsl8not_nullIPN2al7ContextEEEjiPKiE3$_0EEJRNS0_6__baseILNS0_6_TraitE0EJ17NullEffectHandler19ReverbEffectHandler22StdReverbEffectHandler20AutowahEffectHandler19ChorusEffectHandler23CompressorEffectHandler23DistortionEffectHandler17EchoEffectHandler22EqualizerEffectHandler20FlangerEffectHandler21FshifterEffectHandler22ModulatorEffectHandler21PshifterEffectHandler21VmorpherEffectHandler28DedicatedDialogEffectHandler25DedicatedLfeEffectHandler24ConvolutionEffectHandlerEEEEEEDcT_DpT0_', symObjAddr: 0x27EC, symBinAddr: 0x142D4, symSize: 0x34 }
  - { offset: 0x138B86, size: 0x8, addend: 0x0, symName: '__ZNSt3__116__variant_detail12__visitation6__base12__dispatcherIJLm3EEE10__dispatchB8fe200100IONS1_9__variant15__value_visitorIZN12_GLOBAL__N_110alEffectivEN3gsl8not_nullIPN2al7ContextEEEjiPKiE3$_0EEJRNS0_6__baseILNS0_6_TraitE0EJ17NullEffectHandler19ReverbEffectHandler22StdReverbEffectHandler20AutowahEffectHandler19ChorusEffectHandler23CompressorEffectHandler23DistortionEffectHandler17EchoEffectHandler22EqualizerEffectHandler20FlangerEffectHandler21FshifterEffectHandler22ModulatorEffectHandler21PshifterEffectHandler21VmorpherEffectHandler28DedicatedDialogEffectHandler25DedicatedLfeEffectHandler24ConvolutionEffectHandlerEEEEEEDcT_DpT0_', symObjAddr: 0x2820, symBinAddr: 0x14308, symSize: 0x34 }
  - { offset: 0x138C03, size: 0x8, addend: 0x0, symName: '__ZNSt3__116__variant_detail12__visitation6__base12__dispatcherIJLm3EEE10__dispatchB8fe200100IONS1_9__variant15__value_visitorIZN12_GLOBAL__N_110alEffectivEN3gsl8not_nullIPN2al7ContextEEEjiPKiE3$_0EEJRNS0_6__baseILNS0_6_TraitE0EJ17NullEffectHandler19ReverbEffectHandler22StdReverbEffectHandler20AutowahEffectHandler19ChorusEffectHandler23CompressorEffectHandler23DistortionEffectHandler17EchoEffectHandler22EqualizerEffectHandler20FlangerEffectHandler21FshifterEffectHandler22ModulatorEffectHandler21PshifterEffectHandler21VmorpherEffectHandler28DedicatedDialogEffectHandler25DedicatedLfeEffectHandler24ConvolutionEffectHandlerEEEEEEDcT_DpT0_', symObjAddr: 0x2820, symBinAddr: 0x14308, symSize: 0x34 }
  - { offset: 0x138C37, size: 0x8, addend: 0x0, symName: '__ZNSt3__116__variant_detail12__visitation6__base12__dispatcherIJLm3EEE10__dispatchB8fe200100IONS1_9__variant15__value_visitorIZN12_GLOBAL__N_110alEffectivEN3gsl8not_nullIPN2al7ContextEEEjiPKiE3$_0EEJRNS0_6__baseILNS0_6_TraitE0EJ17NullEffectHandler19ReverbEffectHandler22StdReverbEffectHandler20AutowahEffectHandler19ChorusEffectHandler23CompressorEffectHandler23DistortionEffectHandler17EchoEffectHandler22EqualizerEffectHandler20FlangerEffectHandler21FshifterEffectHandler22ModulatorEffectHandler21PshifterEffectHandler21VmorpherEffectHandler28DedicatedDialogEffectHandler25DedicatedLfeEffectHandler24ConvolutionEffectHandlerEEEEEEDcT_DpT0_', symObjAddr: 0x2820, symBinAddr: 0x14308, symSize: 0x34 }
  - { offset: 0x138C55, size: 0x8, addend: 0x0, symName: '__ZNSt3__116__variant_detail12__visitation6__base12__dispatcherIJLm3EEE10__dispatchB8fe200100IONS1_9__variant15__value_visitorIZN12_GLOBAL__N_110alEffectivEN3gsl8not_nullIPN2al7ContextEEEjiPKiE3$_0EEJRNS0_6__baseILNS0_6_TraitE0EJ17NullEffectHandler19ReverbEffectHandler22StdReverbEffectHandler20AutowahEffectHandler19ChorusEffectHandler23CompressorEffectHandler23DistortionEffectHandler17EchoEffectHandler22EqualizerEffectHandler20FlangerEffectHandler21FshifterEffectHandler22ModulatorEffectHandler21PshifterEffectHandler21VmorpherEffectHandler28DedicatedDialogEffectHandler25DedicatedLfeEffectHandler24ConvolutionEffectHandlerEEEEEEDcT_DpT0_', symObjAddr: 0x2820, symBinAddr: 0x14308, symSize: 0x34 }
  - { offset: 0x138DC6, size: 0x8, addend: 0x0, symName: '__ZNSt3__116__variant_detail12__visitation6__base12__dispatcherIJLm4EEE10__dispatchB8fe200100IONS1_9__variant15__value_visitorIZN12_GLOBAL__N_110alEffectivEN3gsl8not_nullIPN2al7ContextEEEjiPKiE3$_0EEJRNS0_6__baseILNS0_6_TraitE0EJ17NullEffectHandler19ReverbEffectHandler22StdReverbEffectHandler20AutowahEffectHandler19ChorusEffectHandler23CompressorEffectHandler23DistortionEffectHandler17EchoEffectHandler22EqualizerEffectHandler20FlangerEffectHandler21FshifterEffectHandler22ModulatorEffectHandler21PshifterEffectHandler21VmorpherEffectHandler28DedicatedDialogEffectHandler25DedicatedLfeEffectHandler24ConvolutionEffectHandlerEEEEEEDcT_DpT0_', symObjAddr: 0x2854, symBinAddr: 0x1433C, symSize: 0x34 }
  - { offset: 0x138E43, size: 0x8, addend: 0x0, symName: '__ZNSt3__116__variant_detail12__visitation6__base12__dispatcherIJLm4EEE10__dispatchB8fe200100IONS1_9__variant15__value_visitorIZN12_GLOBAL__N_110alEffectivEN3gsl8not_nullIPN2al7ContextEEEjiPKiE3$_0EEJRNS0_6__baseILNS0_6_TraitE0EJ17NullEffectHandler19ReverbEffectHandler22StdReverbEffectHandler20AutowahEffectHandler19ChorusEffectHandler23CompressorEffectHandler23DistortionEffectHandler17EchoEffectHandler22EqualizerEffectHandler20FlangerEffectHandler21FshifterEffectHandler22ModulatorEffectHandler21PshifterEffectHandler21VmorpherEffectHandler28DedicatedDialogEffectHandler25DedicatedLfeEffectHandler24ConvolutionEffectHandlerEEEEEEDcT_DpT0_', symObjAddr: 0x2854, symBinAddr: 0x1433C, symSize: 0x34 }
  - { offset: 0x138E77, size: 0x8, addend: 0x0, symName: '__ZNSt3__116__variant_detail12__visitation6__base12__dispatcherIJLm4EEE10__dispatchB8fe200100IONS1_9__variant15__value_visitorIZN12_GLOBAL__N_110alEffectivEN3gsl8not_nullIPN2al7ContextEEEjiPKiE3$_0EEJRNS0_6__baseILNS0_6_TraitE0EJ17NullEffectHandler19ReverbEffectHandler22StdReverbEffectHandler20AutowahEffectHandler19ChorusEffectHandler23CompressorEffectHandler23DistortionEffectHandler17EchoEffectHandler22EqualizerEffectHandler20FlangerEffectHandler21FshifterEffectHandler22ModulatorEffectHandler21PshifterEffectHandler21VmorpherEffectHandler28DedicatedDialogEffectHandler25DedicatedLfeEffectHandler24ConvolutionEffectHandlerEEEEEEDcT_DpT0_', symObjAddr: 0x2854, symBinAddr: 0x1433C, symSize: 0x34 }
  - { offset: 0x138E95, size: 0x8, addend: 0x0, symName: '__ZNSt3__116__variant_detail12__visitation6__base12__dispatcherIJLm4EEE10__dispatchB8fe200100IONS1_9__variant15__value_visitorIZN12_GLOBAL__N_110alEffectivEN3gsl8not_nullIPN2al7ContextEEEjiPKiE3$_0EEJRNS0_6__baseILNS0_6_TraitE0EJ17NullEffectHandler19ReverbEffectHandler22StdReverbEffectHandler20AutowahEffectHandler19ChorusEffectHandler23CompressorEffectHandler23DistortionEffectHandler17EchoEffectHandler22EqualizerEffectHandler20FlangerEffectHandler21FshifterEffectHandler22ModulatorEffectHandler21PshifterEffectHandler21VmorpherEffectHandler28DedicatedDialogEffectHandler25DedicatedLfeEffectHandler24ConvolutionEffectHandlerEEEEEEDcT_DpT0_', symObjAddr: 0x2854, symBinAddr: 0x1433C, symSize: 0x34 }
  - { offset: 0x139006, size: 0x8, addend: 0x0, symName: '__ZNSt3__116__variant_detail12__visitation6__base12__dispatcherIJLm5EEE10__dispatchB8fe200100IONS1_9__variant15__value_visitorIZN12_GLOBAL__N_110alEffectivEN3gsl8not_nullIPN2al7ContextEEEjiPKiE3$_0EEJRNS0_6__baseILNS0_6_TraitE0EJ17NullEffectHandler19ReverbEffectHandler22StdReverbEffectHandler20AutowahEffectHandler19ChorusEffectHandler23CompressorEffectHandler23DistortionEffectHandler17EchoEffectHandler22EqualizerEffectHandler20FlangerEffectHandler21FshifterEffectHandler22ModulatorEffectHandler21PshifterEffectHandler21VmorpherEffectHandler28DedicatedDialogEffectHandler25DedicatedLfeEffectHandler24ConvolutionEffectHandlerEEEEEEDcT_DpT0_', symObjAddr: 0x2888, symBinAddr: 0x14370, symSize: 0x34 }
  - { offset: 0x139083, size: 0x8, addend: 0x0, symName: '__ZNSt3__116__variant_detail12__visitation6__base12__dispatcherIJLm5EEE10__dispatchB8fe200100IONS1_9__variant15__value_visitorIZN12_GLOBAL__N_110alEffectivEN3gsl8not_nullIPN2al7ContextEEEjiPKiE3$_0EEJRNS0_6__baseILNS0_6_TraitE0EJ17NullEffectHandler19ReverbEffectHandler22StdReverbEffectHandler20AutowahEffectHandler19ChorusEffectHandler23CompressorEffectHandler23DistortionEffectHandler17EchoEffectHandler22EqualizerEffectHandler20FlangerEffectHandler21FshifterEffectHandler22ModulatorEffectHandler21PshifterEffectHandler21VmorpherEffectHandler28DedicatedDialogEffectHandler25DedicatedLfeEffectHandler24ConvolutionEffectHandlerEEEEEEDcT_DpT0_', symObjAddr: 0x2888, symBinAddr: 0x14370, symSize: 0x34 }
  - { offset: 0x1390B7, size: 0x8, addend: 0x0, symName: '__ZNSt3__116__variant_detail12__visitation6__base12__dispatcherIJLm5EEE10__dispatchB8fe200100IONS1_9__variant15__value_visitorIZN12_GLOBAL__N_110alEffectivEN3gsl8not_nullIPN2al7ContextEEEjiPKiE3$_0EEJRNS0_6__baseILNS0_6_TraitE0EJ17NullEffectHandler19ReverbEffectHandler22StdReverbEffectHandler20AutowahEffectHandler19ChorusEffectHandler23CompressorEffectHandler23DistortionEffectHandler17EchoEffectHandler22EqualizerEffectHandler20FlangerEffectHandler21FshifterEffectHandler22ModulatorEffectHandler21PshifterEffectHandler21VmorpherEffectHandler28DedicatedDialogEffectHandler25DedicatedLfeEffectHandler24ConvolutionEffectHandlerEEEEEEDcT_DpT0_', symObjAddr: 0x2888, symBinAddr: 0x14370, symSize: 0x34 }
  - { offset: 0x1390D5, size: 0x8, addend: 0x0, symName: '__ZNSt3__116__variant_detail12__visitation6__base12__dispatcherIJLm5EEE10__dispatchB8fe200100IONS1_9__variant15__value_visitorIZN12_GLOBAL__N_110alEffectivEN3gsl8not_nullIPN2al7ContextEEEjiPKiE3$_0EEJRNS0_6__baseILNS0_6_TraitE0EJ17NullEffectHandler19ReverbEffectHandler22StdReverbEffectHandler20AutowahEffectHandler19ChorusEffectHandler23CompressorEffectHandler23DistortionEffectHandler17EchoEffectHandler22EqualizerEffectHandler20FlangerEffectHandler21FshifterEffectHandler22ModulatorEffectHandler21PshifterEffectHandler21VmorpherEffectHandler28DedicatedDialogEffectHandler25DedicatedLfeEffectHandler24ConvolutionEffectHandlerEEEEEEDcT_DpT0_', symObjAddr: 0x2888, symBinAddr: 0x14370, symSize: 0x34 }
  - { offset: 0x139246, size: 0x8, addend: 0x0, symName: '__ZNSt3__116__variant_detail12__visitation6__base12__dispatcherIJLm6EEE10__dispatchB8fe200100IONS1_9__variant15__value_visitorIZN12_GLOBAL__N_110alEffectivEN3gsl8not_nullIPN2al7ContextEEEjiPKiE3$_0EEJRNS0_6__baseILNS0_6_TraitE0EJ17NullEffectHandler19ReverbEffectHandler22StdReverbEffectHandler20AutowahEffectHandler19ChorusEffectHandler23CompressorEffectHandler23DistortionEffectHandler17EchoEffectHandler22EqualizerEffectHandler20FlangerEffectHandler21FshifterEffectHandler22ModulatorEffectHandler21PshifterEffectHandler21VmorpherEffectHandler28DedicatedDialogEffectHandler25DedicatedLfeEffectHandler24ConvolutionEffectHandlerEEEEEEDcT_DpT0_', symObjAddr: 0x28BC, symBinAddr: 0x143A4, symSize: 0x34 }
  - { offset: 0x1392C3, size: 0x8, addend: 0x0, symName: '__ZNSt3__116__variant_detail12__visitation6__base12__dispatcherIJLm6EEE10__dispatchB8fe200100IONS1_9__variant15__value_visitorIZN12_GLOBAL__N_110alEffectivEN3gsl8not_nullIPN2al7ContextEEEjiPKiE3$_0EEJRNS0_6__baseILNS0_6_TraitE0EJ17NullEffectHandler19ReverbEffectHandler22StdReverbEffectHandler20AutowahEffectHandler19ChorusEffectHandler23CompressorEffectHandler23DistortionEffectHandler17EchoEffectHandler22EqualizerEffectHandler20FlangerEffectHandler21FshifterEffectHandler22ModulatorEffectHandler21PshifterEffectHandler21VmorpherEffectHandler28DedicatedDialogEffectHandler25DedicatedLfeEffectHandler24ConvolutionEffectHandlerEEEEEEDcT_DpT0_', symObjAddr: 0x28BC, symBinAddr: 0x143A4, symSize: 0x34 }
  - { offset: 0x1392F7, size: 0x8, addend: 0x0, symName: '__ZNSt3__116__variant_detail12__visitation6__base12__dispatcherIJLm6EEE10__dispatchB8fe200100IONS1_9__variant15__value_visitorIZN12_GLOBAL__N_110alEffectivEN3gsl8not_nullIPN2al7ContextEEEjiPKiE3$_0EEJRNS0_6__baseILNS0_6_TraitE0EJ17NullEffectHandler19ReverbEffectHandler22StdReverbEffectHandler20AutowahEffectHandler19ChorusEffectHandler23CompressorEffectHandler23DistortionEffectHandler17EchoEffectHandler22EqualizerEffectHandler20FlangerEffectHandler21FshifterEffectHandler22ModulatorEffectHandler21PshifterEffectHandler21VmorpherEffectHandler28DedicatedDialogEffectHandler25DedicatedLfeEffectHandler24ConvolutionEffectHandlerEEEEEEDcT_DpT0_', symObjAddr: 0x28BC, symBinAddr: 0x143A4, symSize: 0x34 }
  - { offset: 0x139315, size: 0x8, addend: 0x0, symName: '__ZNSt3__116__variant_detail12__visitation6__base12__dispatcherIJLm6EEE10__dispatchB8fe200100IONS1_9__variant15__value_visitorIZN12_GLOBAL__N_110alEffectivEN3gsl8not_nullIPN2al7ContextEEEjiPKiE3$_0EEJRNS0_6__baseILNS0_6_TraitE0EJ17NullEffectHandler19ReverbEffectHandler22StdReverbEffectHandler20AutowahEffectHandler19ChorusEffectHandler23CompressorEffectHandler23DistortionEffectHandler17EchoEffectHandler22EqualizerEffectHandler20FlangerEffectHandler21FshifterEffectHandler22ModulatorEffectHandler21PshifterEffectHandler21VmorpherEffectHandler28DedicatedDialogEffectHandler25DedicatedLfeEffectHandler24ConvolutionEffectHandlerEEEEEEDcT_DpT0_', symObjAddr: 0x28BC, symBinAddr: 0x143A4, symSize: 0x34 }
  - { offset: 0x139486, size: 0x8, addend: 0x0, symName: '__ZNSt3__116__variant_detail12__visitation6__base12__dispatcherIJLm7EEE10__dispatchB8fe200100IONS1_9__variant15__value_visitorIZN12_GLOBAL__N_110alEffectivEN3gsl8not_nullIPN2al7ContextEEEjiPKiE3$_0EEJRNS0_6__baseILNS0_6_TraitE0EJ17NullEffectHandler19ReverbEffectHandler22StdReverbEffectHandler20AutowahEffectHandler19ChorusEffectHandler23CompressorEffectHandler23DistortionEffectHandler17EchoEffectHandler22EqualizerEffectHandler20FlangerEffectHandler21FshifterEffectHandler22ModulatorEffectHandler21PshifterEffectHandler21VmorpherEffectHandler28DedicatedDialogEffectHandler25DedicatedLfeEffectHandler24ConvolutionEffectHandlerEEEEEEDcT_DpT0_', symObjAddr: 0x28F0, symBinAddr: 0x143D8, symSize: 0x34 }
  - { offset: 0x139503, size: 0x8, addend: 0x0, symName: '__ZNSt3__116__variant_detail12__visitation6__base12__dispatcherIJLm7EEE10__dispatchB8fe200100IONS1_9__variant15__value_visitorIZN12_GLOBAL__N_110alEffectivEN3gsl8not_nullIPN2al7ContextEEEjiPKiE3$_0EEJRNS0_6__baseILNS0_6_TraitE0EJ17NullEffectHandler19ReverbEffectHandler22StdReverbEffectHandler20AutowahEffectHandler19ChorusEffectHandler23CompressorEffectHandler23DistortionEffectHandler17EchoEffectHandler22EqualizerEffectHandler20FlangerEffectHandler21FshifterEffectHandler22ModulatorEffectHandler21PshifterEffectHandler21VmorpherEffectHandler28DedicatedDialogEffectHandler25DedicatedLfeEffectHandler24ConvolutionEffectHandlerEEEEEEDcT_DpT0_', symObjAddr: 0x28F0, symBinAddr: 0x143D8, symSize: 0x34 }
  - { offset: 0x139537, size: 0x8, addend: 0x0, symName: '__ZNSt3__116__variant_detail12__visitation6__base12__dispatcherIJLm7EEE10__dispatchB8fe200100IONS1_9__variant15__value_visitorIZN12_GLOBAL__N_110alEffectivEN3gsl8not_nullIPN2al7ContextEEEjiPKiE3$_0EEJRNS0_6__baseILNS0_6_TraitE0EJ17NullEffectHandler19ReverbEffectHandler22StdReverbEffectHandler20AutowahEffectHandler19ChorusEffectHandler23CompressorEffectHandler23DistortionEffectHandler17EchoEffectHandler22EqualizerEffectHandler20FlangerEffectHandler21FshifterEffectHandler22ModulatorEffectHandler21PshifterEffectHandler21VmorpherEffectHandler28DedicatedDialogEffectHandler25DedicatedLfeEffectHandler24ConvolutionEffectHandlerEEEEEEDcT_DpT0_', symObjAddr: 0x28F0, symBinAddr: 0x143D8, symSize: 0x34 }
  - { offset: 0x139555, size: 0x8, addend: 0x0, symName: '__ZNSt3__116__variant_detail12__visitation6__base12__dispatcherIJLm7EEE10__dispatchB8fe200100IONS1_9__variant15__value_visitorIZN12_GLOBAL__N_110alEffectivEN3gsl8not_nullIPN2al7ContextEEEjiPKiE3$_0EEJRNS0_6__baseILNS0_6_TraitE0EJ17NullEffectHandler19ReverbEffectHandler22StdReverbEffectHandler20AutowahEffectHandler19ChorusEffectHandler23CompressorEffectHandler23DistortionEffectHandler17EchoEffectHandler22EqualizerEffectHandler20FlangerEffectHandler21FshifterEffectHandler22ModulatorEffectHandler21PshifterEffectHandler21VmorpherEffectHandler28DedicatedDialogEffectHandler25DedicatedLfeEffectHandler24ConvolutionEffectHandlerEEEEEEDcT_DpT0_', symObjAddr: 0x28F0, symBinAddr: 0x143D8, symSize: 0x34 }
  - { offset: 0x1396C6, size: 0x8, addend: 0x0, symName: '__ZNSt3__116__variant_detail12__visitation6__base12__dispatcherIJLm8EEE10__dispatchB8fe200100IONS1_9__variant15__value_visitorIZN12_GLOBAL__N_110alEffectivEN3gsl8not_nullIPN2al7ContextEEEjiPKiE3$_0EEJRNS0_6__baseILNS0_6_TraitE0EJ17NullEffectHandler19ReverbEffectHandler22StdReverbEffectHandler20AutowahEffectHandler19ChorusEffectHandler23CompressorEffectHandler23DistortionEffectHandler17EchoEffectHandler22EqualizerEffectHandler20FlangerEffectHandler21FshifterEffectHandler22ModulatorEffectHandler21PshifterEffectHandler21VmorpherEffectHandler28DedicatedDialogEffectHandler25DedicatedLfeEffectHandler24ConvolutionEffectHandlerEEEEEEDcT_DpT0_', symObjAddr: 0x2924, symBinAddr: 0x1440C, symSize: 0x34 }
  - { offset: 0x139743, size: 0x8, addend: 0x0, symName: '__ZNSt3__116__variant_detail12__visitation6__base12__dispatcherIJLm8EEE10__dispatchB8fe200100IONS1_9__variant15__value_visitorIZN12_GLOBAL__N_110alEffectivEN3gsl8not_nullIPN2al7ContextEEEjiPKiE3$_0EEJRNS0_6__baseILNS0_6_TraitE0EJ17NullEffectHandler19ReverbEffectHandler22StdReverbEffectHandler20AutowahEffectHandler19ChorusEffectHandler23CompressorEffectHandler23DistortionEffectHandler17EchoEffectHandler22EqualizerEffectHandler20FlangerEffectHandler21FshifterEffectHandler22ModulatorEffectHandler21PshifterEffectHandler21VmorpherEffectHandler28DedicatedDialogEffectHandler25DedicatedLfeEffectHandler24ConvolutionEffectHandlerEEEEEEDcT_DpT0_', symObjAddr: 0x2924, symBinAddr: 0x1440C, symSize: 0x34 }
  - { offset: 0x139777, size: 0x8, addend: 0x0, symName: '__ZNSt3__116__variant_detail12__visitation6__base12__dispatcherIJLm8EEE10__dispatchB8fe200100IONS1_9__variant15__value_visitorIZN12_GLOBAL__N_110alEffectivEN3gsl8not_nullIPN2al7ContextEEEjiPKiE3$_0EEJRNS0_6__baseILNS0_6_TraitE0EJ17NullEffectHandler19ReverbEffectHandler22StdReverbEffectHandler20AutowahEffectHandler19ChorusEffectHandler23CompressorEffectHandler23DistortionEffectHandler17EchoEffectHandler22EqualizerEffectHandler20FlangerEffectHandler21FshifterEffectHandler22ModulatorEffectHandler21PshifterEffectHandler21VmorpherEffectHandler28DedicatedDialogEffectHandler25DedicatedLfeEffectHandler24ConvolutionEffectHandlerEEEEEEDcT_DpT0_', symObjAddr: 0x2924, symBinAddr: 0x1440C, symSize: 0x34 }
  - { offset: 0x139795, size: 0x8, addend: 0x0, symName: '__ZNSt3__116__variant_detail12__visitation6__base12__dispatcherIJLm8EEE10__dispatchB8fe200100IONS1_9__variant15__value_visitorIZN12_GLOBAL__N_110alEffectivEN3gsl8not_nullIPN2al7ContextEEEjiPKiE3$_0EEJRNS0_6__baseILNS0_6_TraitE0EJ17NullEffectHandler19ReverbEffectHandler22StdReverbEffectHandler20AutowahEffectHandler19ChorusEffectHandler23CompressorEffectHandler23DistortionEffectHandler17EchoEffectHandler22EqualizerEffectHandler20FlangerEffectHandler21FshifterEffectHandler22ModulatorEffectHandler21PshifterEffectHandler21VmorpherEffectHandler28DedicatedDialogEffectHandler25DedicatedLfeEffectHandler24ConvolutionEffectHandlerEEEEEEDcT_DpT0_', symObjAddr: 0x2924, symBinAddr: 0x1440C, symSize: 0x34 }
  - { offset: 0x139906, size: 0x8, addend: 0x0, symName: '__ZNSt3__116__variant_detail12__visitation6__base12__dispatcherIJLm9EEE10__dispatchB8fe200100IONS1_9__variant15__value_visitorIZN12_GLOBAL__N_110alEffectivEN3gsl8not_nullIPN2al7ContextEEEjiPKiE3$_0EEJRNS0_6__baseILNS0_6_TraitE0EJ17NullEffectHandler19ReverbEffectHandler22StdReverbEffectHandler20AutowahEffectHandler19ChorusEffectHandler23CompressorEffectHandler23DistortionEffectHandler17EchoEffectHandler22EqualizerEffectHandler20FlangerEffectHandler21FshifterEffectHandler22ModulatorEffectHandler21PshifterEffectHandler21VmorpherEffectHandler28DedicatedDialogEffectHandler25DedicatedLfeEffectHandler24ConvolutionEffectHandlerEEEEEEDcT_DpT0_', symObjAddr: 0x2958, symBinAddr: 0x14440, symSize: 0x34 }
  - { offset: 0x139983, size: 0x8, addend: 0x0, symName: '__ZNSt3__116__variant_detail12__visitation6__base12__dispatcherIJLm9EEE10__dispatchB8fe200100IONS1_9__variant15__value_visitorIZN12_GLOBAL__N_110alEffectivEN3gsl8not_nullIPN2al7ContextEEEjiPKiE3$_0EEJRNS0_6__baseILNS0_6_TraitE0EJ17NullEffectHandler19ReverbEffectHandler22StdReverbEffectHandler20AutowahEffectHandler19ChorusEffectHandler23CompressorEffectHandler23DistortionEffectHandler17EchoEffectHandler22EqualizerEffectHandler20FlangerEffectHandler21FshifterEffectHandler22ModulatorEffectHandler21PshifterEffectHandler21VmorpherEffectHandler28DedicatedDialogEffectHandler25DedicatedLfeEffectHandler24ConvolutionEffectHandlerEEEEEEDcT_DpT0_', symObjAddr: 0x2958, symBinAddr: 0x14440, symSize: 0x34 }
  - { offset: 0x1399B7, size: 0x8, addend: 0x0, symName: '__ZNSt3__116__variant_detail12__visitation6__base12__dispatcherIJLm9EEE10__dispatchB8fe200100IONS1_9__variant15__value_visitorIZN12_GLOBAL__N_110alEffectivEN3gsl8not_nullIPN2al7ContextEEEjiPKiE3$_0EEJRNS0_6__baseILNS0_6_TraitE0EJ17NullEffectHandler19ReverbEffectHandler22StdReverbEffectHandler20AutowahEffectHandler19ChorusEffectHandler23CompressorEffectHandler23DistortionEffectHandler17EchoEffectHandler22EqualizerEffectHandler20FlangerEffectHandler21FshifterEffectHandler22ModulatorEffectHandler21PshifterEffectHandler21VmorpherEffectHandler28DedicatedDialogEffectHandler25DedicatedLfeEffectHandler24ConvolutionEffectHandlerEEEEEEDcT_DpT0_', symObjAddr: 0x2958, symBinAddr: 0x14440, symSize: 0x34 }
  - { offset: 0x1399D5, size: 0x8, addend: 0x0, symName: '__ZNSt3__116__variant_detail12__visitation6__base12__dispatcherIJLm9EEE10__dispatchB8fe200100IONS1_9__variant15__value_visitorIZN12_GLOBAL__N_110alEffectivEN3gsl8not_nullIPN2al7ContextEEEjiPKiE3$_0EEJRNS0_6__baseILNS0_6_TraitE0EJ17NullEffectHandler19ReverbEffectHandler22StdReverbEffectHandler20AutowahEffectHandler19ChorusEffectHandler23CompressorEffectHandler23DistortionEffectHandler17EchoEffectHandler22EqualizerEffectHandler20FlangerEffectHandler21FshifterEffectHandler22ModulatorEffectHandler21PshifterEffectHandler21VmorpherEffectHandler28DedicatedDialogEffectHandler25DedicatedLfeEffectHandler24ConvolutionEffectHandlerEEEEEEDcT_DpT0_', symObjAddr: 0x2958, symBinAddr: 0x14440, symSize: 0x34 }
  - { offset: 0x139B46, size: 0x8, addend: 0x0, symName: '__ZNSt3__116__variant_detail12__visitation6__base12__dispatcherIJLm10EEE10__dispatchB8fe200100IONS1_9__variant15__value_visitorIZN12_GLOBAL__N_110alEffectivEN3gsl8not_nullIPN2al7ContextEEEjiPKiE3$_0EEJRNS0_6__baseILNS0_6_TraitE0EJ17NullEffectHandler19ReverbEffectHandler22StdReverbEffectHandler20AutowahEffectHandler19ChorusEffectHandler23CompressorEffectHandler23DistortionEffectHandler17EchoEffectHandler22EqualizerEffectHandler20FlangerEffectHandler21FshifterEffectHandler22ModulatorEffectHandler21PshifterEffectHandler21VmorpherEffectHandler28DedicatedDialogEffectHandler25DedicatedLfeEffectHandler24ConvolutionEffectHandlerEEEEEEDcT_DpT0_', symObjAddr: 0x298C, symBinAddr: 0x14474, symSize: 0x34 }
  - { offset: 0x139BC3, size: 0x8, addend: 0x0, symName: '__ZNSt3__116__variant_detail12__visitation6__base12__dispatcherIJLm10EEE10__dispatchB8fe200100IONS1_9__variant15__value_visitorIZN12_GLOBAL__N_110alEffectivEN3gsl8not_nullIPN2al7ContextEEEjiPKiE3$_0EEJRNS0_6__baseILNS0_6_TraitE0EJ17NullEffectHandler19ReverbEffectHandler22StdReverbEffectHandler20AutowahEffectHandler19ChorusEffectHandler23CompressorEffectHandler23DistortionEffectHandler17EchoEffectHandler22EqualizerEffectHandler20FlangerEffectHandler21FshifterEffectHandler22ModulatorEffectHandler21PshifterEffectHandler21VmorpherEffectHandler28DedicatedDialogEffectHandler25DedicatedLfeEffectHandler24ConvolutionEffectHandlerEEEEEEDcT_DpT0_', symObjAddr: 0x298C, symBinAddr: 0x14474, symSize: 0x34 }
  - { offset: 0x139BF7, size: 0x8, addend: 0x0, symName: '__ZNSt3__116__variant_detail12__visitation6__base12__dispatcherIJLm10EEE10__dispatchB8fe200100IONS1_9__variant15__value_visitorIZN12_GLOBAL__N_110alEffectivEN3gsl8not_nullIPN2al7ContextEEEjiPKiE3$_0EEJRNS0_6__baseILNS0_6_TraitE0EJ17NullEffectHandler19ReverbEffectHandler22StdReverbEffectHandler20AutowahEffectHandler19ChorusEffectHandler23CompressorEffectHandler23DistortionEffectHandler17EchoEffectHandler22EqualizerEffectHandler20FlangerEffectHandler21FshifterEffectHandler22ModulatorEffectHandler21PshifterEffectHandler21VmorpherEffectHandler28DedicatedDialogEffectHandler25DedicatedLfeEffectHandler24ConvolutionEffectHandlerEEEEEEDcT_DpT0_', symObjAddr: 0x298C, symBinAddr: 0x14474, symSize: 0x34 }
  - { offset: 0x139C15, size: 0x8, addend: 0x0, symName: '__ZNSt3__116__variant_detail12__visitation6__base12__dispatcherIJLm10EEE10__dispatchB8fe200100IONS1_9__variant15__value_visitorIZN12_GLOBAL__N_110alEffectivEN3gsl8not_nullIPN2al7ContextEEEjiPKiE3$_0EEJRNS0_6__baseILNS0_6_TraitE0EJ17NullEffectHandler19ReverbEffectHandler22StdReverbEffectHandler20AutowahEffectHandler19ChorusEffectHandler23CompressorEffectHandler23DistortionEffectHandler17EchoEffectHandler22EqualizerEffectHandler20FlangerEffectHandler21FshifterEffectHandler22ModulatorEffectHandler21PshifterEffectHandler21VmorpherEffectHandler28DedicatedDialogEffectHandler25DedicatedLfeEffectHandler24ConvolutionEffectHandlerEEEEEEDcT_DpT0_', symObjAddr: 0x298C, symBinAddr: 0x14474, symSize: 0x34 }
  - { offset: 0x139D86, size: 0x8, addend: 0x0, symName: '__ZNSt3__116__variant_detail12__visitation6__base12__dispatcherIJLm11EEE10__dispatchB8fe200100IONS1_9__variant15__value_visitorIZN12_GLOBAL__N_110alEffectivEN3gsl8not_nullIPN2al7ContextEEEjiPKiE3$_0EEJRNS0_6__baseILNS0_6_TraitE0EJ17NullEffectHandler19ReverbEffectHandler22StdReverbEffectHandler20AutowahEffectHandler19ChorusEffectHandler23CompressorEffectHandler23DistortionEffectHandler17EchoEffectHandler22EqualizerEffectHandler20FlangerEffectHandler21FshifterEffectHandler22ModulatorEffectHandler21PshifterEffectHandler21VmorpherEffectHandler28DedicatedDialogEffectHandler25DedicatedLfeEffectHandler24ConvolutionEffectHandlerEEEEEEDcT_DpT0_', symObjAddr: 0x29C0, symBinAddr: 0x144A8, symSize: 0x34 }
  - { offset: 0x139E03, size: 0x8, addend: 0x0, symName: '__ZNSt3__116__variant_detail12__visitation6__base12__dispatcherIJLm11EEE10__dispatchB8fe200100IONS1_9__variant15__value_visitorIZN12_GLOBAL__N_110alEffectivEN3gsl8not_nullIPN2al7ContextEEEjiPKiE3$_0EEJRNS0_6__baseILNS0_6_TraitE0EJ17NullEffectHandler19ReverbEffectHandler22StdReverbEffectHandler20AutowahEffectHandler19ChorusEffectHandler23CompressorEffectHandler23DistortionEffectHandler17EchoEffectHandler22EqualizerEffectHandler20FlangerEffectHandler21FshifterEffectHandler22ModulatorEffectHandler21PshifterEffectHandler21VmorpherEffectHandler28DedicatedDialogEffectHandler25DedicatedLfeEffectHandler24ConvolutionEffectHandlerEEEEEEDcT_DpT0_', symObjAddr: 0x29C0, symBinAddr: 0x144A8, symSize: 0x34 }
  - { offset: 0x139E37, size: 0x8, addend: 0x0, symName: '__ZNSt3__116__variant_detail12__visitation6__base12__dispatcherIJLm11EEE10__dispatchB8fe200100IONS1_9__variant15__value_visitorIZN12_GLOBAL__N_110alEffectivEN3gsl8not_nullIPN2al7ContextEEEjiPKiE3$_0EEJRNS0_6__baseILNS0_6_TraitE0EJ17NullEffectHandler19ReverbEffectHandler22StdReverbEffectHandler20AutowahEffectHandler19ChorusEffectHandler23CompressorEffectHandler23DistortionEffectHandler17EchoEffectHandler22EqualizerEffectHandler20FlangerEffectHandler21FshifterEffectHandler22ModulatorEffectHandler21PshifterEffectHandler21VmorpherEffectHandler28DedicatedDialogEffectHandler25DedicatedLfeEffectHandler24ConvolutionEffectHandlerEEEEEEDcT_DpT0_', symObjAddr: 0x29C0, symBinAddr: 0x144A8, symSize: 0x34 }
  - { offset: 0x139E55, size: 0x8, addend: 0x0, symName: '__ZNSt3__116__variant_detail12__visitation6__base12__dispatcherIJLm11EEE10__dispatchB8fe200100IONS1_9__variant15__value_visitorIZN12_GLOBAL__N_110alEffectivEN3gsl8not_nullIPN2al7ContextEEEjiPKiE3$_0EEJRNS0_6__baseILNS0_6_TraitE0EJ17NullEffectHandler19ReverbEffectHandler22StdReverbEffectHandler20AutowahEffectHandler19ChorusEffectHandler23CompressorEffectHandler23DistortionEffectHandler17EchoEffectHandler22EqualizerEffectHandler20FlangerEffectHandler21FshifterEffectHandler22ModulatorEffectHandler21PshifterEffectHandler21VmorpherEffectHandler28DedicatedDialogEffectHandler25DedicatedLfeEffectHandler24ConvolutionEffectHandlerEEEEEEDcT_DpT0_', symObjAddr: 0x29C0, symBinAddr: 0x144A8, symSize: 0x34 }
  - { offset: 0x139FC6, size: 0x8, addend: 0x0, symName: '__ZNSt3__116__variant_detail12__visitation6__base12__dispatcherIJLm12EEE10__dispatchB8fe200100IONS1_9__variant15__value_visitorIZN12_GLOBAL__N_110alEffectivEN3gsl8not_nullIPN2al7ContextEEEjiPKiE3$_0EEJRNS0_6__baseILNS0_6_TraitE0EJ17NullEffectHandler19ReverbEffectHandler22StdReverbEffectHandler20AutowahEffectHandler19ChorusEffectHandler23CompressorEffectHandler23DistortionEffectHandler17EchoEffectHandler22EqualizerEffectHandler20FlangerEffectHandler21FshifterEffectHandler22ModulatorEffectHandler21PshifterEffectHandler21VmorpherEffectHandler28DedicatedDialogEffectHandler25DedicatedLfeEffectHandler24ConvolutionEffectHandlerEEEEEEDcT_DpT0_', symObjAddr: 0x29F4, symBinAddr: 0x144DC, symSize: 0x34 }
  - { offset: 0x13A043, size: 0x8, addend: 0x0, symName: '__ZNSt3__116__variant_detail12__visitation6__base12__dispatcherIJLm12EEE10__dispatchB8fe200100IONS1_9__variant15__value_visitorIZN12_GLOBAL__N_110alEffectivEN3gsl8not_nullIPN2al7ContextEEEjiPKiE3$_0EEJRNS0_6__baseILNS0_6_TraitE0EJ17NullEffectHandler19ReverbEffectHandler22StdReverbEffectHandler20AutowahEffectHandler19ChorusEffectHandler23CompressorEffectHandler23DistortionEffectHandler17EchoEffectHandler22EqualizerEffectHandler20FlangerEffectHandler21FshifterEffectHandler22ModulatorEffectHandler21PshifterEffectHandler21VmorpherEffectHandler28DedicatedDialogEffectHandler25DedicatedLfeEffectHandler24ConvolutionEffectHandlerEEEEEEDcT_DpT0_', symObjAddr: 0x29F4, symBinAddr: 0x144DC, symSize: 0x34 }
  - { offset: 0x13A077, size: 0x8, addend: 0x0, symName: '__ZNSt3__116__variant_detail12__visitation6__base12__dispatcherIJLm12EEE10__dispatchB8fe200100IONS1_9__variant15__value_visitorIZN12_GLOBAL__N_110alEffectivEN3gsl8not_nullIPN2al7ContextEEEjiPKiE3$_0EEJRNS0_6__baseILNS0_6_TraitE0EJ17NullEffectHandler19ReverbEffectHandler22StdReverbEffectHandler20AutowahEffectHandler19ChorusEffectHandler23CompressorEffectHandler23DistortionEffectHandler17EchoEffectHandler22EqualizerEffectHandler20FlangerEffectHandler21FshifterEffectHandler22ModulatorEffectHandler21PshifterEffectHandler21VmorpherEffectHandler28DedicatedDialogEffectHandler25DedicatedLfeEffectHandler24ConvolutionEffectHandlerEEEEEEDcT_DpT0_', symObjAddr: 0x29F4, symBinAddr: 0x144DC, symSize: 0x34 }
  - { offset: 0x13A095, size: 0x8, addend: 0x0, symName: '__ZNSt3__116__variant_detail12__visitation6__base12__dispatcherIJLm12EEE10__dispatchB8fe200100IONS1_9__variant15__value_visitorIZN12_GLOBAL__N_110alEffectivEN3gsl8not_nullIPN2al7ContextEEEjiPKiE3$_0EEJRNS0_6__baseILNS0_6_TraitE0EJ17NullEffectHandler19ReverbEffectHandler22StdReverbEffectHandler20AutowahEffectHandler19ChorusEffectHandler23CompressorEffectHandler23DistortionEffectHandler17EchoEffectHandler22EqualizerEffectHandler20FlangerEffectHandler21FshifterEffectHandler22ModulatorEffectHandler21PshifterEffectHandler21VmorpherEffectHandler28DedicatedDialogEffectHandler25DedicatedLfeEffectHandler24ConvolutionEffectHandlerEEEEEEDcT_DpT0_', symObjAddr: 0x29F4, symBinAddr: 0x144DC, symSize: 0x34 }
  - { offset: 0x13A206, size: 0x8, addend: 0x0, symName: '__ZNSt3__116__variant_detail12__visitation6__base12__dispatcherIJLm13EEE10__dispatchB8fe200100IONS1_9__variant15__value_visitorIZN12_GLOBAL__N_110alEffectivEN3gsl8not_nullIPN2al7ContextEEEjiPKiE3$_0EEJRNS0_6__baseILNS0_6_TraitE0EJ17NullEffectHandler19ReverbEffectHandler22StdReverbEffectHandler20AutowahEffectHandler19ChorusEffectHandler23CompressorEffectHandler23DistortionEffectHandler17EchoEffectHandler22EqualizerEffectHandler20FlangerEffectHandler21FshifterEffectHandler22ModulatorEffectHandler21PshifterEffectHandler21VmorpherEffectHandler28DedicatedDialogEffectHandler25DedicatedLfeEffectHandler24ConvolutionEffectHandlerEEEEEEDcT_DpT0_', symObjAddr: 0x2A28, symBinAddr: 0x14510, symSize: 0x34 }
  - { offset: 0x13A283, size: 0x8, addend: 0x0, symName: '__ZNSt3__116__variant_detail12__visitation6__base12__dispatcherIJLm13EEE10__dispatchB8fe200100IONS1_9__variant15__value_visitorIZN12_GLOBAL__N_110alEffectivEN3gsl8not_nullIPN2al7ContextEEEjiPKiE3$_0EEJRNS0_6__baseILNS0_6_TraitE0EJ17NullEffectHandler19ReverbEffectHandler22StdReverbEffectHandler20AutowahEffectHandler19ChorusEffectHandler23CompressorEffectHandler23DistortionEffectHandler17EchoEffectHandler22EqualizerEffectHandler20FlangerEffectHandler21FshifterEffectHandler22ModulatorEffectHandler21PshifterEffectHandler21VmorpherEffectHandler28DedicatedDialogEffectHandler25DedicatedLfeEffectHandler24ConvolutionEffectHandlerEEEEEEDcT_DpT0_', symObjAddr: 0x2A28, symBinAddr: 0x14510, symSize: 0x34 }
  - { offset: 0x13A2B7, size: 0x8, addend: 0x0, symName: '__ZNSt3__116__variant_detail12__visitation6__base12__dispatcherIJLm13EEE10__dispatchB8fe200100IONS1_9__variant15__value_visitorIZN12_GLOBAL__N_110alEffectivEN3gsl8not_nullIPN2al7ContextEEEjiPKiE3$_0EEJRNS0_6__baseILNS0_6_TraitE0EJ17NullEffectHandler19ReverbEffectHandler22StdReverbEffectHandler20AutowahEffectHandler19ChorusEffectHandler23CompressorEffectHandler23DistortionEffectHandler17EchoEffectHandler22EqualizerEffectHandler20FlangerEffectHandler21FshifterEffectHandler22ModulatorEffectHandler21PshifterEffectHandler21VmorpherEffectHandler28DedicatedDialogEffectHandler25DedicatedLfeEffectHandler24ConvolutionEffectHandlerEEEEEEDcT_DpT0_', symObjAddr: 0x2A28, symBinAddr: 0x14510, symSize: 0x34 }
  - { offset: 0x13A2D5, size: 0x8, addend: 0x0, symName: '__ZNSt3__116__variant_detail12__visitation6__base12__dispatcherIJLm13EEE10__dispatchB8fe200100IONS1_9__variant15__value_visitorIZN12_GLOBAL__N_110alEffectivEN3gsl8not_nullIPN2al7ContextEEEjiPKiE3$_0EEJRNS0_6__baseILNS0_6_TraitE0EJ17NullEffectHandler19ReverbEffectHandler22StdReverbEffectHandler20AutowahEffectHandler19ChorusEffectHandler23CompressorEffectHandler23DistortionEffectHandler17EchoEffectHandler22EqualizerEffectHandler20FlangerEffectHandler21FshifterEffectHandler22ModulatorEffectHandler21PshifterEffectHandler21VmorpherEffectHandler28DedicatedDialogEffectHandler25DedicatedLfeEffectHandler24ConvolutionEffectHandlerEEEEEEDcT_DpT0_', symObjAddr: 0x2A28, symBinAddr: 0x14510, symSize: 0x34 }
  - { offset: 0x13A446, size: 0x8, addend: 0x0, symName: '__ZNSt3__116__variant_detail12__visitation6__base12__dispatcherIJLm14EEE10__dispatchB8fe200100IONS1_9__variant15__value_visitorIZN12_GLOBAL__N_110alEffectivEN3gsl8not_nullIPN2al7ContextEEEjiPKiE3$_0EEJRNS0_6__baseILNS0_6_TraitE0EJ17NullEffectHandler19ReverbEffectHandler22StdReverbEffectHandler20AutowahEffectHandler19ChorusEffectHandler23CompressorEffectHandler23DistortionEffectHandler17EchoEffectHandler22EqualizerEffectHandler20FlangerEffectHandler21FshifterEffectHandler22ModulatorEffectHandler21PshifterEffectHandler21VmorpherEffectHandler28DedicatedDialogEffectHandler25DedicatedLfeEffectHandler24ConvolutionEffectHandlerEEEEEEDcT_DpT0_', symObjAddr: 0x2A5C, symBinAddr: 0x14544, symSize: 0x34 }
  - { offset: 0x13A4C3, size: 0x8, addend: 0x0, symName: '__ZNSt3__116__variant_detail12__visitation6__base12__dispatcherIJLm14EEE10__dispatchB8fe200100IONS1_9__variant15__value_visitorIZN12_GLOBAL__N_110alEffectivEN3gsl8not_nullIPN2al7ContextEEEjiPKiE3$_0EEJRNS0_6__baseILNS0_6_TraitE0EJ17NullEffectHandler19ReverbEffectHandler22StdReverbEffectHandler20AutowahEffectHandler19ChorusEffectHandler23CompressorEffectHandler23DistortionEffectHandler17EchoEffectHandler22EqualizerEffectHandler20FlangerEffectHandler21FshifterEffectHandler22ModulatorEffectHandler21PshifterEffectHandler21VmorpherEffectHandler28DedicatedDialogEffectHandler25DedicatedLfeEffectHandler24ConvolutionEffectHandlerEEEEEEDcT_DpT0_', symObjAddr: 0x2A5C, symBinAddr: 0x14544, symSize: 0x34 }
  - { offset: 0x13A4F7, size: 0x8, addend: 0x0, symName: '__ZNSt3__116__variant_detail12__visitation6__base12__dispatcherIJLm14EEE10__dispatchB8fe200100IONS1_9__variant15__value_visitorIZN12_GLOBAL__N_110alEffectivEN3gsl8not_nullIPN2al7ContextEEEjiPKiE3$_0EEJRNS0_6__baseILNS0_6_TraitE0EJ17NullEffectHandler19ReverbEffectHandler22StdReverbEffectHandler20AutowahEffectHandler19ChorusEffectHandler23CompressorEffectHandler23DistortionEffectHandler17EchoEffectHandler22EqualizerEffectHandler20FlangerEffectHandler21FshifterEffectHandler22ModulatorEffectHandler21PshifterEffectHandler21VmorpherEffectHandler28DedicatedDialogEffectHandler25DedicatedLfeEffectHandler24ConvolutionEffectHandlerEEEEEEDcT_DpT0_', symObjAddr: 0x2A5C, symBinAddr: 0x14544, symSize: 0x34 }
  - { offset: 0x13A515, size: 0x8, addend: 0x0, symName: '__ZNSt3__116__variant_detail12__visitation6__base12__dispatcherIJLm14EEE10__dispatchB8fe200100IONS1_9__variant15__value_visitorIZN12_GLOBAL__N_110alEffectivEN3gsl8not_nullIPN2al7ContextEEEjiPKiE3$_0EEJRNS0_6__baseILNS0_6_TraitE0EJ17NullEffectHandler19ReverbEffectHandler22StdReverbEffectHandler20AutowahEffectHandler19ChorusEffectHandler23CompressorEffectHandler23DistortionEffectHandler17EchoEffectHandler22EqualizerEffectHandler20FlangerEffectHandler21FshifterEffectHandler22ModulatorEffectHandler21PshifterEffectHandler21VmorpherEffectHandler28DedicatedDialogEffectHandler25DedicatedLfeEffectHandler24ConvolutionEffectHandlerEEEEEEDcT_DpT0_', symObjAddr: 0x2A5C, symBinAddr: 0x14544, symSize: 0x34 }
  - { offset: 0x13A686, size: 0x8, addend: 0x0, symName: '__ZNSt3__116__variant_detail12__visitation6__base12__dispatcherIJLm15EEE10__dispatchB8fe200100IONS1_9__variant15__value_visitorIZN12_GLOBAL__N_110alEffectivEN3gsl8not_nullIPN2al7ContextEEEjiPKiE3$_0EEJRNS0_6__baseILNS0_6_TraitE0EJ17NullEffectHandler19ReverbEffectHandler22StdReverbEffectHandler20AutowahEffectHandler19ChorusEffectHandler23CompressorEffectHandler23DistortionEffectHandler17EchoEffectHandler22EqualizerEffectHandler20FlangerEffectHandler21FshifterEffectHandler22ModulatorEffectHandler21PshifterEffectHandler21VmorpherEffectHandler28DedicatedDialogEffectHandler25DedicatedLfeEffectHandler24ConvolutionEffectHandlerEEEEEEDcT_DpT0_', symObjAddr: 0x2A90, symBinAddr: 0x14578, symSize: 0x34 }
  - { offset: 0x13A703, size: 0x8, addend: 0x0, symName: '__ZNSt3__116__variant_detail12__visitation6__base12__dispatcherIJLm15EEE10__dispatchB8fe200100IONS1_9__variant15__value_visitorIZN12_GLOBAL__N_110alEffectivEN3gsl8not_nullIPN2al7ContextEEEjiPKiE3$_0EEJRNS0_6__baseILNS0_6_TraitE0EJ17NullEffectHandler19ReverbEffectHandler22StdReverbEffectHandler20AutowahEffectHandler19ChorusEffectHandler23CompressorEffectHandler23DistortionEffectHandler17EchoEffectHandler22EqualizerEffectHandler20FlangerEffectHandler21FshifterEffectHandler22ModulatorEffectHandler21PshifterEffectHandler21VmorpherEffectHandler28DedicatedDialogEffectHandler25DedicatedLfeEffectHandler24ConvolutionEffectHandlerEEEEEEDcT_DpT0_', symObjAddr: 0x2A90, symBinAddr: 0x14578, symSize: 0x34 }
  - { offset: 0x13A737, size: 0x8, addend: 0x0, symName: '__ZNSt3__116__variant_detail12__visitation6__base12__dispatcherIJLm15EEE10__dispatchB8fe200100IONS1_9__variant15__value_visitorIZN12_GLOBAL__N_110alEffectivEN3gsl8not_nullIPN2al7ContextEEEjiPKiE3$_0EEJRNS0_6__baseILNS0_6_TraitE0EJ17NullEffectHandler19ReverbEffectHandler22StdReverbEffectHandler20AutowahEffectHandler19ChorusEffectHandler23CompressorEffectHandler23DistortionEffectHandler17EchoEffectHandler22EqualizerEffectHandler20FlangerEffectHandler21FshifterEffectHandler22ModulatorEffectHandler21PshifterEffectHandler21VmorpherEffectHandler28DedicatedDialogEffectHandler25DedicatedLfeEffectHandler24ConvolutionEffectHandlerEEEEEEDcT_DpT0_', symObjAddr: 0x2A90, symBinAddr: 0x14578, symSize: 0x34 }
  - { offset: 0x13A755, size: 0x8, addend: 0x0, symName: '__ZNSt3__116__variant_detail12__visitation6__base12__dispatcherIJLm15EEE10__dispatchB8fe200100IONS1_9__variant15__value_visitorIZN12_GLOBAL__N_110alEffectivEN3gsl8not_nullIPN2al7ContextEEEjiPKiE3$_0EEJRNS0_6__baseILNS0_6_TraitE0EJ17NullEffectHandler19ReverbEffectHandler22StdReverbEffectHandler20AutowahEffectHandler19ChorusEffectHandler23CompressorEffectHandler23DistortionEffectHandler17EchoEffectHandler22EqualizerEffectHandler20FlangerEffectHandler21FshifterEffectHandler22ModulatorEffectHandler21PshifterEffectHandler21VmorpherEffectHandler28DedicatedDialogEffectHandler25DedicatedLfeEffectHandler24ConvolutionEffectHandlerEEEEEEDcT_DpT0_', symObjAddr: 0x2A90, symBinAddr: 0x14578, symSize: 0x34 }
  - { offset: 0x13A8C6, size: 0x8, addend: 0x0, symName: '__ZNSt3__116__variant_detail12__visitation6__base12__dispatcherIJLm16EEE10__dispatchB8fe200100IONS1_9__variant15__value_visitorIZN12_GLOBAL__N_110alEffectivEN3gsl8not_nullIPN2al7ContextEEEjiPKiE3$_0EEJRNS0_6__baseILNS0_6_TraitE0EJ17NullEffectHandler19ReverbEffectHandler22StdReverbEffectHandler20AutowahEffectHandler19ChorusEffectHandler23CompressorEffectHandler23DistortionEffectHandler17EchoEffectHandler22EqualizerEffectHandler20FlangerEffectHandler21FshifterEffectHandler22ModulatorEffectHandler21PshifterEffectHandler21VmorpherEffectHandler28DedicatedDialogEffectHandler25DedicatedLfeEffectHandler24ConvolutionEffectHandlerEEEEEEDcT_DpT0_', symObjAddr: 0x2AC4, symBinAddr: 0x145AC, symSize: 0x34 }
  - { offset: 0x13A943, size: 0x8, addend: 0x0, symName: '__ZNSt3__116__variant_detail12__visitation6__base12__dispatcherIJLm16EEE10__dispatchB8fe200100IONS1_9__variant15__value_visitorIZN12_GLOBAL__N_110alEffectivEN3gsl8not_nullIPN2al7ContextEEEjiPKiE3$_0EEJRNS0_6__baseILNS0_6_TraitE0EJ17NullEffectHandler19ReverbEffectHandler22StdReverbEffectHandler20AutowahEffectHandler19ChorusEffectHandler23CompressorEffectHandler23DistortionEffectHandler17EchoEffectHandler22EqualizerEffectHandler20FlangerEffectHandler21FshifterEffectHandler22ModulatorEffectHandler21PshifterEffectHandler21VmorpherEffectHandler28DedicatedDialogEffectHandler25DedicatedLfeEffectHandler24ConvolutionEffectHandlerEEEEEEDcT_DpT0_', symObjAddr: 0x2AC4, symBinAddr: 0x145AC, symSize: 0x34 }
  - { offset: 0x13A977, size: 0x8, addend: 0x0, symName: '__ZNSt3__116__variant_detail12__visitation6__base12__dispatcherIJLm16EEE10__dispatchB8fe200100IONS1_9__variant15__value_visitorIZN12_GLOBAL__N_110alEffectivEN3gsl8not_nullIPN2al7ContextEEEjiPKiE3$_0EEJRNS0_6__baseILNS0_6_TraitE0EJ17NullEffectHandler19ReverbEffectHandler22StdReverbEffectHandler20AutowahEffectHandler19ChorusEffectHandler23CompressorEffectHandler23DistortionEffectHandler17EchoEffectHandler22EqualizerEffectHandler20FlangerEffectHandler21FshifterEffectHandler22ModulatorEffectHandler21PshifterEffectHandler21VmorpherEffectHandler28DedicatedDialogEffectHandler25DedicatedLfeEffectHandler24ConvolutionEffectHandlerEEEEEEDcT_DpT0_', symObjAddr: 0x2AC4, symBinAddr: 0x145AC, symSize: 0x34 }
  - { offset: 0x13A995, size: 0x8, addend: 0x0, symName: '__ZNSt3__116__variant_detail12__visitation6__base12__dispatcherIJLm16EEE10__dispatchB8fe200100IONS1_9__variant15__value_visitorIZN12_GLOBAL__N_110alEffectivEN3gsl8not_nullIPN2al7ContextEEEjiPKiE3$_0EEJRNS0_6__baseILNS0_6_TraitE0EJ17NullEffectHandler19ReverbEffectHandler22StdReverbEffectHandler20AutowahEffectHandler19ChorusEffectHandler23CompressorEffectHandler23DistortionEffectHandler17EchoEffectHandler22EqualizerEffectHandler20FlangerEffectHandler21FshifterEffectHandler22ModulatorEffectHandler21PshifterEffectHandler21VmorpherEffectHandler28DedicatedDialogEffectHandler25DedicatedLfeEffectHandler24ConvolutionEffectHandlerEEEEEEDcT_DpT0_', symObjAddr: 0x2AC4, symBinAddr: 0x145AC, symSize: 0x34 }
  - { offset: 0x13AB06, size: 0x8, addend: 0x0, symName: '__ZNSt3__116__variant_detail12__visitation6__base12__dispatcherIJLm0EEE10__dispatchB8fe200100IONS1_9__variant15__value_visitorIZN12_GLOBAL__N_19alEffectfEN3gsl8not_nullIPN2al7ContextEEEjifE3$_0EEJRNS0_6__baseILNS0_6_TraitE0EJ17NullEffectHandler19ReverbEffectHandler22StdReverbEffectHandler20AutowahEffectHandler19ChorusEffectHandler23CompressorEffectHandler23DistortionEffectHandler17EchoEffectHandler22EqualizerEffectHandler20FlangerEffectHandler21FshifterEffectHandler22ModulatorEffectHandler21PshifterEffectHandler21VmorpherEffectHandler28DedicatedDialogEffectHandler25DedicatedLfeEffectHandler24ConvolutionEffectHandlerEEEEEEDcT_DpT0_', symObjAddr: 0x2AF8, symBinAddr: 0x145E0, symSize: 0x30 }
  - { offset: 0x13ABA7, size: 0x8, addend: 0x0, symName: '__ZNSt3__116__variant_detail12__visitation6__base12__dispatcherIJLm0EEE10__dispatchB8fe200100IONS1_9__variant15__value_visitorIZN12_GLOBAL__N_19alEffectfEN3gsl8not_nullIPN2al7ContextEEEjifE3$_0EEJRNS0_6__baseILNS0_6_TraitE0EJ17NullEffectHandler19ReverbEffectHandler22StdReverbEffectHandler20AutowahEffectHandler19ChorusEffectHandler23CompressorEffectHandler23DistortionEffectHandler17EchoEffectHandler22EqualizerEffectHandler20FlangerEffectHandler21FshifterEffectHandler22ModulatorEffectHandler21PshifterEffectHandler21VmorpherEffectHandler28DedicatedDialogEffectHandler25DedicatedLfeEffectHandler24ConvolutionEffectHandlerEEEEEEDcT_DpT0_', symObjAddr: 0x2AF8, symBinAddr: 0x145E0, symSize: 0x30 }
  - { offset: 0x13ABDB, size: 0x8, addend: 0x0, symName: '__ZNSt3__116__variant_detail12__visitation6__base12__dispatcherIJLm0EEE10__dispatchB8fe200100IONS1_9__variant15__value_visitorIZN12_GLOBAL__N_19alEffectfEN3gsl8not_nullIPN2al7ContextEEEjifE3$_0EEJRNS0_6__baseILNS0_6_TraitE0EJ17NullEffectHandler19ReverbEffectHandler22StdReverbEffectHandler20AutowahEffectHandler19ChorusEffectHandler23CompressorEffectHandler23DistortionEffectHandler17EchoEffectHandler22EqualizerEffectHandler20FlangerEffectHandler21FshifterEffectHandler22ModulatorEffectHandler21PshifterEffectHandler21VmorpherEffectHandler28DedicatedDialogEffectHandler25DedicatedLfeEffectHandler24ConvolutionEffectHandlerEEEEEEDcT_DpT0_', symObjAddr: 0x2AF8, symBinAddr: 0x145E0, symSize: 0x30 }
  - { offset: 0x13ABF9, size: 0x8, addend: 0x0, symName: '__ZNSt3__116__variant_detail12__visitation6__base12__dispatcherIJLm0EEE10__dispatchB8fe200100IONS1_9__variant15__value_visitorIZN12_GLOBAL__N_19alEffectfEN3gsl8not_nullIPN2al7ContextEEEjifE3$_0EEJRNS0_6__baseILNS0_6_TraitE0EJ17NullEffectHandler19ReverbEffectHandler22StdReverbEffectHandler20AutowahEffectHandler19ChorusEffectHandler23CompressorEffectHandler23DistortionEffectHandler17EchoEffectHandler22EqualizerEffectHandler20FlangerEffectHandler21FshifterEffectHandler22ModulatorEffectHandler21PshifterEffectHandler21VmorpherEffectHandler28DedicatedDialogEffectHandler25DedicatedLfeEffectHandler24ConvolutionEffectHandlerEEEEEEDcT_DpT0_', symObjAddr: 0x2AF8, symBinAddr: 0x145E0, symSize: 0x30 }
  - { offset: 0x13AD6A, size: 0x8, addend: 0x0, symName: '__ZNSt3__116__variant_detail12__visitation6__base12__dispatcherIJLm1EEE10__dispatchB8fe200100IONS1_9__variant15__value_visitorIZN12_GLOBAL__N_19alEffectfEN3gsl8not_nullIPN2al7ContextEEEjifE3$_0EEJRNS0_6__baseILNS0_6_TraitE0EJ17NullEffectHandler19ReverbEffectHandler22StdReverbEffectHandler20AutowahEffectHandler19ChorusEffectHandler23CompressorEffectHandler23DistortionEffectHandler17EchoEffectHandler22EqualizerEffectHandler20FlangerEffectHandler21FshifterEffectHandler22ModulatorEffectHandler21PshifterEffectHandler21VmorpherEffectHandler28DedicatedDialogEffectHandler25DedicatedLfeEffectHandler24ConvolutionEffectHandlerEEEEEEDcT_DpT0_', symObjAddr: 0x2B28, symBinAddr: 0x14610, symSize: 0x34 }
  - { offset: 0x13ADE7, size: 0x8, addend: 0x0, symName: '__ZNSt3__116__variant_detail12__visitation6__base12__dispatcherIJLm1EEE10__dispatchB8fe200100IONS1_9__variant15__value_visitorIZN12_GLOBAL__N_19alEffectfEN3gsl8not_nullIPN2al7ContextEEEjifE3$_0EEJRNS0_6__baseILNS0_6_TraitE0EJ17NullEffectHandler19ReverbEffectHandler22StdReverbEffectHandler20AutowahEffectHandler19ChorusEffectHandler23CompressorEffectHandler23DistortionEffectHandler17EchoEffectHandler22EqualizerEffectHandler20FlangerEffectHandler21FshifterEffectHandler22ModulatorEffectHandler21PshifterEffectHandler21VmorpherEffectHandler28DedicatedDialogEffectHandler25DedicatedLfeEffectHandler24ConvolutionEffectHandlerEEEEEEDcT_DpT0_', symObjAddr: 0x2B28, symBinAddr: 0x14610, symSize: 0x34 }
  - { offset: 0x13AE1B, size: 0x8, addend: 0x0, symName: '__ZNSt3__116__variant_detail12__visitation6__base12__dispatcherIJLm1EEE10__dispatchB8fe200100IONS1_9__variant15__value_visitorIZN12_GLOBAL__N_19alEffectfEN3gsl8not_nullIPN2al7ContextEEEjifE3$_0EEJRNS0_6__baseILNS0_6_TraitE0EJ17NullEffectHandler19ReverbEffectHandler22StdReverbEffectHandler20AutowahEffectHandler19ChorusEffectHandler23CompressorEffectHandler23DistortionEffectHandler17EchoEffectHandler22EqualizerEffectHandler20FlangerEffectHandler21FshifterEffectHandler22ModulatorEffectHandler21PshifterEffectHandler21VmorpherEffectHandler28DedicatedDialogEffectHandler25DedicatedLfeEffectHandler24ConvolutionEffectHandlerEEEEEEDcT_DpT0_', symObjAddr: 0x2B28, symBinAddr: 0x14610, symSize: 0x34 }
  - { offset: 0x13AE39, size: 0x8, addend: 0x0, symName: '__ZNSt3__116__variant_detail12__visitation6__base12__dispatcherIJLm1EEE10__dispatchB8fe200100IONS1_9__variant15__value_visitorIZN12_GLOBAL__N_19alEffectfEN3gsl8not_nullIPN2al7ContextEEEjifE3$_0EEJRNS0_6__baseILNS0_6_TraitE0EJ17NullEffectHandler19ReverbEffectHandler22StdReverbEffectHandler20AutowahEffectHandler19ChorusEffectHandler23CompressorEffectHandler23DistortionEffectHandler17EchoEffectHandler22EqualizerEffectHandler20FlangerEffectHandler21FshifterEffectHandler22ModulatorEffectHandler21PshifterEffectHandler21VmorpherEffectHandler28DedicatedDialogEffectHandler25DedicatedLfeEffectHandler24ConvolutionEffectHandlerEEEEEEDcT_DpT0_', symObjAddr: 0x2B28, symBinAddr: 0x14610, symSize: 0x34 }
  - { offset: 0x13AFAA, size: 0x8, addend: 0x0, symName: '__ZNSt3__116__variant_detail12__visitation6__base12__dispatcherIJLm2EEE10__dispatchB8fe200100IONS1_9__variant15__value_visitorIZN12_GLOBAL__N_19alEffectfEN3gsl8not_nullIPN2al7ContextEEEjifE3$_0EEJRNS0_6__baseILNS0_6_TraitE0EJ17NullEffectHandler19ReverbEffectHandler22StdReverbEffectHandler20AutowahEffectHandler19ChorusEffectHandler23CompressorEffectHandler23DistortionEffectHandler17EchoEffectHandler22EqualizerEffectHandler20FlangerEffectHandler21FshifterEffectHandler22ModulatorEffectHandler21PshifterEffectHandler21VmorpherEffectHandler28DedicatedDialogEffectHandler25DedicatedLfeEffectHandler24ConvolutionEffectHandlerEEEEEEDcT_DpT0_', symObjAddr: 0x2B5C, symBinAddr: 0x14644, symSize: 0x34 }
  - { offset: 0x13B027, size: 0x8, addend: 0x0, symName: '__ZNSt3__116__variant_detail12__visitation6__base12__dispatcherIJLm2EEE10__dispatchB8fe200100IONS1_9__variant15__value_visitorIZN12_GLOBAL__N_19alEffectfEN3gsl8not_nullIPN2al7ContextEEEjifE3$_0EEJRNS0_6__baseILNS0_6_TraitE0EJ17NullEffectHandler19ReverbEffectHandler22StdReverbEffectHandler20AutowahEffectHandler19ChorusEffectHandler23CompressorEffectHandler23DistortionEffectHandler17EchoEffectHandler22EqualizerEffectHandler20FlangerEffectHandler21FshifterEffectHandler22ModulatorEffectHandler21PshifterEffectHandler21VmorpherEffectHandler28DedicatedDialogEffectHandler25DedicatedLfeEffectHandler24ConvolutionEffectHandlerEEEEEEDcT_DpT0_', symObjAddr: 0x2B5C, symBinAddr: 0x14644, symSize: 0x34 }
  - { offset: 0x13B05B, size: 0x8, addend: 0x0, symName: '__ZNSt3__116__variant_detail12__visitation6__base12__dispatcherIJLm2EEE10__dispatchB8fe200100IONS1_9__variant15__value_visitorIZN12_GLOBAL__N_19alEffectfEN3gsl8not_nullIPN2al7ContextEEEjifE3$_0EEJRNS0_6__baseILNS0_6_TraitE0EJ17NullEffectHandler19ReverbEffectHandler22StdReverbEffectHandler20AutowahEffectHandler19ChorusEffectHandler23CompressorEffectHandler23DistortionEffectHandler17EchoEffectHandler22EqualizerEffectHandler20FlangerEffectHandler21FshifterEffectHandler22ModulatorEffectHandler21PshifterEffectHandler21VmorpherEffectHandler28DedicatedDialogEffectHandler25DedicatedLfeEffectHandler24ConvolutionEffectHandlerEEEEEEDcT_DpT0_', symObjAddr: 0x2B5C, symBinAddr: 0x14644, symSize: 0x34 }
  - { offset: 0x13B079, size: 0x8, addend: 0x0, symName: '__ZNSt3__116__variant_detail12__visitation6__base12__dispatcherIJLm2EEE10__dispatchB8fe200100IONS1_9__variant15__value_visitorIZN12_GLOBAL__N_19alEffectfEN3gsl8not_nullIPN2al7ContextEEEjifE3$_0EEJRNS0_6__baseILNS0_6_TraitE0EJ17NullEffectHandler19ReverbEffectHandler22StdReverbEffectHandler20AutowahEffectHandler19ChorusEffectHandler23CompressorEffectHandler23DistortionEffectHandler17EchoEffectHandler22EqualizerEffectHandler20FlangerEffectHandler21FshifterEffectHandler22ModulatorEffectHandler21PshifterEffectHandler21VmorpherEffectHandler28DedicatedDialogEffectHandler25DedicatedLfeEffectHandler24ConvolutionEffectHandlerEEEEEEDcT_DpT0_', symObjAddr: 0x2B5C, symBinAddr: 0x14644, symSize: 0x34 }
  - { offset: 0x13B1EA, size: 0x8, addend: 0x0, symName: '__ZNSt3__116__variant_detail12__visitation6__base12__dispatcherIJLm3EEE10__dispatchB8fe200100IONS1_9__variant15__value_visitorIZN12_GLOBAL__N_19alEffectfEN3gsl8not_nullIPN2al7ContextEEEjifE3$_0EEJRNS0_6__baseILNS0_6_TraitE0EJ17NullEffectHandler19ReverbEffectHandler22StdReverbEffectHandler20AutowahEffectHandler19ChorusEffectHandler23CompressorEffectHandler23DistortionEffectHandler17EchoEffectHandler22EqualizerEffectHandler20FlangerEffectHandler21FshifterEffectHandler22ModulatorEffectHandler21PshifterEffectHandler21VmorpherEffectHandler28DedicatedDialogEffectHandler25DedicatedLfeEffectHandler24ConvolutionEffectHandlerEEEEEEDcT_DpT0_', symObjAddr: 0x2B90, symBinAddr: 0x14678, symSize: 0x34 }
  - { offset: 0x13B267, size: 0x8, addend: 0x0, symName: '__ZNSt3__116__variant_detail12__visitation6__base12__dispatcherIJLm3EEE10__dispatchB8fe200100IONS1_9__variant15__value_visitorIZN12_GLOBAL__N_19alEffectfEN3gsl8not_nullIPN2al7ContextEEEjifE3$_0EEJRNS0_6__baseILNS0_6_TraitE0EJ17NullEffectHandler19ReverbEffectHandler22StdReverbEffectHandler20AutowahEffectHandler19ChorusEffectHandler23CompressorEffectHandler23DistortionEffectHandler17EchoEffectHandler22EqualizerEffectHandler20FlangerEffectHandler21FshifterEffectHandler22ModulatorEffectHandler21PshifterEffectHandler21VmorpherEffectHandler28DedicatedDialogEffectHandler25DedicatedLfeEffectHandler24ConvolutionEffectHandlerEEEEEEDcT_DpT0_', symObjAddr: 0x2B90, symBinAddr: 0x14678, symSize: 0x34 }
  - { offset: 0x13B29B, size: 0x8, addend: 0x0, symName: '__ZNSt3__116__variant_detail12__visitation6__base12__dispatcherIJLm3EEE10__dispatchB8fe200100IONS1_9__variant15__value_visitorIZN12_GLOBAL__N_19alEffectfEN3gsl8not_nullIPN2al7ContextEEEjifE3$_0EEJRNS0_6__baseILNS0_6_TraitE0EJ17NullEffectHandler19ReverbEffectHandler22StdReverbEffectHandler20AutowahEffectHandler19ChorusEffectHandler23CompressorEffectHandler23DistortionEffectHandler17EchoEffectHandler22EqualizerEffectHandler20FlangerEffectHandler21FshifterEffectHandler22ModulatorEffectHandler21PshifterEffectHandler21VmorpherEffectHandler28DedicatedDialogEffectHandler25DedicatedLfeEffectHandler24ConvolutionEffectHandlerEEEEEEDcT_DpT0_', symObjAddr: 0x2B90, symBinAddr: 0x14678, symSize: 0x34 }
  - { offset: 0x13B2B9, size: 0x8, addend: 0x0, symName: '__ZNSt3__116__variant_detail12__visitation6__base12__dispatcherIJLm3EEE10__dispatchB8fe200100IONS1_9__variant15__value_visitorIZN12_GLOBAL__N_19alEffectfEN3gsl8not_nullIPN2al7ContextEEEjifE3$_0EEJRNS0_6__baseILNS0_6_TraitE0EJ17NullEffectHandler19ReverbEffectHandler22StdReverbEffectHandler20AutowahEffectHandler19ChorusEffectHandler23CompressorEffectHandler23DistortionEffectHandler17EchoEffectHandler22EqualizerEffectHandler20FlangerEffectHandler21FshifterEffectHandler22ModulatorEffectHandler21PshifterEffectHandler21VmorpherEffectHandler28DedicatedDialogEffectHandler25DedicatedLfeEffectHandler24ConvolutionEffectHandlerEEEEEEDcT_DpT0_', symObjAddr: 0x2B90, symBinAddr: 0x14678, symSize: 0x34 }
  - { offset: 0x13B42A, size: 0x8, addend: 0x0, symName: '__ZNSt3__116__variant_detail12__visitation6__base12__dispatcherIJLm4EEE10__dispatchB8fe200100IONS1_9__variant15__value_visitorIZN12_GLOBAL__N_19alEffectfEN3gsl8not_nullIPN2al7ContextEEEjifE3$_0EEJRNS0_6__baseILNS0_6_TraitE0EJ17NullEffectHandler19ReverbEffectHandler22StdReverbEffectHandler20AutowahEffectHandler19ChorusEffectHandler23CompressorEffectHandler23DistortionEffectHandler17EchoEffectHandler22EqualizerEffectHandler20FlangerEffectHandler21FshifterEffectHandler22ModulatorEffectHandler21PshifterEffectHandler21VmorpherEffectHandler28DedicatedDialogEffectHandler25DedicatedLfeEffectHandler24ConvolutionEffectHandlerEEEEEEDcT_DpT0_', symObjAddr: 0x2BC4, symBinAddr: 0x146AC, symSize: 0x34 }
  - { offset: 0x13B4A7, size: 0x8, addend: 0x0, symName: '__ZNSt3__116__variant_detail12__visitation6__base12__dispatcherIJLm4EEE10__dispatchB8fe200100IONS1_9__variant15__value_visitorIZN12_GLOBAL__N_19alEffectfEN3gsl8not_nullIPN2al7ContextEEEjifE3$_0EEJRNS0_6__baseILNS0_6_TraitE0EJ17NullEffectHandler19ReverbEffectHandler22StdReverbEffectHandler20AutowahEffectHandler19ChorusEffectHandler23CompressorEffectHandler23DistortionEffectHandler17EchoEffectHandler22EqualizerEffectHandler20FlangerEffectHandler21FshifterEffectHandler22ModulatorEffectHandler21PshifterEffectHandler21VmorpherEffectHandler28DedicatedDialogEffectHandler25DedicatedLfeEffectHandler24ConvolutionEffectHandlerEEEEEEDcT_DpT0_', symObjAddr: 0x2BC4, symBinAddr: 0x146AC, symSize: 0x34 }
  - { offset: 0x13B4DB, size: 0x8, addend: 0x0, symName: '__ZNSt3__116__variant_detail12__visitation6__base12__dispatcherIJLm4EEE10__dispatchB8fe200100IONS1_9__variant15__value_visitorIZN12_GLOBAL__N_19alEffectfEN3gsl8not_nullIPN2al7ContextEEEjifE3$_0EEJRNS0_6__baseILNS0_6_TraitE0EJ17NullEffectHandler19ReverbEffectHandler22StdReverbEffectHandler20AutowahEffectHandler19ChorusEffectHandler23CompressorEffectHandler23DistortionEffectHandler17EchoEffectHandler22EqualizerEffectHandler20FlangerEffectHandler21FshifterEffectHandler22ModulatorEffectHandler21PshifterEffectHandler21VmorpherEffectHandler28DedicatedDialogEffectHandler25DedicatedLfeEffectHandler24ConvolutionEffectHandlerEEEEEEDcT_DpT0_', symObjAddr: 0x2BC4, symBinAddr: 0x146AC, symSize: 0x34 }
  - { offset: 0x13B4F9, size: 0x8, addend: 0x0, symName: '__ZNSt3__116__variant_detail12__visitation6__base12__dispatcherIJLm4EEE10__dispatchB8fe200100IONS1_9__variant15__value_visitorIZN12_GLOBAL__N_19alEffectfEN3gsl8not_nullIPN2al7ContextEEEjifE3$_0EEJRNS0_6__baseILNS0_6_TraitE0EJ17NullEffectHandler19ReverbEffectHandler22StdReverbEffectHandler20AutowahEffectHandler19ChorusEffectHandler23CompressorEffectHandler23DistortionEffectHandler17EchoEffectHandler22EqualizerEffectHandler20FlangerEffectHandler21FshifterEffectHandler22ModulatorEffectHandler21PshifterEffectHandler21VmorpherEffectHandler28DedicatedDialogEffectHandler25DedicatedLfeEffectHandler24ConvolutionEffectHandlerEEEEEEDcT_DpT0_', symObjAddr: 0x2BC4, symBinAddr: 0x146AC, symSize: 0x34 }
  - { offset: 0x13B66A, size: 0x8, addend: 0x0, symName: '__ZNSt3__116__variant_detail12__visitation6__base12__dispatcherIJLm5EEE10__dispatchB8fe200100IONS1_9__variant15__value_visitorIZN12_GLOBAL__N_19alEffectfEN3gsl8not_nullIPN2al7ContextEEEjifE3$_0EEJRNS0_6__baseILNS0_6_TraitE0EJ17NullEffectHandler19ReverbEffectHandler22StdReverbEffectHandler20AutowahEffectHandler19ChorusEffectHandler23CompressorEffectHandler23DistortionEffectHandler17EchoEffectHandler22EqualizerEffectHandler20FlangerEffectHandler21FshifterEffectHandler22ModulatorEffectHandler21PshifterEffectHandler21VmorpherEffectHandler28DedicatedDialogEffectHandler25DedicatedLfeEffectHandler24ConvolutionEffectHandlerEEEEEEDcT_DpT0_', symObjAddr: 0x2BF8, symBinAddr: 0x146E0, symSize: 0x34 }
  - { offset: 0x13B6E7, size: 0x8, addend: 0x0, symName: '__ZNSt3__116__variant_detail12__visitation6__base12__dispatcherIJLm5EEE10__dispatchB8fe200100IONS1_9__variant15__value_visitorIZN12_GLOBAL__N_19alEffectfEN3gsl8not_nullIPN2al7ContextEEEjifE3$_0EEJRNS0_6__baseILNS0_6_TraitE0EJ17NullEffectHandler19ReverbEffectHandler22StdReverbEffectHandler20AutowahEffectHandler19ChorusEffectHandler23CompressorEffectHandler23DistortionEffectHandler17EchoEffectHandler22EqualizerEffectHandler20FlangerEffectHandler21FshifterEffectHandler22ModulatorEffectHandler21PshifterEffectHandler21VmorpherEffectHandler28DedicatedDialogEffectHandler25DedicatedLfeEffectHandler24ConvolutionEffectHandlerEEEEEEDcT_DpT0_', symObjAddr: 0x2BF8, symBinAddr: 0x146E0, symSize: 0x34 }
  - { offset: 0x13B71B, size: 0x8, addend: 0x0, symName: '__ZNSt3__116__variant_detail12__visitation6__base12__dispatcherIJLm5EEE10__dispatchB8fe200100IONS1_9__variant15__value_visitorIZN12_GLOBAL__N_19alEffectfEN3gsl8not_nullIPN2al7ContextEEEjifE3$_0EEJRNS0_6__baseILNS0_6_TraitE0EJ17NullEffectHandler19ReverbEffectHandler22StdReverbEffectHandler20AutowahEffectHandler19ChorusEffectHandler23CompressorEffectHandler23DistortionEffectHandler17EchoEffectHandler22EqualizerEffectHandler20FlangerEffectHandler21FshifterEffectHandler22ModulatorEffectHandler21PshifterEffectHandler21VmorpherEffectHandler28DedicatedDialogEffectHandler25DedicatedLfeEffectHandler24ConvolutionEffectHandlerEEEEEEDcT_DpT0_', symObjAddr: 0x2BF8, symBinAddr: 0x146E0, symSize: 0x34 }
  - { offset: 0x13B739, size: 0x8, addend: 0x0, symName: '__ZNSt3__116__variant_detail12__visitation6__base12__dispatcherIJLm5EEE10__dispatchB8fe200100IONS1_9__variant15__value_visitorIZN12_GLOBAL__N_19alEffectfEN3gsl8not_nullIPN2al7ContextEEEjifE3$_0EEJRNS0_6__baseILNS0_6_TraitE0EJ17NullEffectHandler19ReverbEffectHandler22StdReverbEffectHandler20AutowahEffectHandler19ChorusEffectHandler23CompressorEffectHandler23DistortionEffectHandler17EchoEffectHandler22EqualizerEffectHandler20FlangerEffectHandler21FshifterEffectHandler22ModulatorEffectHandler21PshifterEffectHandler21VmorpherEffectHandler28DedicatedDialogEffectHandler25DedicatedLfeEffectHandler24ConvolutionEffectHandlerEEEEEEDcT_DpT0_', symObjAddr: 0x2BF8, symBinAddr: 0x146E0, symSize: 0x34 }
  - { offset: 0x13B8AA, size: 0x8, addend: 0x0, symName: '__ZNSt3__116__variant_detail12__visitation6__base12__dispatcherIJLm6EEE10__dispatchB8fe200100IONS1_9__variant15__value_visitorIZN12_GLOBAL__N_19alEffectfEN3gsl8not_nullIPN2al7ContextEEEjifE3$_0EEJRNS0_6__baseILNS0_6_TraitE0EJ17NullEffectHandler19ReverbEffectHandler22StdReverbEffectHandler20AutowahEffectHandler19ChorusEffectHandler23CompressorEffectHandler23DistortionEffectHandler17EchoEffectHandler22EqualizerEffectHandler20FlangerEffectHandler21FshifterEffectHandler22ModulatorEffectHandler21PshifterEffectHandler21VmorpherEffectHandler28DedicatedDialogEffectHandler25DedicatedLfeEffectHandler24ConvolutionEffectHandlerEEEEEEDcT_DpT0_', symObjAddr: 0x2C2C, symBinAddr: 0x14714, symSize: 0x34 }
  - { offset: 0x13B927, size: 0x8, addend: 0x0, symName: '__ZNSt3__116__variant_detail12__visitation6__base12__dispatcherIJLm6EEE10__dispatchB8fe200100IONS1_9__variant15__value_visitorIZN12_GLOBAL__N_19alEffectfEN3gsl8not_nullIPN2al7ContextEEEjifE3$_0EEJRNS0_6__baseILNS0_6_TraitE0EJ17NullEffectHandler19ReverbEffectHandler22StdReverbEffectHandler20AutowahEffectHandler19ChorusEffectHandler23CompressorEffectHandler23DistortionEffectHandler17EchoEffectHandler22EqualizerEffectHandler20FlangerEffectHandler21FshifterEffectHandler22ModulatorEffectHandler21PshifterEffectHandler21VmorpherEffectHandler28DedicatedDialogEffectHandler25DedicatedLfeEffectHandler24ConvolutionEffectHandlerEEEEEEDcT_DpT0_', symObjAddr: 0x2C2C, symBinAddr: 0x14714, symSize: 0x34 }
  - { offset: 0x13B95B, size: 0x8, addend: 0x0, symName: '__ZNSt3__116__variant_detail12__visitation6__base12__dispatcherIJLm6EEE10__dispatchB8fe200100IONS1_9__variant15__value_visitorIZN12_GLOBAL__N_19alEffectfEN3gsl8not_nullIPN2al7ContextEEEjifE3$_0EEJRNS0_6__baseILNS0_6_TraitE0EJ17NullEffectHandler19ReverbEffectHandler22StdReverbEffectHandler20AutowahEffectHandler19ChorusEffectHandler23CompressorEffectHandler23DistortionEffectHandler17EchoEffectHandler22EqualizerEffectHandler20FlangerEffectHandler21FshifterEffectHandler22ModulatorEffectHandler21PshifterEffectHandler21VmorpherEffectHandler28DedicatedDialogEffectHandler25DedicatedLfeEffectHandler24ConvolutionEffectHandlerEEEEEEDcT_DpT0_', symObjAddr: 0x2C2C, symBinAddr: 0x14714, symSize: 0x34 }
  - { offset: 0x13B979, size: 0x8, addend: 0x0, symName: '__ZNSt3__116__variant_detail12__visitation6__base12__dispatcherIJLm6EEE10__dispatchB8fe200100IONS1_9__variant15__value_visitorIZN12_GLOBAL__N_19alEffectfEN3gsl8not_nullIPN2al7ContextEEEjifE3$_0EEJRNS0_6__baseILNS0_6_TraitE0EJ17NullEffectHandler19ReverbEffectHandler22StdReverbEffectHandler20AutowahEffectHandler19ChorusEffectHandler23CompressorEffectHandler23DistortionEffectHandler17EchoEffectHandler22EqualizerEffectHandler20FlangerEffectHandler21FshifterEffectHandler22ModulatorEffectHandler21PshifterEffectHandler21VmorpherEffectHandler28DedicatedDialogEffectHandler25DedicatedLfeEffectHandler24ConvolutionEffectHandlerEEEEEEDcT_DpT0_', symObjAddr: 0x2C2C, symBinAddr: 0x14714, symSize: 0x34 }
  - { offset: 0x13BAEA, size: 0x8, addend: 0x0, symName: '__ZNSt3__116__variant_detail12__visitation6__base12__dispatcherIJLm7EEE10__dispatchB8fe200100IONS1_9__variant15__value_visitorIZN12_GLOBAL__N_19alEffectfEN3gsl8not_nullIPN2al7ContextEEEjifE3$_0EEJRNS0_6__baseILNS0_6_TraitE0EJ17NullEffectHandler19ReverbEffectHandler22StdReverbEffectHandler20AutowahEffectHandler19ChorusEffectHandler23CompressorEffectHandler23DistortionEffectHandler17EchoEffectHandler22EqualizerEffectHandler20FlangerEffectHandler21FshifterEffectHandler22ModulatorEffectHandler21PshifterEffectHandler21VmorpherEffectHandler28DedicatedDialogEffectHandler25DedicatedLfeEffectHandler24ConvolutionEffectHandlerEEEEEEDcT_DpT0_', symObjAddr: 0x2C60, symBinAddr: 0x14748, symSize: 0x34 }
  - { offset: 0x13BB67, size: 0x8, addend: 0x0, symName: '__ZNSt3__116__variant_detail12__visitation6__base12__dispatcherIJLm7EEE10__dispatchB8fe200100IONS1_9__variant15__value_visitorIZN12_GLOBAL__N_19alEffectfEN3gsl8not_nullIPN2al7ContextEEEjifE3$_0EEJRNS0_6__baseILNS0_6_TraitE0EJ17NullEffectHandler19ReverbEffectHandler22StdReverbEffectHandler20AutowahEffectHandler19ChorusEffectHandler23CompressorEffectHandler23DistortionEffectHandler17EchoEffectHandler22EqualizerEffectHandler20FlangerEffectHandler21FshifterEffectHandler22ModulatorEffectHandler21PshifterEffectHandler21VmorpherEffectHandler28DedicatedDialogEffectHandler25DedicatedLfeEffectHandler24ConvolutionEffectHandlerEEEEEEDcT_DpT0_', symObjAddr: 0x2C60, symBinAddr: 0x14748, symSize: 0x34 }
  - { offset: 0x13BB9B, size: 0x8, addend: 0x0, symName: '__ZNSt3__116__variant_detail12__visitation6__base12__dispatcherIJLm7EEE10__dispatchB8fe200100IONS1_9__variant15__value_visitorIZN12_GLOBAL__N_19alEffectfEN3gsl8not_nullIPN2al7ContextEEEjifE3$_0EEJRNS0_6__baseILNS0_6_TraitE0EJ17NullEffectHandler19ReverbEffectHandler22StdReverbEffectHandler20AutowahEffectHandler19ChorusEffectHandler23CompressorEffectHandler23DistortionEffectHandler17EchoEffectHandler22EqualizerEffectHandler20FlangerEffectHandler21FshifterEffectHandler22ModulatorEffectHandler21PshifterEffectHandler21VmorpherEffectHandler28DedicatedDialogEffectHandler25DedicatedLfeEffectHandler24ConvolutionEffectHandlerEEEEEEDcT_DpT0_', symObjAddr: 0x2C60, symBinAddr: 0x14748, symSize: 0x34 }
  - { offset: 0x13BBB9, size: 0x8, addend: 0x0, symName: '__ZNSt3__116__variant_detail12__visitation6__base12__dispatcherIJLm7EEE10__dispatchB8fe200100IONS1_9__variant15__value_visitorIZN12_GLOBAL__N_19alEffectfEN3gsl8not_nullIPN2al7ContextEEEjifE3$_0EEJRNS0_6__baseILNS0_6_TraitE0EJ17NullEffectHandler19ReverbEffectHandler22StdReverbEffectHandler20AutowahEffectHandler19ChorusEffectHandler23CompressorEffectHandler23DistortionEffectHandler17EchoEffectHandler22EqualizerEffectHandler20FlangerEffectHandler21FshifterEffectHandler22ModulatorEffectHandler21PshifterEffectHandler21VmorpherEffectHandler28DedicatedDialogEffectHandler25DedicatedLfeEffectHandler24ConvolutionEffectHandlerEEEEEEDcT_DpT0_', symObjAddr: 0x2C60, symBinAddr: 0x14748, symSize: 0x34 }
  - { offset: 0x13BD2A, size: 0x8, addend: 0x0, symName: '__ZNSt3__116__variant_detail12__visitation6__base12__dispatcherIJLm8EEE10__dispatchB8fe200100IONS1_9__variant15__value_visitorIZN12_GLOBAL__N_19alEffectfEN3gsl8not_nullIPN2al7ContextEEEjifE3$_0EEJRNS0_6__baseILNS0_6_TraitE0EJ17NullEffectHandler19ReverbEffectHandler22StdReverbEffectHandler20AutowahEffectHandler19ChorusEffectHandler23CompressorEffectHandler23DistortionEffectHandler17EchoEffectHandler22EqualizerEffectHandler20FlangerEffectHandler21FshifterEffectHandler22ModulatorEffectHandler21PshifterEffectHandler21VmorpherEffectHandler28DedicatedDialogEffectHandler25DedicatedLfeEffectHandler24ConvolutionEffectHandlerEEEEEEDcT_DpT0_', symObjAddr: 0x2C94, symBinAddr: 0x1477C, symSize: 0x34 }
  - { offset: 0x13BDA7, size: 0x8, addend: 0x0, symName: '__ZNSt3__116__variant_detail12__visitation6__base12__dispatcherIJLm8EEE10__dispatchB8fe200100IONS1_9__variant15__value_visitorIZN12_GLOBAL__N_19alEffectfEN3gsl8not_nullIPN2al7ContextEEEjifE3$_0EEJRNS0_6__baseILNS0_6_TraitE0EJ17NullEffectHandler19ReverbEffectHandler22StdReverbEffectHandler20AutowahEffectHandler19ChorusEffectHandler23CompressorEffectHandler23DistortionEffectHandler17EchoEffectHandler22EqualizerEffectHandler20FlangerEffectHandler21FshifterEffectHandler22ModulatorEffectHandler21PshifterEffectHandler21VmorpherEffectHandler28DedicatedDialogEffectHandler25DedicatedLfeEffectHandler24ConvolutionEffectHandlerEEEEEEDcT_DpT0_', symObjAddr: 0x2C94, symBinAddr: 0x1477C, symSize: 0x34 }
  - { offset: 0x13BDDB, size: 0x8, addend: 0x0, symName: '__ZNSt3__116__variant_detail12__visitation6__base12__dispatcherIJLm8EEE10__dispatchB8fe200100IONS1_9__variant15__value_visitorIZN12_GLOBAL__N_19alEffectfEN3gsl8not_nullIPN2al7ContextEEEjifE3$_0EEJRNS0_6__baseILNS0_6_TraitE0EJ17NullEffectHandler19ReverbEffectHandler22StdReverbEffectHandler20AutowahEffectHandler19ChorusEffectHandler23CompressorEffectHandler23DistortionEffectHandler17EchoEffectHandler22EqualizerEffectHandler20FlangerEffectHandler21FshifterEffectHandler22ModulatorEffectHandler21PshifterEffectHandler21VmorpherEffectHandler28DedicatedDialogEffectHandler25DedicatedLfeEffectHandler24ConvolutionEffectHandlerEEEEEEDcT_DpT0_', symObjAddr: 0x2C94, symBinAddr: 0x1477C, symSize: 0x34 }
  - { offset: 0x13BDF9, size: 0x8, addend: 0x0, symName: '__ZNSt3__116__variant_detail12__visitation6__base12__dispatcherIJLm8EEE10__dispatchB8fe200100IONS1_9__variant15__value_visitorIZN12_GLOBAL__N_19alEffectfEN3gsl8not_nullIPN2al7ContextEEEjifE3$_0EEJRNS0_6__baseILNS0_6_TraitE0EJ17NullEffectHandler19ReverbEffectHandler22StdReverbEffectHandler20AutowahEffectHandler19ChorusEffectHandler23CompressorEffectHandler23DistortionEffectHandler17EchoEffectHandler22EqualizerEffectHandler20FlangerEffectHandler21FshifterEffectHandler22ModulatorEffectHandler21PshifterEffectHandler21VmorpherEffectHandler28DedicatedDialogEffectHandler25DedicatedLfeEffectHandler24ConvolutionEffectHandlerEEEEEEDcT_DpT0_', symObjAddr: 0x2C94, symBinAddr: 0x1477C, symSize: 0x34 }
  - { offset: 0x13BF6A, size: 0x8, addend: 0x0, symName: '__ZNSt3__116__variant_detail12__visitation6__base12__dispatcherIJLm9EEE10__dispatchB8fe200100IONS1_9__variant15__value_visitorIZN12_GLOBAL__N_19alEffectfEN3gsl8not_nullIPN2al7ContextEEEjifE3$_0EEJRNS0_6__baseILNS0_6_TraitE0EJ17NullEffectHandler19ReverbEffectHandler22StdReverbEffectHandler20AutowahEffectHandler19ChorusEffectHandler23CompressorEffectHandler23DistortionEffectHandler17EchoEffectHandler22EqualizerEffectHandler20FlangerEffectHandler21FshifterEffectHandler22ModulatorEffectHandler21PshifterEffectHandler21VmorpherEffectHandler28DedicatedDialogEffectHandler25DedicatedLfeEffectHandler24ConvolutionEffectHandlerEEEEEEDcT_DpT0_', symObjAddr: 0x2CC8, symBinAddr: 0x147B0, symSize: 0x34 }
  - { offset: 0x13BFE7, size: 0x8, addend: 0x0, symName: '__ZNSt3__116__variant_detail12__visitation6__base12__dispatcherIJLm9EEE10__dispatchB8fe200100IONS1_9__variant15__value_visitorIZN12_GLOBAL__N_19alEffectfEN3gsl8not_nullIPN2al7ContextEEEjifE3$_0EEJRNS0_6__baseILNS0_6_TraitE0EJ17NullEffectHandler19ReverbEffectHandler22StdReverbEffectHandler20AutowahEffectHandler19ChorusEffectHandler23CompressorEffectHandler23DistortionEffectHandler17EchoEffectHandler22EqualizerEffectHandler20FlangerEffectHandler21FshifterEffectHandler22ModulatorEffectHandler21PshifterEffectHandler21VmorpherEffectHandler28DedicatedDialogEffectHandler25DedicatedLfeEffectHandler24ConvolutionEffectHandlerEEEEEEDcT_DpT0_', symObjAddr: 0x2CC8, symBinAddr: 0x147B0, symSize: 0x34 }
  - { offset: 0x13C01B, size: 0x8, addend: 0x0, symName: '__ZNSt3__116__variant_detail12__visitation6__base12__dispatcherIJLm9EEE10__dispatchB8fe200100IONS1_9__variant15__value_visitorIZN12_GLOBAL__N_19alEffectfEN3gsl8not_nullIPN2al7ContextEEEjifE3$_0EEJRNS0_6__baseILNS0_6_TraitE0EJ17NullEffectHandler19ReverbEffectHandler22StdReverbEffectHandler20AutowahEffectHandler19ChorusEffectHandler23CompressorEffectHandler23DistortionEffectHandler17EchoEffectHandler22EqualizerEffectHandler20FlangerEffectHandler21FshifterEffectHandler22ModulatorEffectHandler21PshifterEffectHandler21VmorpherEffectHandler28DedicatedDialogEffectHandler25DedicatedLfeEffectHandler24ConvolutionEffectHandlerEEEEEEDcT_DpT0_', symObjAddr: 0x2CC8, symBinAddr: 0x147B0, symSize: 0x34 }
  - { offset: 0x13C039, size: 0x8, addend: 0x0, symName: '__ZNSt3__116__variant_detail12__visitation6__base12__dispatcherIJLm9EEE10__dispatchB8fe200100IONS1_9__variant15__value_visitorIZN12_GLOBAL__N_19alEffectfEN3gsl8not_nullIPN2al7ContextEEEjifE3$_0EEJRNS0_6__baseILNS0_6_TraitE0EJ17NullEffectHandler19ReverbEffectHandler22StdReverbEffectHandler20AutowahEffectHandler19ChorusEffectHandler23CompressorEffectHandler23DistortionEffectHandler17EchoEffectHandler22EqualizerEffectHandler20FlangerEffectHandler21FshifterEffectHandler22ModulatorEffectHandler21PshifterEffectHandler21VmorpherEffectHandler28DedicatedDialogEffectHandler25DedicatedLfeEffectHandler24ConvolutionEffectHandlerEEEEEEDcT_DpT0_', symObjAddr: 0x2CC8, symBinAddr: 0x147B0, symSize: 0x34 }
  - { offset: 0x13C1AA, size: 0x8, addend: 0x0, symName: '__ZNSt3__116__variant_detail12__visitation6__base12__dispatcherIJLm10EEE10__dispatchB8fe200100IONS1_9__variant15__value_visitorIZN12_GLOBAL__N_19alEffectfEN3gsl8not_nullIPN2al7ContextEEEjifE3$_0EEJRNS0_6__baseILNS0_6_TraitE0EJ17NullEffectHandler19ReverbEffectHandler22StdReverbEffectHandler20AutowahEffectHandler19ChorusEffectHandler23CompressorEffectHandler23DistortionEffectHandler17EchoEffectHandler22EqualizerEffectHandler20FlangerEffectHandler21FshifterEffectHandler22ModulatorEffectHandler21PshifterEffectHandler21VmorpherEffectHandler28DedicatedDialogEffectHandler25DedicatedLfeEffectHandler24ConvolutionEffectHandlerEEEEEEDcT_DpT0_', symObjAddr: 0x2CFC, symBinAddr: 0x147E4, symSize: 0x34 }
  - { offset: 0x13C227, size: 0x8, addend: 0x0, symName: '__ZNSt3__116__variant_detail12__visitation6__base12__dispatcherIJLm10EEE10__dispatchB8fe200100IONS1_9__variant15__value_visitorIZN12_GLOBAL__N_19alEffectfEN3gsl8not_nullIPN2al7ContextEEEjifE3$_0EEJRNS0_6__baseILNS0_6_TraitE0EJ17NullEffectHandler19ReverbEffectHandler22StdReverbEffectHandler20AutowahEffectHandler19ChorusEffectHandler23CompressorEffectHandler23DistortionEffectHandler17EchoEffectHandler22EqualizerEffectHandler20FlangerEffectHandler21FshifterEffectHandler22ModulatorEffectHandler21PshifterEffectHandler21VmorpherEffectHandler28DedicatedDialogEffectHandler25DedicatedLfeEffectHandler24ConvolutionEffectHandlerEEEEEEDcT_DpT0_', symObjAddr: 0x2CFC, symBinAddr: 0x147E4, symSize: 0x34 }
  - { offset: 0x13C25B, size: 0x8, addend: 0x0, symName: '__ZNSt3__116__variant_detail12__visitation6__base12__dispatcherIJLm10EEE10__dispatchB8fe200100IONS1_9__variant15__value_visitorIZN12_GLOBAL__N_19alEffectfEN3gsl8not_nullIPN2al7ContextEEEjifE3$_0EEJRNS0_6__baseILNS0_6_TraitE0EJ17NullEffectHandler19ReverbEffectHandler22StdReverbEffectHandler20AutowahEffectHandler19ChorusEffectHandler23CompressorEffectHandler23DistortionEffectHandler17EchoEffectHandler22EqualizerEffectHandler20FlangerEffectHandler21FshifterEffectHandler22ModulatorEffectHandler21PshifterEffectHandler21VmorpherEffectHandler28DedicatedDialogEffectHandler25DedicatedLfeEffectHandler24ConvolutionEffectHandlerEEEEEEDcT_DpT0_', symObjAddr: 0x2CFC, symBinAddr: 0x147E4, symSize: 0x34 }
  - { offset: 0x13C279, size: 0x8, addend: 0x0, symName: '__ZNSt3__116__variant_detail12__visitation6__base12__dispatcherIJLm10EEE10__dispatchB8fe200100IONS1_9__variant15__value_visitorIZN12_GLOBAL__N_19alEffectfEN3gsl8not_nullIPN2al7ContextEEEjifE3$_0EEJRNS0_6__baseILNS0_6_TraitE0EJ17NullEffectHandler19ReverbEffectHandler22StdReverbEffectHandler20AutowahEffectHandler19ChorusEffectHandler23CompressorEffectHandler23DistortionEffectHandler17EchoEffectHandler22EqualizerEffectHandler20FlangerEffectHandler21FshifterEffectHandler22ModulatorEffectHandler21PshifterEffectHandler21VmorpherEffectHandler28DedicatedDialogEffectHandler25DedicatedLfeEffectHandler24ConvolutionEffectHandlerEEEEEEDcT_DpT0_', symObjAddr: 0x2CFC, symBinAddr: 0x147E4, symSize: 0x34 }
  - { offset: 0x13C3EA, size: 0x8, addend: 0x0, symName: '__ZNSt3__116__variant_detail12__visitation6__base12__dispatcherIJLm11EEE10__dispatchB8fe200100IONS1_9__variant15__value_visitorIZN12_GLOBAL__N_19alEffectfEN3gsl8not_nullIPN2al7ContextEEEjifE3$_0EEJRNS0_6__baseILNS0_6_TraitE0EJ17NullEffectHandler19ReverbEffectHandler22StdReverbEffectHandler20AutowahEffectHandler19ChorusEffectHandler23CompressorEffectHandler23DistortionEffectHandler17EchoEffectHandler22EqualizerEffectHandler20FlangerEffectHandler21FshifterEffectHandler22ModulatorEffectHandler21PshifterEffectHandler21VmorpherEffectHandler28DedicatedDialogEffectHandler25DedicatedLfeEffectHandler24ConvolutionEffectHandlerEEEEEEDcT_DpT0_', symObjAddr: 0x2D30, symBinAddr: 0x14818, symSize: 0x34 }
  - { offset: 0x13C467, size: 0x8, addend: 0x0, symName: '__ZNSt3__116__variant_detail12__visitation6__base12__dispatcherIJLm11EEE10__dispatchB8fe200100IONS1_9__variant15__value_visitorIZN12_GLOBAL__N_19alEffectfEN3gsl8not_nullIPN2al7ContextEEEjifE3$_0EEJRNS0_6__baseILNS0_6_TraitE0EJ17NullEffectHandler19ReverbEffectHandler22StdReverbEffectHandler20AutowahEffectHandler19ChorusEffectHandler23CompressorEffectHandler23DistortionEffectHandler17EchoEffectHandler22EqualizerEffectHandler20FlangerEffectHandler21FshifterEffectHandler22ModulatorEffectHandler21PshifterEffectHandler21VmorpherEffectHandler28DedicatedDialogEffectHandler25DedicatedLfeEffectHandler24ConvolutionEffectHandlerEEEEEEDcT_DpT0_', symObjAddr: 0x2D30, symBinAddr: 0x14818, symSize: 0x34 }
  - { offset: 0x13C49B, size: 0x8, addend: 0x0, symName: '__ZNSt3__116__variant_detail12__visitation6__base12__dispatcherIJLm11EEE10__dispatchB8fe200100IONS1_9__variant15__value_visitorIZN12_GLOBAL__N_19alEffectfEN3gsl8not_nullIPN2al7ContextEEEjifE3$_0EEJRNS0_6__baseILNS0_6_TraitE0EJ17NullEffectHandler19ReverbEffectHandler22StdReverbEffectHandler20AutowahEffectHandler19ChorusEffectHandler23CompressorEffectHandler23DistortionEffectHandler17EchoEffectHandler22EqualizerEffectHandler20FlangerEffectHandler21FshifterEffectHandler22ModulatorEffectHandler21PshifterEffectHandler21VmorpherEffectHandler28DedicatedDialogEffectHandler25DedicatedLfeEffectHandler24ConvolutionEffectHandlerEEEEEEDcT_DpT0_', symObjAddr: 0x2D30, symBinAddr: 0x14818, symSize: 0x34 }
  - { offset: 0x13C4B9, size: 0x8, addend: 0x0, symName: '__ZNSt3__116__variant_detail12__visitation6__base12__dispatcherIJLm11EEE10__dispatchB8fe200100IONS1_9__variant15__value_visitorIZN12_GLOBAL__N_19alEffectfEN3gsl8not_nullIPN2al7ContextEEEjifE3$_0EEJRNS0_6__baseILNS0_6_TraitE0EJ17NullEffectHandler19ReverbEffectHandler22StdReverbEffectHandler20AutowahEffectHandler19ChorusEffectHandler23CompressorEffectHandler23DistortionEffectHandler17EchoEffectHandler22EqualizerEffectHandler20FlangerEffectHandler21FshifterEffectHandler22ModulatorEffectHandler21PshifterEffectHandler21VmorpherEffectHandler28DedicatedDialogEffectHandler25DedicatedLfeEffectHandler24ConvolutionEffectHandlerEEEEEEDcT_DpT0_', symObjAddr: 0x2D30, symBinAddr: 0x14818, symSize: 0x34 }
  - { offset: 0x13C62A, size: 0x8, addend: 0x0, symName: '__ZNSt3__116__variant_detail12__visitation6__base12__dispatcherIJLm12EEE10__dispatchB8fe200100IONS1_9__variant15__value_visitorIZN12_GLOBAL__N_19alEffectfEN3gsl8not_nullIPN2al7ContextEEEjifE3$_0EEJRNS0_6__baseILNS0_6_TraitE0EJ17NullEffectHandler19ReverbEffectHandler22StdReverbEffectHandler20AutowahEffectHandler19ChorusEffectHandler23CompressorEffectHandler23DistortionEffectHandler17EchoEffectHandler22EqualizerEffectHandler20FlangerEffectHandler21FshifterEffectHandler22ModulatorEffectHandler21PshifterEffectHandler21VmorpherEffectHandler28DedicatedDialogEffectHandler25DedicatedLfeEffectHandler24ConvolutionEffectHandlerEEEEEEDcT_DpT0_', symObjAddr: 0x2D64, symBinAddr: 0x1484C, symSize: 0x34 }
  - { offset: 0x13C6A7, size: 0x8, addend: 0x0, symName: '__ZNSt3__116__variant_detail12__visitation6__base12__dispatcherIJLm12EEE10__dispatchB8fe200100IONS1_9__variant15__value_visitorIZN12_GLOBAL__N_19alEffectfEN3gsl8not_nullIPN2al7ContextEEEjifE3$_0EEJRNS0_6__baseILNS0_6_TraitE0EJ17NullEffectHandler19ReverbEffectHandler22StdReverbEffectHandler20AutowahEffectHandler19ChorusEffectHandler23CompressorEffectHandler23DistortionEffectHandler17EchoEffectHandler22EqualizerEffectHandler20FlangerEffectHandler21FshifterEffectHandler22ModulatorEffectHandler21PshifterEffectHandler21VmorpherEffectHandler28DedicatedDialogEffectHandler25DedicatedLfeEffectHandler24ConvolutionEffectHandlerEEEEEEDcT_DpT0_', symObjAddr: 0x2D64, symBinAddr: 0x1484C, symSize: 0x34 }
  - { offset: 0x13C6DB, size: 0x8, addend: 0x0, symName: '__ZNSt3__116__variant_detail12__visitation6__base12__dispatcherIJLm12EEE10__dispatchB8fe200100IONS1_9__variant15__value_visitorIZN12_GLOBAL__N_19alEffectfEN3gsl8not_nullIPN2al7ContextEEEjifE3$_0EEJRNS0_6__baseILNS0_6_TraitE0EJ17NullEffectHandler19ReverbEffectHandler22StdReverbEffectHandler20AutowahEffectHandler19ChorusEffectHandler23CompressorEffectHandler23DistortionEffectHandler17EchoEffectHandler22EqualizerEffectHandler20FlangerEffectHandler21FshifterEffectHandler22ModulatorEffectHandler21PshifterEffectHandler21VmorpherEffectHandler28DedicatedDialogEffectHandler25DedicatedLfeEffectHandler24ConvolutionEffectHandlerEEEEEEDcT_DpT0_', symObjAddr: 0x2D64, symBinAddr: 0x1484C, symSize: 0x34 }
  - { offset: 0x13C6F9, size: 0x8, addend: 0x0, symName: '__ZNSt3__116__variant_detail12__visitation6__base12__dispatcherIJLm12EEE10__dispatchB8fe200100IONS1_9__variant15__value_visitorIZN12_GLOBAL__N_19alEffectfEN3gsl8not_nullIPN2al7ContextEEEjifE3$_0EEJRNS0_6__baseILNS0_6_TraitE0EJ17NullEffectHandler19ReverbEffectHandler22StdReverbEffectHandler20AutowahEffectHandler19ChorusEffectHandler23CompressorEffectHandler23DistortionEffectHandler17EchoEffectHandler22EqualizerEffectHandler20FlangerEffectHandler21FshifterEffectHandler22ModulatorEffectHandler21PshifterEffectHandler21VmorpherEffectHandler28DedicatedDialogEffectHandler25DedicatedLfeEffectHandler24ConvolutionEffectHandlerEEEEEEDcT_DpT0_', symObjAddr: 0x2D64, symBinAddr: 0x1484C, symSize: 0x34 }
  - { offset: 0x13C86A, size: 0x8, addend: 0x0, symName: '__ZNSt3__116__variant_detail12__visitation6__base12__dispatcherIJLm13EEE10__dispatchB8fe200100IONS1_9__variant15__value_visitorIZN12_GLOBAL__N_19alEffectfEN3gsl8not_nullIPN2al7ContextEEEjifE3$_0EEJRNS0_6__baseILNS0_6_TraitE0EJ17NullEffectHandler19ReverbEffectHandler22StdReverbEffectHandler20AutowahEffectHandler19ChorusEffectHandler23CompressorEffectHandler23DistortionEffectHandler17EchoEffectHandler22EqualizerEffectHandler20FlangerEffectHandler21FshifterEffectHandler22ModulatorEffectHandler21PshifterEffectHandler21VmorpherEffectHandler28DedicatedDialogEffectHandler25DedicatedLfeEffectHandler24ConvolutionEffectHandlerEEEEEEDcT_DpT0_', symObjAddr: 0x2D98, symBinAddr: 0x14880, symSize: 0x34 }
  - { offset: 0x13C8E7, size: 0x8, addend: 0x0, symName: '__ZNSt3__116__variant_detail12__visitation6__base12__dispatcherIJLm13EEE10__dispatchB8fe200100IONS1_9__variant15__value_visitorIZN12_GLOBAL__N_19alEffectfEN3gsl8not_nullIPN2al7ContextEEEjifE3$_0EEJRNS0_6__baseILNS0_6_TraitE0EJ17NullEffectHandler19ReverbEffectHandler22StdReverbEffectHandler20AutowahEffectHandler19ChorusEffectHandler23CompressorEffectHandler23DistortionEffectHandler17EchoEffectHandler22EqualizerEffectHandler20FlangerEffectHandler21FshifterEffectHandler22ModulatorEffectHandler21PshifterEffectHandler21VmorpherEffectHandler28DedicatedDialogEffectHandler25DedicatedLfeEffectHandler24ConvolutionEffectHandlerEEEEEEDcT_DpT0_', symObjAddr: 0x2D98, symBinAddr: 0x14880, symSize: 0x34 }
  - { offset: 0x13C91B, size: 0x8, addend: 0x0, symName: '__ZNSt3__116__variant_detail12__visitation6__base12__dispatcherIJLm13EEE10__dispatchB8fe200100IONS1_9__variant15__value_visitorIZN12_GLOBAL__N_19alEffectfEN3gsl8not_nullIPN2al7ContextEEEjifE3$_0EEJRNS0_6__baseILNS0_6_TraitE0EJ17NullEffectHandler19ReverbEffectHandler22StdReverbEffectHandler20AutowahEffectHandler19ChorusEffectHandler23CompressorEffectHandler23DistortionEffectHandler17EchoEffectHandler22EqualizerEffectHandler20FlangerEffectHandler21FshifterEffectHandler22ModulatorEffectHandler21PshifterEffectHandler21VmorpherEffectHandler28DedicatedDialogEffectHandler25DedicatedLfeEffectHandler24ConvolutionEffectHandlerEEEEEEDcT_DpT0_', symObjAddr: 0x2D98, symBinAddr: 0x14880, symSize: 0x34 }
  - { offset: 0x13C939, size: 0x8, addend: 0x0, symName: '__ZNSt3__116__variant_detail12__visitation6__base12__dispatcherIJLm13EEE10__dispatchB8fe200100IONS1_9__variant15__value_visitorIZN12_GLOBAL__N_19alEffectfEN3gsl8not_nullIPN2al7ContextEEEjifE3$_0EEJRNS0_6__baseILNS0_6_TraitE0EJ17NullEffectHandler19ReverbEffectHandler22StdReverbEffectHandler20AutowahEffectHandler19ChorusEffectHandler23CompressorEffectHandler23DistortionEffectHandler17EchoEffectHandler22EqualizerEffectHandler20FlangerEffectHandler21FshifterEffectHandler22ModulatorEffectHandler21PshifterEffectHandler21VmorpherEffectHandler28DedicatedDialogEffectHandler25DedicatedLfeEffectHandler24ConvolutionEffectHandlerEEEEEEDcT_DpT0_', symObjAddr: 0x2D98, symBinAddr: 0x14880, symSize: 0x34 }
  - { offset: 0x13CAAA, size: 0x8, addend: 0x0, symName: '__ZNSt3__116__variant_detail12__visitation6__base12__dispatcherIJLm14EEE10__dispatchB8fe200100IONS1_9__variant15__value_visitorIZN12_GLOBAL__N_19alEffectfEN3gsl8not_nullIPN2al7ContextEEEjifE3$_0EEJRNS0_6__baseILNS0_6_TraitE0EJ17NullEffectHandler19ReverbEffectHandler22StdReverbEffectHandler20AutowahEffectHandler19ChorusEffectHandler23CompressorEffectHandler23DistortionEffectHandler17EchoEffectHandler22EqualizerEffectHandler20FlangerEffectHandler21FshifterEffectHandler22ModulatorEffectHandler21PshifterEffectHandler21VmorpherEffectHandler28DedicatedDialogEffectHandler25DedicatedLfeEffectHandler24ConvolutionEffectHandlerEEEEEEDcT_DpT0_', symObjAddr: 0x2DCC, symBinAddr: 0x148B4, symSize: 0x34 }
  - { offset: 0x13CB27, size: 0x8, addend: 0x0, symName: '__ZNSt3__116__variant_detail12__visitation6__base12__dispatcherIJLm14EEE10__dispatchB8fe200100IONS1_9__variant15__value_visitorIZN12_GLOBAL__N_19alEffectfEN3gsl8not_nullIPN2al7ContextEEEjifE3$_0EEJRNS0_6__baseILNS0_6_TraitE0EJ17NullEffectHandler19ReverbEffectHandler22StdReverbEffectHandler20AutowahEffectHandler19ChorusEffectHandler23CompressorEffectHandler23DistortionEffectHandler17EchoEffectHandler22EqualizerEffectHandler20FlangerEffectHandler21FshifterEffectHandler22ModulatorEffectHandler21PshifterEffectHandler21VmorpherEffectHandler28DedicatedDialogEffectHandler25DedicatedLfeEffectHandler24ConvolutionEffectHandlerEEEEEEDcT_DpT0_', symObjAddr: 0x2DCC, symBinAddr: 0x148B4, symSize: 0x34 }
  - { offset: 0x13CB5B, size: 0x8, addend: 0x0, symName: '__ZNSt3__116__variant_detail12__visitation6__base12__dispatcherIJLm14EEE10__dispatchB8fe200100IONS1_9__variant15__value_visitorIZN12_GLOBAL__N_19alEffectfEN3gsl8not_nullIPN2al7ContextEEEjifE3$_0EEJRNS0_6__baseILNS0_6_TraitE0EJ17NullEffectHandler19ReverbEffectHandler22StdReverbEffectHandler20AutowahEffectHandler19ChorusEffectHandler23CompressorEffectHandler23DistortionEffectHandler17EchoEffectHandler22EqualizerEffectHandler20FlangerEffectHandler21FshifterEffectHandler22ModulatorEffectHandler21PshifterEffectHandler21VmorpherEffectHandler28DedicatedDialogEffectHandler25DedicatedLfeEffectHandler24ConvolutionEffectHandlerEEEEEEDcT_DpT0_', symObjAddr: 0x2DCC, symBinAddr: 0x148B4, symSize: 0x34 }
  - { offset: 0x13CB79, size: 0x8, addend: 0x0, symName: '__ZNSt3__116__variant_detail12__visitation6__base12__dispatcherIJLm14EEE10__dispatchB8fe200100IONS1_9__variant15__value_visitorIZN12_GLOBAL__N_19alEffectfEN3gsl8not_nullIPN2al7ContextEEEjifE3$_0EEJRNS0_6__baseILNS0_6_TraitE0EJ17NullEffectHandler19ReverbEffectHandler22StdReverbEffectHandler20AutowahEffectHandler19ChorusEffectHandler23CompressorEffectHandler23DistortionEffectHandler17EchoEffectHandler22EqualizerEffectHandler20FlangerEffectHandler21FshifterEffectHandler22ModulatorEffectHandler21PshifterEffectHandler21VmorpherEffectHandler28DedicatedDialogEffectHandler25DedicatedLfeEffectHandler24ConvolutionEffectHandlerEEEEEEDcT_DpT0_', symObjAddr: 0x2DCC, symBinAddr: 0x148B4, symSize: 0x34 }
  - { offset: 0x13CCEA, size: 0x8, addend: 0x0, symName: '__ZNSt3__116__variant_detail12__visitation6__base12__dispatcherIJLm15EEE10__dispatchB8fe200100IONS1_9__variant15__value_visitorIZN12_GLOBAL__N_19alEffectfEN3gsl8not_nullIPN2al7ContextEEEjifE3$_0EEJRNS0_6__baseILNS0_6_TraitE0EJ17NullEffectHandler19ReverbEffectHandler22StdReverbEffectHandler20AutowahEffectHandler19ChorusEffectHandler23CompressorEffectHandler23DistortionEffectHandler17EchoEffectHandler22EqualizerEffectHandler20FlangerEffectHandler21FshifterEffectHandler22ModulatorEffectHandler21PshifterEffectHandler21VmorpherEffectHandler28DedicatedDialogEffectHandler25DedicatedLfeEffectHandler24ConvolutionEffectHandlerEEEEEEDcT_DpT0_', symObjAddr: 0x2E00, symBinAddr: 0x148E8, symSize: 0x34 }
  - { offset: 0x13CD67, size: 0x8, addend: 0x0, symName: '__ZNSt3__116__variant_detail12__visitation6__base12__dispatcherIJLm15EEE10__dispatchB8fe200100IONS1_9__variant15__value_visitorIZN12_GLOBAL__N_19alEffectfEN3gsl8not_nullIPN2al7ContextEEEjifE3$_0EEJRNS0_6__baseILNS0_6_TraitE0EJ17NullEffectHandler19ReverbEffectHandler22StdReverbEffectHandler20AutowahEffectHandler19ChorusEffectHandler23CompressorEffectHandler23DistortionEffectHandler17EchoEffectHandler22EqualizerEffectHandler20FlangerEffectHandler21FshifterEffectHandler22ModulatorEffectHandler21PshifterEffectHandler21VmorpherEffectHandler28DedicatedDialogEffectHandler25DedicatedLfeEffectHandler24ConvolutionEffectHandlerEEEEEEDcT_DpT0_', symObjAddr: 0x2E00, symBinAddr: 0x148E8, symSize: 0x34 }
  - { offset: 0x13CD9B, size: 0x8, addend: 0x0, symName: '__ZNSt3__116__variant_detail12__visitation6__base12__dispatcherIJLm15EEE10__dispatchB8fe200100IONS1_9__variant15__value_visitorIZN12_GLOBAL__N_19alEffectfEN3gsl8not_nullIPN2al7ContextEEEjifE3$_0EEJRNS0_6__baseILNS0_6_TraitE0EJ17NullEffectHandler19ReverbEffectHandler22StdReverbEffectHandler20AutowahEffectHandler19ChorusEffectHandler23CompressorEffectHandler23DistortionEffectHandler17EchoEffectHandler22EqualizerEffectHandler20FlangerEffectHandler21FshifterEffectHandler22ModulatorEffectHandler21PshifterEffectHandler21VmorpherEffectHandler28DedicatedDialogEffectHandler25DedicatedLfeEffectHandler24ConvolutionEffectHandlerEEEEEEDcT_DpT0_', symObjAddr: 0x2E00, symBinAddr: 0x148E8, symSize: 0x34 }
  - { offset: 0x13CDB9, size: 0x8, addend: 0x0, symName: '__ZNSt3__116__variant_detail12__visitation6__base12__dispatcherIJLm15EEE10__dispatchB8fe200100IONS1_9__variant15__value_visitorIZN12_GLOBAL__N_19alEffectfEN3gsl8not_nullIPN2al7ContextEEEjifE3$_0EEJRNS0_6__baseILNS0_6_TraitE0EJ17NullEffectHandler19ReverbEffectHandler22StdReverbEffectHandler20AutowahEffectHandler19ChorusEffectHandler23CompressorEffectHandler23DistortionEffectHandler17EchoEffectHandler22EqualizerEffectHandler20FlangerEffectHandler21FshifterEffectHandler22ModulatorEffectHandler21PshifterEffectHandler21VmorpherEffectHandler28DedicatedDialogEffectHandler25DedicatedLfeEffectHandler24ConvolutionEffectHandlerEEEEEEDcT_DpT0_', symObjAddr: 0x2E00, symBinAddr: 0x148E8, symSize: 0x34 }
  - { offset: 0x13CF2A, size: 0x8, addend: 0x0, symName: '__ZNSt3__116__variant_detail12__visitation6__base12__dispatcherIJLm16EEE10__dispatchB8fe200100IONS1_9__variant15__value_visitorIZN12_GLOBAL__N_19alEffectfEN3gsl8not_nullIPN2al7ContextEEEjifE3$_0EEJRNS0_6__baseILNS0_6_TraitE0EJ17NullEffectHandler19ReverbEffectHandler22StdReverbEffectHandler20AutowahEffectHandler19ChorusEffectHandler23CompressorEffectHandler23DistortionEffectHandler17EchoEffectHandler22EqualizerEffectHandler20FlangerEffectHandler21FshifterEffectHandler22ModulatorEffectHandler21PshifterEffectHandler21VmorpherEffectHandler28DedicatedDialogEffectHandler25DedicatedLfeEffectHandler24ConvolutionEffectHandlerEEEEEEDcT_DpT0_', symObjAddr: 0x2E34, symBinAddr: 0x1491C, symSize: 0x34 }
  - { offset: 0x13CFA7, size: 0x8, addend: 0x0, symName: '__ZNSt3__116__variant_detail12__visitation6__base12__dispatcherIJLm16EEE10__dispatchB8fe200100IONS1_9__variant15__value_visitorIZN12_GLOBAL__N_19alEffectfEN3gsl8not_nullIPN2al7ContextEEEjifE3$_0EEJRNS0_6__baseILNS0_6_TraitE0EJ17NullEffectHandler19ReverbEffectHandler22StdReverbEffectHandler20AutowahEffectHandler19ChorusEffectHandler23CompressorEffectHandler23DistortionEffectHandler17EchoEffectHandler22EqualizerEffectHandler20FlangerEffectHandler21FshifterEffectHandler22ModulatorEffectHandler21PshifterEffectHandler21VmorpherEffectHandler28DedicatedDialogEffectHandler25DedicatedLfeEffectHandler24ConvolutionEffectHandlerEEEEEEDcT_DpT0_', symObjAddr: 0x2E34, symBinAddr: 0x1491C, symSize: 0x34 }
  - { offset: 0x13CFDB, size: 0x8, addend: 0x0, symName: '__ZNSt3__116__variant_detail12__visitation6__base12__dispatcherIJLm16EEE10__dispatchB8fe200100IONS1_9__variant15__value_visitorIZN12_GLOBAL__N_19alEffectfEN3gsl8not_nullIPN2al7ContextEEEjifE3$_0EEJRNS0_6__baseILNS0_6_TraitE0EJ17NullEffectHandler19ReverbEffectHandler22StdReverbEffectHandler20AutowahEffectHandler19ChorusEffectHandler23CompressorEffectHandler23DistortionEffectHandler17EchoEffectHandler22EqualizerEffectHandler20FlangerEffectHandler21FshifterEffectHandler22ModulatorEffectHandler21PshifterEffectHandler21VmorpherEffectHandler28DedicatedDialogEffectHandler25DedicatedLfeEffectHandler24ConvolutionEffectHandlerEEEEEEDcT_DpT0_', symObjAddr: 0x2E34, symBinAddr: 0x1491C, symSize: 0x34 }
  - { offset: 0x13CFF9, size: 0x8, addend: 0x0, symName: '__ZNSt3__116__variant_detail12__visitation6__base12__dispatcherIJLm16EEE10__dispatchB8fe200100IONS1_9__variant15__value_visitorIZN12_GLOBAL__N_19alEffectfEN3gsl8not_nullIPN2al7ContextEEEjifE3$_0EEJRNS0_6__baseILNS0_6_TraitE0EJ17NullEffectHandler19ReverbEffectHandler22StdReverbEffectHandler20AutowahEffectHandler19ChorusEffectHandler23CompressorEffectHandler23DistortionEffectHandler17EchoEffectHandler22EqualizerEffectHandler20FlangerEffectHandler21FshifterEffectHandler22ModulatorEffectHandler21PshifterEffectHandler21VmorpherEffectHandler28DedicatedDialogEffectHandler25DedicatedLfeEffectHandler24ConvolutionEffectHandlerEEEEEEDcT_DpT0_', symObjAddr: 0x2E34, symBinAddr: 0x1491C, symSize: 0x34 }
  - { offset: 0x13D16A, size: 0x8, addend: 0x0, symName: '__ZNSt3__116__variant_detail12__visitation6__base12__dispatcherIJLm0EEE10__dispatchB8fe200100IONS1_9__variant15__value_visitorIZN12_GLOBAL__N_110alEffectfvEN3gsl8not_nullIPN2al7ContextEEEjiPKfE3$_0EEJRNS0_6__baseILNS0_6_TraitE0EJ17NullEffectHandler19ReverbEffectHandler22StdReverbEffectHandler20AutowahEffectHandler19ChorusEffectHandler23CompressorEffectHandler23DistortionEffectHandler17EchoEffectHandler22EqualizerEffectHandler20FlangerEffectHandler21FshifterEffectHandler22ModulatorEffectHandler21PshifterEffectHandler21VmorpherEffectHandler28DedicatedDialogEffectHandler25DedicatedLfeEffectHandler24ConvolutionEffectHandlerEEEEEEDcT_DpT0_', symObjAddr: 0x2E68, symBinAddr: 0x14950, symSize: 0x30 }
  - { offset: 0x13D20B, size: 0x8, addend: 0x0, symName: '__ZNSt3__116__variant_detail12__visitation6__base12__dispatcherIJLm0EEE10__dispatchB8fe200100IONS1_9__variant15__value_visitorIZN12_GLOBAL__N_110alEffectfvEN3gsl8not_nullIPN2al7ContextEEEjiPKfE3$_0EEJRNS0_6__baseILNS0_6_TraitE0EJ17NullEffectHandler19ReverbEffectHandler22StdReverbEffectHandler20AutowahEffectHandler19ChorusEffectHandler23CompressorEffectHandler23DistortionEffectHandler17EchoEffectHandler22EqualizerEffectHandler20FlangerEffectHandler21FshifterEffectHandler22ModulatorEffectHandler21PshifterEffectHandler21VmorpherEffectHandler28DedicatedDialogEffectHandler25DedicatedLfeEffectHandler24ConvolutionEffectHandlerEEEEEEDcT_DpT0_', symObjAddr: 0x2E68, symBinAddr: 0x14950, symSize: 0x30 }
  - { offset: 0x13D23F, size: 0x8, addend: 0x0, symName: '__ZNSt3__116__variant_detail12__visitation6__base12__dispatcherIJLm0EEE10__dispatchB8fe200100IONS1_9__variant15__value_visitorIZN12_GLOBAL__N_110alEffectfvEN3gsl8not_nullIPN2al7ContextEEEjiPKfE3$_0EEJRNS0_6__baseILNS0_6_TraitE0EJ17NullEffectHandler19ReverbEffectHandler22StdReverbEffectHandler20AutowahEffectHandler19ChorusEffectHandler23CompressorEffectHandler23DistortionEffectHandler17EchoEffectHandler22EqualizerEffectHandler20FlangerEffectHandler21FshifterEffectHandler22ModulatorEffectHandler21PshifterEffectHandler21VmorpherEffectHandler28DedicatedDialogEffectHandler25DedicatedLfeEffectHandler24ConvolutionEffectHandlerEEEEEEDcT_DpT0_', symObjAddr: 0x2E68, symBinAddr: 0x14950, symSize: 0x30 }
  - { offset: 0x13D25D, size: 0x8, addend: 0x0, symName: '__ZNSt3__116__variant_detail12__visitation6__base12__dispatcherIJLm0EEE10__dispatchB8fe200100IONS1_9__variant15__value_visitorIZN12_GLOBAL__N_110alEffectfvEN3gsl8not_nullIPN2al7ContextEEEjiPKfE3$_0EEJRNS0_6__baseILNS0_6_TraitE0EJ17NullEffectHandler19ReverbEffectHandler22StdReverbEffectHandler20AutowahEffectHandler19ChorusEffectHandler23CompressorEffectHandler23DistortionEffectHandler17EchoEffectHandler22EqualizerEffectHandler20FlangerEffectHandler21FshifterEffectHandler22ModulatorEffectHandler21PshifterEffectHandler21VmorpherEffectHandler28DedicatedDialogEffectHandler25DedicatedLfeEffectHandler24ConvolutionEffectHandlerEEEEEEDcT_DpT0_', symObjAddr: 0x2E68, symBinAddr: 0x14950, symSize: 0x30 }
  - { offset: 0x13D3CE, size: 0x8, addend: 0x0, symName: '__ZNSt3__116__variant_detail12__visitation6__base12__dispatcherIJLm1EEE10__dispatchB8fe200100IONS1_9__variant15__value_visitorIZN12_GLOBAL__N_110alEffectfvEN3gsl8not_nullIPN2al7ContextEEEjiPKfE3$_0EEJRNS0_6__baseILNS0_6_TraitE0EJ17NullEffectHandler19ReverbEffectHandler22StdReverbEffectHandler20AutowahEffectHandler19ChorusEffectHandler23CompressorEffectHandler23DistortionEffectHandler17EchoEffectHandler22EqualizerEffectHandler20FlangerEffectHandler21FshifterEffectHandler22ModulatorEffectHandler21PshifterEffectHandler21VmorpherEffectHandler28DedicatedDialogEffectHandler25DedicatedLfeEffectHandler24ConvolutionEffectHandlerEEEEEEDcT_DpT0_', symObjAddr: 0x2E98, symBinAddr: 0x14980, symSize: 0x34 }
  - { offset: 0x13D44B, size: 0x8, addend: 0x0, symName: '__ZNSt3__116__variant_detail12__visitation6__base12__dispatcherIJLm1EEE10__dispatchB8fe200100IONS1_9__variant15__value_visitorIZN12_GLOBAL__N_110alEffectfvEN3gsl8not_nullIPN2al7ContextEEEjiPKfE3$_0EEJRNS0_6__baseILNS0_6_TraitE0EJ17NullEffectHandler19ReverbEffectHandler22StdReverbEffectHandler20AutowahEffectHandler19ChorusEffectHandler23CompressorEffectHandler23DistortionEffectHandler17EchoEffectHandler22EqualizerEffectHandler20FlangerEffectHandler21FshifterEffectHandler22ModulatorEffectHandler21PshifterEffectHandler21VmorpherEffectHandler28DedicatedDialogEffectHandler25DedicatedLfeEffectHandler24ConvolutionEffectHandlerEEEEEEDcT_DpT0_', symObjAddr: 0x2E98, symBinAddr: 0x14980, symSize: 0x34 }
  - { offset: 0x13D47F, size: 0x8, addend: 0x0, symName: '__ZNSt3__116__variant_detail12__visitation6__base12__dispatcherIJLm1EEE10__dispatchB8fe200100IONS1_9__variant15__value_visitorIZN12_GLOBAL__N_110alEffectfvEN3gsl8not_nullIPN2al7ContextEEEjiPKfE3$_0EEJRNS0_6__baseILNS0_6_TraitE0EJ17NullEffectHandler19ReverbEffectHandler22StdReverbEffectHandler20AutowahEffectHandler19ChorusEffectHandler23CompressorEffectHandler23DistortionEffectHandler17EchoEffectHandler22EqualizerEffectHandler20FlangerEffectHandler21FshifterEffectHandler22ModulatorEffectHandler21PshifterEffectHandler21VmorpherEffectHandler28DedicatedDialogEffectHandler25DedicatedLfeEffectHandler24ConvolutionEffectHandlerEEEEEEDcT_DpT0_', symObjAddr: 0x2E98, symBinAddr: 0x14980, symSize: 0x34 }
  - { offset: 0x13D49D, size: 0x8, addend: 0x0, symName: '__ZNSt3__116__variant_detail12__visitation6__base12__dispatcherIJLm1EEE10__dispatchB8fe200100IONS1_9__variant15__value_visitorIZN12_GLOBAL__N_110alEffectfvEN3gsl8not_nullIPN2al7ContextEEEjiPKfE3$_0EEJRNS0_6__baseILNS0_6_TraitE0EJ17NullEffectHandler19ReverbEffectHandler22StdReverbEffectHandler20AutowahEffectHandler19ChorusEffectHandler23CompressorEffectHandler23DistortionEffectHandler17EchoEffectHandler22EqualizerEffectHandler20FlangerEffectHandler21FshifterEffectHandler22ModulatorEffectHandler21PshifterEffectHandler21VmorpherEffectHandler28DedicatedDialogEffectHandler25DedicatedLfeEffectHandler24ConvolutionEffectHandlerEEEEEEDcT_DpT0_', symObjAddr: 0x2E98, symBinAddr: 0x14980, symSize: 0x34 }
  - { offset: 0x13D60E, size: 0x8, addend: 0x0, symName: '__ZNSt3__116__variant_detail12__visitation6__base12__dispatcherIJLm2EEE10__dispatchB8fe200100IONS1_9__variant15__value_visitorIZN12_GLOBAL__N_110alEffectfvEN3gsl8not_nullIPN2al7ContextEEEjiPKfE3$_0EEJRNS0_6__baseILNS0_6_TraitE0EJ17NullEffectHandler19ReverbEffectHandler22StdReverbEffectHandler20AutowahEffectHandler19ChorusEffectHandler23CompressorEffectHandler23DistortionEffectHandler17EchoEffectHandler22EqualizerEffectHandler20FlangerEffectHandler21FshifterEffectHandler22ModulatorEffectHandler21PshifterEffectHandler21VmorpherEffectHandler28DedicatedDialogEffectHandler25DedicatedLfeEffectHandler24ConvolutionEffectHandlerEEEEEEDcT_DpT0_', symObjAddr: 0x2ECC, symBinAddr: 0x149B4, symSize: 0x34 }
  - { offset: 0x13D68B, size: 0x8, addend: 0x0, symName: '__ZNSt3__116__variant_detail12__visitation6__base12__dispatcherIJLm2EEE10__dispatchB8fe200100IONS1_9__variant15__value_visitorIZN12_GLOBAL__N_110alEffectfvEN3gsl8not_nullIPN2al7ContextEEEjiPKfE3$_0EEJRNS0_6__baseILNS0_6_TraitE0EJ17NullEffectHandler19ReverbEffectHandler22StdReverbEffectHandler20AutowahEffectHandler19ChorusEffectHandler23CompressorEffectHandler23DistortionEffectHandler17EchoEffectHandler22EqualizerEffectHandler20FlangerEffectHandler21FshifterEffectHandler22ModulatorEffectHandler21PshifterEffectHandler21VmorpherEffectHandler28DedicatedDialogEffectHandler25DedicatedLfeEffectHandler24ConvolutionEffectHandlerEEEEEEDcT_DpT0_', symObjAddr: 0x2ECC, symBinAddr: 0x149B4, symSize: 0x34 }
  - { offset: 0x13D6BF, size: 0x8, addend: 0x0, symName: '__ZNSt3__116__variant_detail12__visitation6__base12__dispatcherIJLm2EEE10__dispatchB8fe200100IONS1_9__variant15__value_visitorIZN12_GLOBAL__N_110alEffectfvEN3gsl8not_nullIPN2al7ContextEEEjiPKfE3$_0EEJRNS0_6__baseILNS0_6_TraitE0EJ17NullEffectHandler19ReverbEffectHandler22StdReverbEffectHandler20AutowahEffectHandler19ChorusEffectHandler23CompressorEffectHandler23DistortionEffectHandler17EchoEffectHandler22EqualizerEffectHandler20FlangerEffectHandler21FshifterEffectHandler22ModulatorEffectHandler21PshifterEffectHandler21VmorpherEffectHandler28DedicatedDialogEffectHandler25DedicatedLfeEffectHandler24ConvolutionEffectHandlerEEEEEEDcT_DpT0_', symObjAddr: 0x2ECC, symBinAddr: 0x149B4, symSize: 0x34 }
  - { offset: 0x13D6DD, size: 0x8, addend: 0x0, symName: '__ZNSt3__116__variant_detail12__visitation6__base12__dispatcherIJLm2EEE10__dispatchB8fe200100IONS1_9__variant15__value_visitorIZN12_GLOBAL__N_110alEffectfvEN3gsl8not_nullIPN2al7ContextEEEjiPKfE3$_0EEJRNS0_6__baseILNS0_6_TraitE0EJ17NullEffectHandler19ReverbEffectHandler22StdReverbEffectHandler20AutowahEffectHandler19ChorusEffectHandler23CompressorEffectHandler23DistortionEffectHandler17EchoEffectHandler22EqualizerEffectHandler20FlangerEffectHandler21FshifterEffectHandler22ModulatorEffectHandler21PshifterEffectHandler21VmorpherEffectHandler28DedicatedDialogEffectHandler25DedicatedLfeEffectHandler24ConvolutionEffectHandlerEEEEEEDcT_DpT0_', symObjAddr: 0x2ECC, symBinAddr: 0x149B4, symSize: 0x34 }
  - { offset: 0x13D84E, size: 0x8, addend: 0x0, symName: '__ZNSt3__116__variant_detail12__visitation6__base12__dispatcherIJLm3EEE10__dispatchB8fe200100IONS1_9__variant15__value_visitorIZN12_GLOBAL__N_110alEffectfvEN3gsl8not_nullIPN2al7ContextEEEjiPKfE3$_0EEJRNS0_6__baseILNS0_6_TraitE0EJ17NullEffectHandler19ReverbEffectHandler22StdReverbEffectHandler20AutowahEffectHandler19ChorusEffectHandler23CompressorEffectHandler23DistortionEffectHandler17EchoEffectHandler22EqualizerEffectHandler20FlangerEffectHandler21FshifterEffectHandler22ModulatorEffectHandler21PshifterEffectHandler21VmorpherEffectHandler28DedicatedDialogEffectHandler25DedicatedLfeEffectHandler24ConvolutionEffectHandlerEEEEEEDcT_DpT0_', symObjAddr: 0x2F00, symBinAddr: 0x149E8, symSize: 0x34 }
  - { offset: 0x13D8CB, size: 0x8, addend: 0x0, symName: '__ZNSt3__116__variant_detail12__visitation6__base12__dispatcherIJLm3EEE10__dispatchB8fe200100IONS1_9__variant15__value_visitorIZN12_GLOBAL__N_110alEffectfvEN3gsl8not_nullIPN2al7ContextEEEjiPKfE3$_0EEJRNS0_6__baseILNS0_6_TraitE0EJ17NullEffectHandler19ReverbEffectHandler22StdReverbEffectHandler20AutowahEffectHandler19ChorusEffectHandler23CompressorEffectHandler23DistortionEffectHandler17EchoEffectHandler22EqualizerEffectHandler20FlangerEffectHandler21FshifterEffectHandler22ModulatorEffectHandler21PshifterEffectHandler21VmorpherEffectHandler28DedicatedDialogEffectHandler25DedicatedLfeEffectHandler24ConvolutionEffectHandlerEEEEEEDcT_DpT0_', symObjAddr: 0x2F00, symBinAddr: 0x149E8, symSize: 0x34 }
  - { offset: 0x13D8FF, size: 0x8, addend: 0x0, symName: '__ZNSt3__116__variant_detail12__visitation6__base12__dispatcherIJLm3EEE10__dispatchB8fe200100IONS1_9__variant15__value_visitorIZN12_GLOBAL__N_110alEffectfvEN3gsl8not_nullIPN2al7ContextEEEjiPKfE3$_0EEJRNS0_6__baseILNS0_6_TraitE0EJ17NullEffectHandler19ReverbEffectHandler22StdReverbEffectHandler20AutowahEffectHandler19ChorusEffectHandler23CompressorEffectHandler23DistortionEffectHandler17EchoEffectHandler22EqualizerEffectHandler20FlangerEffectHandler21FshifterEffectHandler22ModulatorEffectHandler21PshifterEffectHandler21VmorpherEffectHandler28DedicatedDialogEffectHandler25DedicatedLfeEffectHandler24ConvolutionEffectHandlerEEEEEEDcT_DpT0_', symObjAddr: 0x2F00, symBinAddr: 0x149E8, symSize: 0x34 }
  - { offset: 0x13D91D, size: 0x8, addend: 0x0, symName: '__ZNSt3__116__variant_detail12__visitation6__base12__dispatcherIJLm3EEE10__dispatchB8fe200100IONS1_9__variant15__value_visitorIZN12_GLOBAL__N_110alEffectfvEN3gsl8not_nullIPN2al7ContextEEEjiPKfE3$_0EEJRNS0_6__baseILNS0_6_TraitE0EJ17NullEffectHandler19ReverbEffectHandler22StdReverbEffectHandler20AutowahEffectHandler19ChorusEffectHandler23CompressorEffectHandler23DistortionEffectHandler17EchoEffectHandler22EqualizerEffectHandler20FlangerEffectHandler21FshifterEffectHandler22ModulatorEffectHandler21PshifterEffectHandler21VmorpherEffectHandler28DedicatedDialogEffectHandler25DedicatedLfeEffectHandler24ConvolutionEffectHandlerEEEEEEDcT_DpT0_', symObjAddr: 0x2F00, symBinAddr: 0x149E8, symSize: 0x34 }
  - { offset: 0x13DA8E, size: 0x8, addend: 0x0, symName: '__ZNSt3__116__variant_detail12__visitation6__base12__dispatcherIJLm4EEE10__dispatchB8fe200100IONS1_9__variant15__value_visitorIZN12_GLOBAL__N_110alEffectfvEN3gsl8not_nullIPN2al7ContextEEEjiPKfE3$_0EEJRNS0_6__baseILNS0_6_TraitE0EJ17NullEffectHandler19ReverbEffectHandler22StdReverbEffectHandler20AutowahEffectHandler19ChorusEffectHandler23CompressorEffectHandler23DistortionEffectHandler17EchoEffectHandler22EqualizerEffectHandler20FlangerEffectHandler21FshifterEffectHandler22ModulatorEffectHandler21PshifterEffectHandler21VmorpherEffectHandler28DedicatedDialogEffectHandler25DedicatedLfeEffectHandler24ConvolutionEffectHandlerEEEEEEDcT_DpT0_', symObjAddr: 0x2F34, symBinAddr: 0x14A1C, symSize: 0x34 }
  - { offset: 0x13DB0B, size: 0x8, addend: 0x0, symName: '__ZNSt3__116__variant_detail12__visitation6__base12__dispatcherIJLm4EEE10__dispatchB8fe200100IONS1_9__variant15__value_visitorIZN12_GLOBAL__N_110alEffectfvEN3gsl8not_nullIPN2al7ContextEEEjiPKfE3$_0EEJRNS0_6__baseILNS0_6_TraitE0EJ17NullEffectHandler19ReverbEffectHandler22StdReverbEffectHandler20AutowahEffectHandler19ChorusEffectHandler23CompressorEffectHandler23DistortionEffectHandler17EchoEffectHandler22EqualizerEffectHandler20FlangerEffectHandler21FshifterEffectHandler22ModulatorEffectHandler21PshifterEffectHandler21VmorpherEffectHandler28DedicatedDialogEffectHandler25DedicatedLfeEffectHandler24ConvolutionEffectHandlerEEEEEEDcT_DpT0_', symObjAddr: 0x2F34, symBinAddr: 0x14A1C, symSize: 0x34 }
  - { offset: 0x13DB3F, size: 0x8, addend: 0x0, symName: '__ZNSt3__116__variant_detail12__visitation6__base12__dispatcherIJLm4EEE10__dispatchB8fe200100IONS1_9__variant15__value_visitorIZN12_GLOBAL__N_110alEffectfvEN3gsl8not_nullIPN2al7ContextEEEjiPKfE3$_0EEJRNS0_6__baseILNS0_6_TraitE0EJ17NullEffectHandler19ReverbEffectHandler22StdReverbEffectHandler20AutowahEffectHandler19ChorusEffectHandler23CompressorEffectHandler23DistortionEffectHandler17EchoEffectHandler22EqualizerEffectHandler20FlangerEffectHandler21FshifterEffectHandler22ModulatorEffectHandler21PshifterEffectHandler21VmorpherEffectHandler28DedicatedDialogEffectHandler25DedicatedLfeEffectHandler24ConvolutionEffectHandlerEEEEEEDcT_DpT0_', symObjAddr: 0x2F34, symBinAddr: 0x14A1C, symSize: 0x34 }
  - { offset: 0x13DB5D, size: 0x8, addend: 0x0, symName: '__ZNSt3__116__variant_detail12__visitation6__base12__dispatcherIJLm4EEE10__dispatchB8fe200100IONS1_9__variant15__value_visitorIZN12_GLOBAL__N_110alEffectfvEN3gsl8not_nullIPN2al7ContextEEEjiPKfE3$_0EEJRNS0_6__baseILNS0_6_TraitE0EJ17NullEffectHandler19ReverbEffectHandler22StdReverbEffectHandler20AutowahEffectHandler19ChorusEffectHandler23CompressorEffectHandler23DistortionEffectHandler17EchoEffectHandler22EqualizerEffectHandler20FlangerEffectHandler21FshifterEffectHandler22ModulatorEffectHandler21PshifterEffectHandler21VmorpherEffectHandler28DedicatedDialogEffectHandler25DedicatedLfeEffectHandler24ConvolutionEffectHandlerEEEEEEDcT_DpT0_', symObjAddr: 0x2F34, symBinAddr: 0x14A1C, symSize: 0x34 }
  - { offset: 0x13DCCE, size: 0x8, addend: 0x0, symName: '__ZNSt3__116__variant_detail12__visitation6__base12__dispatcherIJLm5EEE10__dispatchB8fe200100IONS1_9__variant15__value_visitorIZN12_GLOBAL__N_110alEffectfvEN3gsl8not_nullIPN2al7ContextEEEjiPKfE3$_0EEJRNS0_6__baseILNS0_6_TraitE0EJ17NullEffectHandler19ReverbEffectHandler22StdReverbEffectHandler20AutowahEffectHandler19ChorusEffectHandler23CompressorEffectHandler23DistortionEffectHandler17EchoEffectHandler22EqualizerEffectHandler20FlangerEffectHandler21FshifterEffectHandler22ModulatorEffectHandler21PshifterEffectHandler21VmorpherEffectHandler28DedicatedDialogEffectHandler25DedicatedLfeEffectHandler24ConvolutionEffectHandlerEEEEEEDcT_DpT0_', symObjAddr: 0x2F68, symBinAddr: 0x14A50, symSize: 0x34 }
  - { offset: 0x13DD4B, size: 0x8, addend: 0x0, symName: '__ZNSt3__116__variant_detail12__visitation6__base12__dispatcherIJLm5EEE10__dispatchB8fe200100IONS1_9__variant15__value_visitorIZN12_GLOBAL__N_110alEffectfvEN3gsl8not_nullIPN2al7ContextEEEjiPKfE3$_0EEJRNS0_6__baseILNS0_6_TraitE0EJ17NullEffectHandler19ReverbEffectHandler22StdReverbEffectHandler20AutowahEffectHandler19ChorusEffectHandler23CompressorEffectHandler23DistortionEffectHandler17EchoEffectHandler22EqualizerEffectHandler20FlangerEffectHandler21FshifterEffectHandler22ModulatorEffectHandler21PshifterEffectHandler21VmorpherEffectHandler28DedicatedDialogEffectHandler25DedicatedLfeEffectHandler24ConvolutionEffectHandlerEEEEEEDcT_DpT0_', symObjAddr: 0x2F68, symBinAddr: 0x14A50, symSize: 0x34 }
  - { offset: 0x13DD7F, size: 0x8, addend: 0x0, symName: '__ZNSt3__116__variant_detail12__visitation6__base12__dispatcherIJLm5EEE10__dispatchB8fe200100IONS1_9__variant15__value_visitorIZN12_GLOBAL__N_110alEffectfvEN3gsl8not_nullIPN2al7ContextEEEjiPKfE3$_0EEJRNS0_6__baseILNS0_6_TraitE0EJ17NullEffectHandler19ReverbEffectHandler22StdReverbEffectHandler20AutowahEffectHandler19ChorusEffectHandler23CompressorEffectHandler23DistortionEffectHandler17EchoEffectHandler22EqualizerEffectHandler20FlangerEffectHandler21FshifterEffectHandler22ModulatorEffectHandler21PshifterEffectHandler21VmorpherEffectHandler28DedicatedDialogEffectHandler25DedicatedLfeEffectHandler24ConvolutionEffectHandlerEEEEEEDcT_DpT0_', symObjAddr: 0x2F68, symBinAddr: 0x14A50, symSize: 0x34 }
  - { offset: 0x13DD9D, size: 0x8, addend: 0x0, symName: '__ZNSt3__116__variant_detail12__visitation6__base12__dispatcherIJLm5EEE10__dispatchB8fe200100IONS1_9__variant15__value_visitorIZN12_GLOBAL__N_110alEffectfvEN3gsl8not_nullIPN2al7ContextEEEjiPKfE3$_0EEJRNS0_6__baseILNS0_6_TraitE0EJ17NullEffectHandler19ReverbEffectHandler22StdReverbEffectHandler20AutowahEffectHandler19ChorusEffectHandler23CompressorEffectHandler23DistortionEffectHandler17EchoEffectHandler22EqualizerEffectHandler20FlangerEffectHandler21FshifterEffectHandler22ModulatorEffectHandler21PshifterEffectHandler21VmorpherEffectHandler28DedicatedDialogEffectHandler25DedicatedLfeEffectHandler24ConvolutionEffectHandlerEEEEEEDcT_DpT0_', symObjAddr: 0x2F68, symBinAddr: 0x14A50, symSize: 0x34 }
  - { offset: 0x13DF0E, size: 0x8, addend: 0x0, symName: '__ZNSt3__116__variant_detail12__visitation6__base12__dispatcherIJLm6EEE10__dispatchB8fe200100IONS1_9__variant15__value_visitorIZN12_GLOBAL__N_110alEffectfvEN3gsl8not_nullIPN2al7ContextEEEjiPKfE3$_0EEJRNS0_6__baseILNS0_6_TraitE0EJ17NullEffectHandler19ReverbEffectHandler22StdReverbEffectHandler20AutowahEffectHandler19ChorusEffectHandler23CompressorEffectHandler23DistortionEffectHandler17EchoEffectHandler22EqualizerEffectHandler20FlangerEffectHandler21FshifterEffectHandler22ModulatorEffectHandler21PshifterEffectHandler21VmorpherEffectHandler28DedicatedDialogEffectHandler25DedicatedLfeEffectHandler24ConvolutionEffectHandlerEEEEEEDcT_DpT0_', symObjAddr: 0x2F9C, symBinAddr: 0x14A84, symSize: 0x34 }
  - { offset: 0x13DF8B, size: 0x8, addend: 0x0, symName: '__ZNSt3__116__variant_detail12__visitation6__base12__dispatcherIJLm6EEE10__dispatchB8fe200100IONS1_9__variant15__value_visitorIZN12_GLOBAL__N_110alEffectfvEN3gsl8not_nullIPN2al7ContextEEEjiPKfE3$_0EEJRNS0_6__baseILNS0_6_TraitE0EJ17NullEffectHandler19ReverbEffectHandler22StdReverbEffectHandler20AutowahEffectHandler19ChorusEffectHandler23CompressorEffectHandler23DistortionEffectHandler17EchoEffectHandler22EqualizerEffectHandler20FlangerEffectHandler21FshifterEffectHandler22ModulatorEffectHandler21PshifterEffectHandler21VmorpherEffectHandler28DedicatedDialogEffectHandler25DedicatedLfeEffectHandler24ConvolutionEffectHandlerEEEEEEDcT_DpT0_', symObjAddr: 0x2F9C, symBinAddr: 0x14A84, symSize: 0x34 }
  - { offset: 0x13DFBF, size: 0x8, addend: 0x0, symName: '__ZNSt3__116__variant_detail12__visitation6__base12__dispatcherIJLm6EEE10__dispatchB8fe200100IONS1_9__variant15__value_visitorIZN12_GLOBAL__N_110alEffectfvEN3gsl8not_nullIPN2al7ContextEEEjiPKfE3$_0EEJRNS0_6__baseILNS0_6_TraitE0EJ17NullEffectHandler19ReverbEffectHandler22StdReverbEffectHandler20AutowahEffectHandler19ChorusEffectHandler23CompressorEffectHandler23DistortionEffectHandler17EchoEffectHandler22EqualizerEffectHandler20FlangerEffectHandler21FshifterEffectHandler22ModulatorEffectHandler21PshifterEffectHandler21VmorpherEffectHandler28DedicatedDialogEffectHandler25DedicatedLfeEffectHandler24ConvolutionEffectHandlerEEEEEEDcT_DpT0_', symObjAddr: 0x2F9C, symBinAddr: 0x14A84, symSize: 0x34 }
  - { offset: 0x13DFDD, size: 0x8, addend: 0x0, symName: '__ZNSt3__116__variant_detail12__visitation6__base12__dispatcherIJLm6EEE10__dispatchB8fe200100IONS1_9__variant15__value_visitorIZN12_GLOBAL__N_110alEffectfvEN3gsl8not_nullIPN2al7ContextEEEjiPKfE3$_0EEJRNS0_6__baseILNS0_6_TraitE0EJ17NullEffectHandler19ReverbEffectHandler22StdReverbEffectHandler20AutowahEffectHandler19ChorusEffectHandler23CompressorEffectHandler23DistortionEffectHandler17EchoEffectHandler22EqualizerEffectHandler20FlangerEffectHandler21FshifterEffectHandler22ModulatorEffectHandler21PshifterEffectHandler21VmorpherEffectHandler28DedicatedDialogEffectHandler25DedicatedLfeEffectHandler24ConvolutionEffectHandlerEEEEEEDcT_DpT0_', symObjAddr: 0x2F9C, symBinAddr: 0x14A84, symSize: 0x34 }
  - { offset: 0x13E14E, size: 0x8, addend: 0x0, symName: '__ZNSt3__116__variant_detail12__visitation6__base12__dispatcherIJLm7EEE10__dispatchB8fe200100IONS1_9__variant15__value_visitorIZN12_GLOBAL__N_110alEffectfvEN3gsl8not_nullIPN2al7ContextEEEjiPKfE3$_0EEJRNS0_6__baseILNS0_6_TraitE0EJ17NullEffectHandler19ReverbEffectHandler22StdReverbEffectHandler20AutowahEffectHandler19ChorusEffectHandler23CompressorEffectHandler23DistortionEffectHandler17EchoEffectHandler22EqualizerEffectHandler20FlangerEffectHandler21FshifterEffectHandler22ModulatorEffectHandler21PshifterEffectHandler21VmorpherEffectHandler28DedicatedDialogEffectHandler25DedicatedLfeEffectHandler24ConvolutionEffectHandlerEEEEEEDcT_DpT0_', symObjAddr: 0x2FD0, symBinAddr: 0x14AB8, symSize: 0x34 }
  - { offset: 0x13E1CB, size: 0x8, addend: 0x0, symName: '__ZNSt3__116__variant_detail12__visitation6__base12__dispatcherIJLm7EEE10__dispatchB8fe200100IONS1_9__variant15__value_visitorIZN12_GLOBAL__N_110alEffectfvEN3gsl8not_nullIPN2al7ContextEEEjiPKfE3$_0EEJRNS0_6__baseILNS0_6_TraitE0EJ17NullEffectHandler19ReverbEffectHandler22StdReverbEffectHandler20AutowahEffectHandler19ChorusEffectHandler23CompressorEffectHandler23DistortionEffectHandler17EchoEffectHandler22EqualizerEffectHandler20FlangerEffectHandler21FshifterEffectHandler22ModulatorEffectHandler21PshifterEffectHandler21VmorpherEffectHandler28DedicatedDialogEffectHandler25DedicatedLfeEffectHandler24ConvolutionEffectHandlerEEEEEEDcT_DpT0_', symObjAddr: 0x2FD0, symBinAddr: 0x14AB8, symSize: 0x34 }
  - { offset: 0x13E1FF, size: 0x8, addend: 0x0, symName: '__ZNSt3__116__variant_detail12__visitation6__base12__dispatcherIJLm7EEE10__dispatchB8fe200100IONS1_9__variant15__value_visitorIZN12_GLOBAL__N_110alEffectfvEN3gsl8not_nullIPN2al7ContextEEEjiPKfE3$_0EEJRNS0_6__baseILNS0_6_TraitE0EJ17NullEffectHandler19ReverbEffectHandler22StdReverbEffectHandler20AutowahEffectHandler19ChorusEffectHandler23CompressorEffectHandler23DistortionEffectHandler17EchoEffectHandler22EqualizerEffectHandler20FlangerEffectHandler21FshifterEffectHandler22ModulatorEffectHandler21PshifterEffectHandler21VmorpherEffectHandler28DedicatedDialogEffectHandler25DedicatedLfeEffectHandler24ConvolutionEffectHandlerEEEEEEDcT_DpT0_', symObjAddr: 0x2FD0, symBinAddr: 0x14AB8, symSize: 0x34 }
  - { offset: 0x13E21D, size: 0x8, addend: 0x0, symName: '__ZNSt3__116__variant_detail12__visitation6__base12__dispatcherIJLm7EEE10__dispatchB8fe200100IONS1_9__variant15__value_visitorIZN12_GLOBAL__N_110alEffectfvEN3gsl8not_nullIPN2al7ContextEEEjiPKfE3$_0EEJRNS0_6__baseILNS0_6_TraitE0EJ17NullEffectHandler19ReverbEffectHandler22StdReverbEffectHandler20AutowahEffectHandler19ChorusEffectHandler23CompressorEffectHandler23DistortionEffectHandler17EchoEffectHandler22EqualizerEffectHandler20FlangerEffectHandler21FshifterEffectHandler22ModulatorEffectHandler21PshifterEffectHandler21VmorpherEffectHandler28DedicatedDialogEffectHandler25DedicatedLfeEffectHandler24ConvolutionEffectHandlerEEEEEEDcT_DpT0_', symObjAddr: 0x2FD0, symBinAddr: 0x14AB8, symSize: 0x34 }
  - { offset: 0x13E38E, size: 0x8, addend: 0x0, symName: '__ZNSt3__116__variant_detail12__visitation6__base12__dispatcherIJLm8EEE10__dispatchB8fe200100IONS1_9__variant15__value_visitorIZN12_GLOBAL__N_110alEffectfvEN3gsl8not_nullIPN2al7ContextEEEjiPKfE3$_0EEJRNS0_6__baseILNS0_6_TraitE0EJ17NullEffectHandler19ReverbEffectHandler22StdReverbEffectHandler20AutowahEffectHandler19ChorusEffectHandler23CompressorEffectHandler23DistortionEffectHandler17EchoEffectHandler22EqualizerEffectHandler20FlangerEffectHandler21FshifterEffectHandler22ModulatorEffectHandler21PshifterEffectHandler21VmorpherEffectHandler28DedicatedDialogEffectHandler25DedicatedLfeEffectHandler24ConvolutionEffectHandlerEEEEEEDcT_DpT0_', symObjAddr: 0x3004, symBinAddr: 0x14AEC, symSize: 0x34 }
  - { offset: 0x13E40B, size: 0x8, addend: 0x0, symName: '__ZNSt3__116__variant_detail12__visitation6__base12__dispatcherIJLm8EEE10__dispatchB8fe200100IONS1_9__variant15__value_visitorIZN12_GLOBAL__N_110alEffectfvEN3gsl8not_nullIPN2al7ContextEEEjiPKfE3$_0EEJRNS0_6__baseILNS0_6_TraitE0EJ17NullEffectHandler19ReverbEffectHandler22StdReverbEffectHandler20AutowahEffectHandler19ChorusEffectHandler23CompressorEffectHandler23DistortionEffectHandler17EchoEffectHandler22EqualizerEffectHandler20FlangerEffectHandler21FshifterEffectHandler22ModulatorEffectHandler21PshifterEffectHandler21VmorpherEffectHandler28DedicatedDialogEffectHandler25DedicatedLfeEffectHandler24ConvolutionEffectHandlerEEEEEEDcT_DpT0_', symObjAddr: 0x3004, symBinAddr: 0x14AEC, symSize: 0x34 }
  - { offset: 0x13E43F, size: 0x8, addend: 0x0, symName: '__ZNSt3__116__variant_detail12__visitation6__base12__dispatcherIJLm8EEE10__dispatchB8fe200100IONS1_9__variant15__value_visitorIZN12_GLOBAL__N_110alEffectfvEN3gsl8not_nullIPN2al7ContextEEEjiPKfE3$_0EEJRNS0_6__baseILNS0_6_TraitE0EJ17NullEffectHandler19ReverbEffectHandler22StdReverbEffectHandler20AutowahEffectHandler19ChorusEffectHandler23CompressorEffectHandler23DistortionEffectHandler17EchoEffectHandler22EqualizerEffectHandler20FlangerEffectHandler21FshifterEffectHandler22ModulatorEffectHandler21PshifterEffectHandler21VmorpherEffectHandler28DedicatedDialogEffectHandler25DedicatedLfeEffectHandler24ConvolutionEffectHandlerEEEEEEDcT_DpT0_', symObjAddr: 0x3004, symBinAddr: 0x14AEC, symSize: 0x34 }
  - { offset: 0x13E45D, size: 0x8, addend: 0x0, symName: '__ZNSt3__116__variant_detail12__visitation6__base12__dispatcherIJLm8EEE10__dispatchB8fe200100IONS1_9__variant15__value_visitorIZN12_GLOBAL__N_110alEffectfvEN3gsl8not_nullIPN2al7ContextEEEjiPKfE3$_0EEJRNS0_6__baseILNS0_6_TraitE0EJ17NullEffectHandler19ReverbEffectHandler22StdReverbEffectHandler20AutowahEffectHandler19ChorusEffectHandler23CompressorEffectHandler23DistortionEffectHandler17EchoEffectHandler22EqualizerEffectHandler20FlangerEffectHandler21FshifterEffectHandler22ModulatorEffectHandler21PshifterEffectHandler21VmorpherEffectHandler28DedicatedDialogEffectHandler25DedicatedLfeEffectHandler24ConvolutionEffectHandlerEEEEEEDcT_DpT0_', symObjAddr: 0x3004, symBinAddr: 0x14AEC, symSize: 0x34 }
  - { offset: 0x13E5CE, size: 0x8, addend: 0x0, symName: '__ZNSt3__116__variant_detail12__visitation6__base12__dispatcherIJLm9EEE10__dispatchB8fe200100IONS1_9__variant15__value_visitorIZN12_GLOBAL__N_110alEffectfvEN3gsl8not_nullIPN2al7ContextEEEjiPKfE3$_0EEJRNS0_6__baseILNS0_6_TraitE0EJ17NullEffectHandler19ReverbEffectHandler22StdReverbEffectHandler20AutowahEffectHandler19ChorusEffectHandler23CompressorEffectHandler23DistortionEffectHandler17EchoEffectHandler22EqualizerEffectHandler20FlangerEffectHandler21FshifterEffectHandler22ModulatorEffectHandler21PshifterEffectHandler21VmorpherEffectHandler28DedicatedDialogEffectHandler25DedicatedLfeEffectHandler24ConvolutionEffectHandlerEEEEEEDcT_DpT0_', symObjAddr: 0x3038, symBinAddr: 0x14B20, symSize: 0x34 }
  - { offset: 0x13E64B, size: 0x8, addend: 0x0, symName: '__ZNSt3__116__variant_detail12__visitation6__base12__dispatcherIJLm9EEE10__dispatchB8fe200100IONS1_9__variant15__value_visitorIZN12_GLOBAL__N_110alEffectfvEN3gsl8not_nullIPN2al7ContextEEEjiPKfE3$_0EEJRNS0_6__baseILNS0_6_TraitE0EJ17NullEffectHandler19ReverbEffectHandler22StdReverbEffectHandler20AutowahEffectHandler19ChorusEffectHandler23CompressorEffectHandler23DistortionEffectHandler17EchoEffectHandler22EqualizerEffectHandler20FlangerEffectHandler21FshifterEffectHandler22ModulatorEffectHandler21PshifterEffectHandler21VmorpherEffectHandler28DedicatedDialogEffectHandler25DedicatedLfeEffectHandler24ConvolutionEffectHandlerEEEEEEDcT_DpT0_', symObjAddr: 0x3038, symBinAddr: 0x14B20, symSize: 0x34 }
  - { offset: 0x13E67F, size: 0x8, addend: 0x0, symName: '__ZNSt3__116__variant_detail12__visitation6__base12__dispatcherIJLm9EEE10__dispatchB8fe200100IONS1_9__variant15__value_visitorIZN12_GLOBAL__N_110alEffectfvEN3gsl8not_nullIPN2al7ContextEEEjiPKfE3$_0EEJRNS0_6__baseILNS0_6_TraitE0EJ17NullEffectHandler19ReverbEffectHandler22StdReverbEffectHandler20AutowahEffectHandler19ChorusEffectHandler23CompressorEffectHandler23DistortionEffectHandler17EchoEffectHandler22EqualizerEffectHandler20FlangerEffectHandler21FshifterEffectHandler22ModulatorEffectHandler21PshifterEffectHandler21VmorpherEffectHandler28DedicatedDialogEffectHandler25DedicatedLfeEffectHandler24ConvolutionEffectHandlerEEEEEEDcT_DpT0_', symObjAddr: 0x3038, symBinAddr: 0x14B20, symSize: 0x34 }
  - { offset: 0x13E69D, size: 0x8, addend: 0x0, symName: '__ZNSt3__116__variant_detail12__visitation6__base12__dispatcherIJLm9EEE10__dispatchB8fe200100IONS1_9__variant15__value_visitorIZN12_GLOBAL__N_110alEffectfvEN3gsl8not_nullIPN2al7ContextEEEjiPKfE3$_0EEJRNS0_6__baseILNS0_6_TraitE0EJ17NullEffectHandler19ReverbEffectHandler22StdReverbEffectHandler20AutowahEffectHandler19ChorusEffectHandler23CompressorEffectHandler23DistortionEffectHandler17EchoEffectHandler22EqualizerEffectHandler20FlangerEffectHandler21FshifterEffectHandler22ModulatorEffectHandler21PshifterEffectHandler21VmorpherEffectHandler28DedicatedDialogEffectHandler25DedicatedLfeEffectHandler24ConvolutionEffectHandlerEEEEEEDcT_DpT0_', symObjAddr: 0x3038, symBinAddr: 0x14B20, symSize: 0x34 }
  - { offset: 0x13E80E, size: 0x8, addend: 0x0, symName: '__ZNSt3__116__variant_detail12__visitation6__base12__dispatcherIJLm10EEE10__dispatchB8fe200100IONS1_9__variant15__value_visitorIZN12_GLOBAL__N_110alEffectfvEN3gsl8not_nullIPN2al7ContextEEEjiPKfE3$_0EEJRNS0_6__baseILNS0_6_TraitE0EJ17NullEffectHandler19ReverbEffectHandler22StdReverbEffectHandler20AutowahEffectHandler19ChorusEffectHandler23CompressorEffectHandler23DistortionEffectHandler17EchoEffectHandler22EqualizerEffectHandler20FlangerEffectHandler21FshifterEffectHandler22ModulatorEffectHandler21PshifterEffectHandler21VmorpherEffectHandler28DedicatedDialogEffectHandler25DedicatedLfeEffectHandler24ConvolutionEffectHandlerEEEEEEDcT_DpT0_', symObjAddr: 0x306C, symBinAddr: 0x14B54, symSize: 0x34 }
  - { offset: 0x13E88B, size: 0x8, addend: 0x0, symName: '__ZNSt3__116__variant_detail12__visitation6__base12__dispatcherIJLm10EEE10__dispatchB8fe200100IONS1_9__variant15__value_visitorIZN12_GLOBAL__N_110alEffectfvEN3gsl8not_nullIPN2al7ContextEEEjiPKfE3$_0EEJRNS0_6__baseILNS0_6_TraitE0EJ17NullEffectHandler19ReverbEffectHandler22StdReverbEffectHandler20AutowahEffectHandler19ChorusEffectHandler23CompressorEffectHandler23DistortionEffectHandler17EchoEffectHandler22EqualizerEffectHandler20FlangerEffectHandler21FshifterEffectHandler22ModulatorEffectHandler21PshifterEffectHandler21VmorpherEffectHandler28DedicatedDialogEffectHandler25DedicatedLfeEffectHandler24ConvolutionEffectHandlerEEEEEEDcT_DpT0_', symObjAddr: 0x306C, symBinAddr: 0x14B54, symSize: 0x34 }
  - { offset: 0x13E8BF, size: 0x8, addend: 0x0, symName: '__ZNSt3__116__variant_detail12__visitation6__base12__dispatcherIJLm10EEE10__dispatchB8fe200100IONS1_9__variant15__value_visitorIZN12_GLOBAL__N_110alEffectfvEN3gsl8not_nullIPN2al7ContextEEEjiPKfE3$_0EEJRNS0_6__baseILNS0_6_TraitE0EJ17NullEffectHandler19ReverbEffectHandler22StdReverbEffectHandler20AutowahEffectHandler19ChorusEffectHandler23CompressorEffectHandler23DistortionEffectHandler17EchoEffectHandler22EqualizerEffectHandler20FlangerEffectHandler21FshifterEffectHandler22ModulatorEffectHandler21PshifterEffectHandler21VmorpherEffectHandler28DedicatedDialogEffectHandler25DedicatedLfeEffectHandler24ConvolutionEffectHandlerEEEEEEDcT_DpT0_', symObjAddr: 0x306C, symBinAddr: 0x14B54, symSize: 0x34 }
  - { offset: 0x13E8DD, size: 0x8, addend: 0x0, symName: '__ZNSt3__116__variant_detail12__visitation6__base12__dispatcherIJLm10EEE10__dispatchB8fe200100IONS1_9__variant15__value_visitorIZN12_GLOBAL__N_110alEffectfvEN3gsl8not_nullIPN2al7ContextEEEjiPKfE3$_0EEJRNS0_6__baseILNS0_6_TraitE0EJ17NullEffectHandler19ReverbEffectHandler22StdReverbEffectHandler20AutowahEffectHandler19ChorusEffectHandler23CompressorEffectHandler23DistortionEffectHandler17EchoEffectHandler22EqualizerEffectHandler20FlangerEffectHandler21FshifterEffectHandler22ModulatorEffectHandler21PshifterEffectHandler21VmorpherEffectHandler28DedicatedDialogEffectHandler25DedicatedLfeEffectHandler24ConvolutionEffectHandlerEEEEEEDcT_DpT0_', symObjAddr: 0x306C, symBinAddr: 0x14B54, symSize: 0x34 }
  - { offset: 0x13EA4E, size: 0x8, addend: 0x0, symName: '__ZNSt3__116__variant_detail12__visitation6__base12__dispatcherIJLm11EEE10__dispatchB8fe200100IONS1_9__variant15__value_visitorIZN12_GLOBAL__N_110alEffectfvEN3gsl8not_nullIPN2al7ContextEEEjiPKfE3$_0EEJRNS0_6__baseILNS0_6_TraitE0EJ17NullEffectHandler19ReverbEffectHandler22StdReverbEffectHandler20AutowahEffectHandler19ChorusEffectHandler23CompressorEffectHandler23DistortionEffectHandler17EchoEffectHandler22EqualizerEffectHandler20FlangerEffectHandler21FshifterEffectHandler22ModulatorEffectHandler21PshifterEffectHandler21VmorpherEffectHandler28DedicatedDialogEffectHandler25DedicatedLfeEffectHandler24ConvolutionEffectHandlerEEEEEEDcT_DpT0_', symObjAddr: 0x30A0, symBinAddr: 0x14B88, symSize: 0x34 }
  - { offset: 0x13EACB, size: 0x8, addend: 0x0, symName: '__ZNSt3__116__variant_detail12__visitation6__base12__dispatcherIJLm11EEE10__dispatchB8fe200100IONS1_9__variant15__value_visitorIZN12_GLOBAL__N_110alEffectfvEN3gsl8not_nullIPN2al7ContextEEEjiPKfE3$_0EEJRNS0_6__baseILNS0_6_TraitE0EJ17NullEffectHandler19ReverbEffectHandler22StdReverbEffectHandler20AutowahEffectHandler19ChorusEffectHandler23CompressorEffectHandler23DistortionEffectHandler17EchoEffectHandler22EqualizerEffectHandler20FlangerEffectHandler21FshifterEffectHandler22ModulatorEffectHandler21PshifterEffectHandler21VmorpherEffectHandler28DedicatedDialogEffectHandler25DedicatedLfeEffectHandler24ConvolutionEffectHandlerEEEEEEDcT_DpT0_', symObjAddr: 0x30A0, symBinAddr: 0x14B88, symSize: 0x34 }
  - { offset: 0x13EAFF, size: 0x8, addend: 0x0, symName: '__ZNSt3__116__variant_detail12__visitation6__base12__dispatcherIJLm11EEE10__dispatchB8fe200100IONS1_9__variant15__value_visitorIZN12_GLOBAL__N_110alEffectfvEN3gsl8not_nullIPN2al7ContextEEEjiPKfE3$_0EEJRNS0_6__baseILNS0_6_TraitE0EJ17NullEffectHandler19ReverbEffectHandler22StdReverbEffectHandler20AutowahEffectHandler19ChorusEffectHandler23CompressorEffectHandler23DistortionEffectHandler17EchoEffectHandler22EqualizerEffectHandler20FlangerEffectHandler21FshifterEffectHandler22ModulatorEffectHandler21PshifterEffectHandler21VmorpherEffectHandler28DedicatedDialogEffectHandler25DedicatedLfeEffectHandler24ConvolutionEffectHandlerEEEEEEDcT_DpT0_', symObjAddr: 0x30A0, symBinAddr: 0x14B88, symSize: 0x34 }
  - { offset: 0x13EB1D, size: 0x8, addend: 0x0, symName: '__ZNSt3__116__variant_detail12__visitation6__base12__dispatcherIJLm11EEE10__dispatchB8fe200100IONS1_9__variant15__value_visitorIZN12_GLOBAL__N_110alEffectfvEN3gsl8not_nullIPN2al7ContextEEEjiPKfE3$_0EEJRNS0_6__baseILNS0_6_TraitE0EJ17NullEffectHandler19ReverbEffectHandler22StdReverbEffectHandler20AutowahEffectHandler19ChorusEffectHandler23CompressorEffectHandler23DistortionEffectHandler17EchoEffectHandler22EqualizerEffectHandler20FlangerEffectHandler21FshifterEffectHandler22ModulatorEffectHandler21PshifterEffectHandler21VmorpherEffectHandler28DedicatedDialogEffectHandler25DedicatedLfeEffectHandler24ConvolutionEffectHandlerEEEEEEDcT_DpT0_', symObjAddr: 0x30A0, symBinAddr: 0x14B88, symSize: 0x34 }
  - { offset: 0x13EC8E, size: 0x8, addend: 0x0, symName: '__ZNSt3__116__variant_detail12__visitation6__base12__dispatcherIJLm12EEE10__dispatchB8fe200100IONS1_9__variant15__value_visitorIZN12_GLOBAL__N_110alEffectfvEN3gsl8not_nullIPN2al7ContextEEEjiPKfE3$_0EEJRNS0_6__baseILNS0_6_TraitE0EJ17NullEffectHandler19ReverbEffectHandler22StdReverbEffectHandler20AutowahEffectHandler19ChorusEffectHandler23CompressorEffectHandler23DistortionEffectHandler17EchoEffectHandler22EqualizerEffectHandler20FlangerEffectHandler21FshifterEffectHandler22ModulatorEffectHandler21PshifterEffectHandler21VmorpherEffectHandler28DedicatedDialogEffectHandler25DedicatedLfeEffectHandler24ConvolutionEffectHandlerEEEEEEDcT_DpT0_', symObjAddr: 0x30D4, symBinAddr: 0x14BBC, symSize: 0x34 }
  - { offset: 0x13ED0B, size: 0x8, addend: 0x0, symName: '__ZNSt3__116__variant_detail12__visitation6__base12__dispatcherIJLm12EEE10__dispatchB8fe200100IONS1_9__variant15__value_visitorIZN12_GLOBAL__N_110alEffectfvEN3gsl8not_nullIPN2al7ContextEEEjiPKfE3$_0EEJRNS0_6__baseILNS0_6_TraitE0EJ17NullEffectHandler19ReverbEffectHandler22StdReverbEffectHandler20AutowahEffectHandler19ChorusEffectHandler23CompressorEffectHandler23DistortionEffectHandler17EchoEffectHandler22EqualizerEffectHandler20FlangerEffectHandler21FshifterEffectHandler22ModulatorEffectHandler21PshifterEffectHandler21VmorpherEffectHandler28DedicatedDialogEffectHandler25DedicatedLfeEffectHandler24ConvolutionEffectHandlerEEEEEEDcT_DpT0_', symObjAddr: 0x30D4, symBinAddr: 0x14BBC, symSize: 0x34 }
  - { offset: 0x13ED3F, size: 0x8, addend: 0x0, symName: '__ZNSt3__116__variant_detail12__visitation6__base12__dispatcherIJLm12EEE10__dispatchB8fe200100IONS1_9__variant15__value_visitorIZN12_GLOBAL__N_110alEffectfvEN3gsl8not_nullIPN2al7ContextEEEjiPKfE3$_0EEJRNS0_6__baseILNS0_6_TraitE0EJ17NullEffectHandler19ReverbEffectHandler22StdReverbEffectHandler20AutowahEffectHandler19ChorusEffectHandler23CompressorEffectHandler23DistortionEffectHandler17EchoEffectHandler22EqualizerEffectHandler20FlangerEffectHandler21FshifterEffectHandler22ModulatorEffectHandler21PshifterEffectHandler21VmorpherEffectHandler28DedicatedDialogEffectHandler25DedicatedLfeEffectHandler24ConvolutionEffectHandlerEEEEEEDcT_DpT0_', symObjAddr: 0x30D4, symBinAddr: 0x14BBC, symSize: 0x34 }
  - { offset: 0x13ED5D, size: 0x8, addend: 0x0, symName: '__ZNSt3__116__variant_detail12__visitation6__base12__dispatcherIJLm12EEE10__dispatchB8fe200100IONS1_9__variant15__value_visitorIZN12_GLOBAL__N_110alEffectfvEN3gsl8not_nullIPN2al7ContextEEEjiPKfE3$_0EEJRNS0_6__baseILNS0_6_TraitE0EJ17NullEffectHandler19ReverbEffectHandler22StdReverbEffectHandler20AutowahEffectHandler19ChorusEffectHandler23CompressorEffectHandler23DistortionEffectHandler17EchoEffectHandler22EqualizerEffectHandler20FlangerEffectHandler21FshifterEffectHandler22ModulatorEffectHandler21PshifterEffectHandler21VmorpherEffectHandler28DedicatedDialogEffectHandler25DedicatedLfeEffectHandler24ConvolutionEffectHandlerEEEEEEDcT_DpT0_', symObjAddr: 0x30D4, symBinAddr: 0x14BBC, symSize: 0x34 }
  - { offset: 0x13EECE, size: 0x8, addend: 0x0, symName: '__ZNSt3__116__variant_detail12__visitation6__base12__dispatcherIJLm13EEE10__dispatchB8fe200100IONS1_9__variant15__value_visitorIZN12_GLOBAL__N_110alEffectfvEN3gsl8not_nullIPN2al7ContextEEEjiPKfE3$_0EEJRNS0_6__baseILNS0_6_TraitE0EJ17NullEffectHandler19ReverbEffectHandler22StdReverbEffectHandler20AutowahEffectHandler19ChorusEffectHandler23CompressorEffectHandler23DistortionEffectHandler17EchoEffectHandler22EqualizerEffectHandler20FlangerEffectHandler21FshifterEffectHandler22ModulatorEffectHandler21PshifterEffectHandler21VmorpherEffectHandler28DedicatedDialogEffectHandler25DedicatedLfeEffectHandler24ConvolutionEffectHandlerEEEEEEDcT_DpT0_', symObjAddr: 0x3108, symBinAddr: 0x14BF0, symSize: 0x34 }
  - { offset: 0x13EF4B, size: 0x8, addend: 0x0, symName: '__ZNSt3__116__variant_detail12__visitation6__base12__dispatcherIJLm13EEE10__dispatchB8fe200100IONS1_9__variant15__value_visitorIZN12_GLOBAL__N_110alEffectfvEN3gsl8not_nullIPN2al7ContextEEEjiPKfE3$_0EEJRNS0_6__baseILNS0_6_TraitE0EJ17NullEffectHandler19ReverbEffectHandler22StdReverbEffectHandler20AutowahEffectHandler19ChorusEffectHandler23CompressorEffectHandler23DistortionEffectHandler17EchoEffectHandler22EqualizerEffectHandler20FlangerEffectHandler21FshifterEffectHandler22ModulatorEffectHandler21PshifterEffectHandler21VmorpherEffectHandler28DedicatedDialogEffectHandler25DedicatedLfeEffectHandler24ConvolutionEffectHandlerEEEEEEDcT_DpT0_', symObjAddr: 0x3108, symBinAddr: 0x14BF0, symSize: 0x34 }
  - { offset: 0x13EF7F, size: 0x8, addend: 0x0, symName: '__ZNSt3__116__variant_detail12__visitation6__base12__dispatcherIJLm13EEE10__dispatchB8fe200100IONS1_9__variant15__value_visitorIZN12_GLOBAL__N_110alEffectfvEN3gsl8not_nullIPN2al7ContextEEEjiPKfE3$_0EEJRNS0_6__baseILNS0_6_TraitE0EJ17NullEffectHandler19ReverbEffectHandler22StdReverbEffectHandler20AutowahEffectHandler19ChorusEffectHandler23CompressorEffectHandler23DistortionEffectHandler17EchoEffectHandler22EqualizerEffectHandler20FlangerEffectHandler21FshifterEffectHandler22ModulatorEffectHandler21PshifterEffectHandler21VmorpherEffectHandler28DedicatedDialogEffectHandler25DedicatedLfeEffectHandler24ConvolutionEffectHandlerEEEEEEDcT_DpT0_', symObjAddr: 0x3108, symBinAddr: 0x14BF0, symSize: 0x34 }
  - { offset: 0x13EF9D, size: 0x8, addend: 0x0, symName: '__ZNSt3__116__variant_detail12__visitation6__base12__dispatcherIJLm13EEE10__dispatchB8fe200100IONS1_9__variant15__value_visitorIZN12_GLOBAL__N_110alEffectfvEN3gsl8not_nullIPN2al7ContextEEEjiPKfE3$_0EEJRNS0_6__baseILNS0_6_TraitE0EJ17NullEffectHandler19ReverbEffectHandler22StdReverbEffectHandler20AutowahEffectHandler19ChorusEffectHandler23CompressorEffectHandler23DistortionEffectHandler17EchoEffectHandler22EqualizerEffectHandler20FlangerEffectHandler21FshifterEffectHandler22ModulatorEffectHandler21PshifterEffectHandler21VmorpherEffectHandler28DedicatedDialogEffectHandler25DedicatedLfeEffectHandler24ConvolutionEffectHandlerEEEEEEDcT_DpT0_', symObjAddr: 0x3108, symBinAddr: 0x14BF0, symSize: 0x34 }
  - { offset: 0x13F10E, size: 0x8, addend: 0x0, symName: '__ZNSt3__116__variant_detail12__visitation6__base12__dispatcherIJLm14EEE10__dispatchB8fe200100IONS1_9__variant15__value_visitorIZN12_GLOBAL__N_110alEffectfvEN3gsl8not_nullIPN2al7ContextEEEjiPKfE3$_0EEJRNS0_6__baseILNS0_6_TraitE0EJ17NullEffectHandler19ReverbEffectHandler22StdReverbEffectHandler20AutowahEffectHandler19ChorusEffectHandler23CompressorEffectHandler23DistortionEffectHandler17EchoEffectHandler22EqualizerEffectHandler20FlangerEffectHandler21FshifterEffectHandler22ModulatorEffectHandler21PshifterEffectHandler21VmorpherEffectHandler28DedicatedDialogEffectHandler25DedicatedLfeEffectHandler24ConvolutionEffectHandlerEEEEEEDcT_DpT0_', symObjAddr: 0x313C, symBinAddr: 0x14C24, symSize: 0x34 }
  - { offset: 0x13F18B, size: 0x8, addend: 0x0, symName: '__ZNSt3__116__variant_detail12__visitation6__base12__dispatcherIJLm14EEE10__dispatchB8fe200100IONS1_9__variant15__value_visitorIZN12_GLOBAL__N_110alEffectfvEN3gsl8not_nullIPN2al7ContextEEEjiPKfE3$_0EEJRNS0_6__baseILNS0_6_TraitE0EJ17NullEffectHandler19ReverbEffectHandler22StdReverbEffectHandler20AutowahEffectHandler19ChorusEffectHandler23CompressorEffectHandler23DistortionEffectHandler17EchoEffectHandler22EqualizerEffectHandler20FlangerEffectHandler21FshifterEffectHandler22ModulatorEffectHandler21PshifterEffectHandler21VmorpherEffectHandler28DedicatedDialogEffectHandler25DedicatedLfeEffectHandler24ConvolutionEffectHandlerEEEEEEDcT_DpT0_', symObjAddr: 0x313C, symBinAddr: 0x14C24, symSize: 0x34 }
  - { offset: 0x13F1BF, size: 0x8, addend: 0x0, symName: '__ZNSt3__116__variant_detail12__visitation6__base12__dispatcherIJLm14EEE10__dispatchB8fe200100IONS1_9__variant15__value_visitorIZN12_GLOBAL__N_110alEffectfvEN3gsl8not_nullIPN2al7ContextEEEjiPKfE3$_0EEJRNS0_6__baseILNS0_6_TraitE0EJ17NullEffectHandler19ReverbEffectHandler22StdReverbEffectHandler20AutowahEffectHandler19ChorusEffectHandler23CompressorEffectHandler23DistortionEffectHandler17EchoEffectHandler22EqualizerEffectHandler20FlangerEffectHandler21FshifterEffectHandler22ModulatorEffectHandler21PshifterEffectHandler21VmorpherEffectHandler28DedicatedDialogEffectHandler25DedicatedLfeEffectHandler24ConvolutionEffectHandlerEEEEEEDcT_DpT0_', symObjAddr: 0x313C, symBinAddr: 0x14C24, symSize: 0x34 }
  - { offset: 0x13F1DD, size: 0x8, addend: 0x0, symName: '__ZNSt3__116__variant_detail12__visitation6__base12__dispatcherIJLm14EEE10__dispatchB8fe200100IONS1_9__variant15__value_visitorIZN12_GLOBAL__N_110alEffectfvEN3gsl8not_nullIPN2al7ContextEEEjiPKfE3$_0EEJRNS0_6__baseILNS0_6_TraitE0EJ17NullEffectHandler19ReverbEffectHandler22StdReverbEffectHandler20AutowahEffectHandler19ChorusEffectHandler23CompressorEffectHandler23DistortionEffectHandler17EchoEffectHandler22EqualizerEffectHandler20FlangerEffectHandler21FshifterEffectHandler22ModulatorEffectHandler21PshifterEffectHandler21VmorpherEffectHandler28DedicatedDialogEffectHandler25DedicatedLfeEffectHandler24ConvolutionEffectHandlerEEEEEEDcT_DpT0_', symObjAddr: 0x313C, symBinAddr: 0x14C24, symSize: 0x34 }
  - { offset: 0x13F34E, size: 0x8, addend: 0x0, symName: '__ZNSt3__116__variant_detail12__visitation6__base12__dispatcherIJLm15EEE10__dispatchB8fe200100IONS1_9__variant15__value_visitorIZN12_GLOBAL__N_110alEffectfvEN3gsl8not_nullIPN2al7ContextEEEjiPKfE3$_0EEJRNS0_6__baseILNS0_6_TraitE0EJ17NullEffectHandler19ReverbEffectHandler22StdReverbEffectHandler20AutowahEffectHandler19ChorusEffectHandler23CompressorEffectHandler23DistortionEffectHandler17EchoEffectHandler22EqualizerEffectHandler20FlangerEffectHandler21FshifterEffectHandler22ModulatorEffectHandler21PshifterEffectHandler21VmorpherEffectHandler28DedicatedDialogEffectHandler25DedicatedLfeEffectHandler24ConvolutionEffectHandlerEEEEEEDcT_DpT0_', symObjAddr: 0x3170, symBinAddr: 0x14C58, symSize: 0x34 }
  - { offset: 0x13F3CB, size: 0x8, addend: 0x0, symName: '__ZNSt3__116__variant_detail12__visitation6__base12__dispatcherIJLm15EEE10__dispatchB8fe200100IONS1_9__variant15__value_visitorIZN12_GLOBAL__N_110alEffectfvEN3gsl8not_nullIPN2al7ContextEEEjiPKfE3$_0EEJRNS0_6__baseILNS0_6_TraitE0EJ17NullEffectHandler19ReverbEffectHandler22StdReverbEffectHandler20AutowahEffectHandler19ChorusEffectHandler23CompressorEffectHandler23DistortionEffectHandler17EchoEffectHandler22EqualizerEffectHandler20FlangerEffectHandler21FshifterEffectHandler22ModulatorEffectHandler21PshifterEffectHandler21VmorpherEffectHandler28DedicatedDialogEffectHandler25DedicatedLfeEffectHandler24ConvolutionEffectHandlerEEEEEEDcT_DpT0_', symObjAddr: 0x3170, symBinAddr: 0x14C58, symSize: 0x34 }
  - { offset: 0x13F3FF, size: 0x8, addend: 0x0, symName: '__ZNSt3__116__variant_detail12__visitation6__base12__dispatcherIJLm15EEE10__dispatchB8fe200100IONS1_9__variant15__value_visitorIZN12_GLOBAL__N_110alEffectfvEN3gsl8not_nullIPN2al7ContextEEEjiPKfE3$_0EEJRNS0_6__baseILNS0_6_TraitE0EJ17NullEffectHandler19ReverbEffectHandler22StdReverbEffectHandler20AutowahEffectHandler19ChorusEffectHandler23CompressorEffectHandler23DistortionEffectHandler17EchoEffectHandler22EqualizerEffectHandler20FlangerEffectHandler21FshifterEffectHandler22ModulatorEffectHandler21PshifterEffectHandler21VmorpherEffectHandler28DedicatedDialogEffectHandler25DedicatedLfeEffectHandler24ConvolutionEffectHandlerEEEEEEDcT_DpT0_', symObjAddr: 0x3170, symBinAddr: 0x14C58, symSize: 0x34 }
  - { offset: 0x13F41D, size: 0x8, addend: 0x0, symName: '__ZNSt3__116__variant_detail12__visitation6__base12__dispatcherIJLm15EEE10__dispatchB8fe200100IONS1_9__variant15__value_visitorIZN12_GLOBAL__N_110alEffectfvEN3gsl8not_nullIPN2al7ContextEEEjiPKfE3$_0EEJRNS0_6__baseILNS0_6_TraitE0EJ17NullEffectHandler19ReverbEffectHandler22StdReverbEffectHandler20AutowahEffectHandler19ChorusEffectHandler23CompressorEffectHandler23DistortionEffectHandler17EchoEffectHandler22EqualizerEffectHandler20FlangerEffectHandler21FshifterEffectHandler22ModulatorEffectHandler21PshifterEffectHandler21VmorpherEffectHandler28DedicatedDialogEffectHandler25DedicatedLfeEffectHandler24ConvolutionEffectHandlerEEEEEEDcT_DpT0_', symObjAddr: 0x3170, symBinAddr: 0x14C58, symSize: 0x34 }
  - { offset: 0x13F58E, size: 0x8, addend: 0x0, symName: '__ZNSt3__116__variant_detail12__visitation6__base12__dispatcherIJLm16EEE10__dispatchB8fe200100IONS1_9__variant15__value_visitorIZN12_GLOBAL__N_110alEffectfvEN3gsl8not_nullIPN2al7ContextEEEjiPKfE3$_0EEJRNS0_6__baseILNS0_6_TraitE0EJ17NullEffectHandler19ReverbEffectHandler22StdReverbEffectHandler20AutowahEffectHandler19ChorusEffectHandler23CompressorEffectHandler23DistortionEffectHandler17EchoEffectHandler22EqualizerEffectHandler20FlangerEffectHandler21FshifterEffectHandler22ModulatorEffectHandler21PshifterEffectHandler21VmorpherEffectHandler28DedicatedDialogEffectHandler25DedicatedLfeEffectHandler24ConvolutionEffectHandlerEEEEEEDcT_DpT0_', symObjAddr: 0x31A4, symBinAddr: 0x14C8C, symSize: 0x34 }
  - { offset: 0x13F60B, size: 0x8, addend: 0x0, symName: '__ZNSt3__116__variant_detail12__visitation6__base12__dispatcherIJLm16EEE10__dispatchB8fe200100IONS1_9__variant15__value_visitorIZN12_GLOBAL__N_110alEffectfvEN3gsl8not_nullIPN2al7ContextEEEjiPKfE3$_0EEJRNS0_6__baseILNS0_6_TraitE0EJ17NullEffectHandler19ReverbEffectHandler22StdReverbEffectHandler20AutowahEffectHandler19ChorusEffectHandler23CompressorEffectHandler23DistortionEffectHandler17EchoEffectHandler22EqualizerEffectHandler20FlangerEffectHandler21FshifterEffectHandler22ModulatorEffectHandler21PshifterEffectHandler21VmorpherEffectHandler28DedicatedDialogEffectHandler25DedicatedLfeEffectHandler24ConvolutionEffectHandlerEEEEEEDcT_DpT0_', symObjAddr: 0x31A4, symBinAddr: 0x14C8C, symSize: 0x34 }
  - { offset: 0x13F63F, size: 0x8, addend: 0x0, symName: '__ZNSt3__116__variant_detail12__visitation6__base12__dispatcherIJLm16EEE10__dispatchB8fe200100IONS1_9__variant15__value_visitorIZN12_GLOBAL__N_110alEffectfvEN3gsl8not_nullIPN2al7ContextEEEjiPKfE3$_0EEJRNS0_6__baseILNS0_6_TraitE0EJ17NullEffectHandler19ReverbEffectHandler22StdReverbEffectHandler20AutowahEffectHandler19ChorusEffectHandler23CompressorEffectHandler23DistortionEffectHandler17EchoEffectHandler22EqualizerEffectHandler20FlangerEffectHandler21FshifterEffectHandler22ModulatorEffectHandler21PshifterEffectHandler21VmorpherEffectHandler28DedicatedDialogEffectHandler25DedicatedLfeEffectHandler24ConvolutionEffectHandlerEEEEEEDcT_DpT0_', symObjAddr: 0x31A4, symBinAddr: 0x14C8C, symSize: 0x34 }
  - { offset: 0x13F65D, size: 0x8, addend: 0x0, symName: '__ZNSt3__116__variant_detail12__visitation6__base12__dispatcherIJLm16EEE10__dispatchB8fe200100IONS1_9__variant15__value_visitorIZN12_GLOBAL__N_110alEffectfvEN3gsl8not_nullIPN2al7ContextEEEjiPKfE3$_0EEJRNS0_6__baseILNS0_6_TraitE0EJ17NullEffectHandler19ReverbEffectHandler22StdReverbEffectHandler20AutowahEffectHandler19ChorusEffectHandler23CompressorEffectHandler23DistortionEffectHandler17EchoEffectHandler22EqualizerEffectHandler20FlangerEffectHandler21FshifterEffectHandler22ModulatorEffectHandler21PshifterEffectHandler21VmorpherEffectHandler28DedicatedDialogEffectHandler25DedicatedLfeEffectHandler24ConvolutionEffectHandlerEEEEEEDcT_DpT0_', symObjAddr: 0x31A4, symBinAddr: 0x14C8C, symSize: 0x34 }
  - { offset: 0x13F7CE, size: 0x8, addend: 0x0, symName: '__ZNSt3__116__variant_detail12__visitation6__base12__dispatcherIJLm0EEE10__dispatchB8fe200100IONS1_9__variant15__value_visitorIZN12_GLOBAL__N_112alGetEffectiEN3gsl8not_nullIPN2al7ContextEEEjiPiE3$_0EEJRNS0_6__baseILNS0_6_TraitE0EJ17NullEffectHandler19ReverbEffectHandler22StdReverbEffectHandler20AutowahEffectHandler19ChorusEffectHandler23CompressorEffectHandler23DistortionEffectHandler17EchoEffectHandler22EqualizerEffectHandler20FlangerEffectHandler21FshifterEffectHandler22ModulatorEffectHandler21PshifterEffectHandler21VmorpherEffectHandler28DedicatedDialogEffectHandler25DedicatedLfeEffectHandler24ConvolutionEffectHandlerEEEEEEDcT_DpT0_', symObjAddr: 0x31D8, symBinAddr: 0x14CC0, symSize: 0x30 }
  - { offset: 0x13F86F, size: 0x8, addend: 0x0, symName: '__ZNSt3__116__variant_detail12__visitation6__base12__dispatcherIJLm0EEE10__dispatchB8fe200100IONS1_9__variant15__value_visitorIZN12_GLOBAL__N_112alGetEffectiEN3gsl8not_nullIPN2al7ContextEEEjiPiE3$_0EEJRNS0_6__baseILNS0_6_TraitE0EJ17NullEffectHandler19ReverbEffectHandler22StdReverbEffectHandler20AutowahEffectHandler19ChorusEffectHandler23CompressorEffectHandler23DistortionEffectHandler17EchoEffectHandler22EqualizerEffectHandler20FlangerEffectHandler21FshifterEffectHandler22ModulatorEffectHandler21PshifterEffectHandler21VmorpherEffectHandler28DedicatedDialogEffectHandler25DedicatedLfeEffectHandler24ConvolutionEffectHandlerEEEEEEDcT_DpT0_', symObjAddr: 0x31D8, symBinAddr: 0x14CC0, symSize: 0x30 }
  - { offset: 0x13F8A3, size: 0x8, addend: 0x0, symName: '__ZNSt3__116__variant_detail12__visitation6__base12__dispatcherIJLm0EEE10__dispatchB8fe200100IONS1_9__variant15__value_visitorIZN12_GLOBAL__N_112alGetEffectiEN3gsl8not_nullIPN2al7ContextEEEjiPiE3$_0EEJRNS0_6__baseILNS0_6_TraitE0EJ17NullEffectHandler19ReverbEffectHandler22StdReverbEffectHandler20AutowahEffectHandler19ChorusEffectHandler23CompressorEffectHandler23DistortionEffectHandler17EchoEffectHandler22EqualizerEffectHandler20FlangerEffectHandler21FshifterEffectHandler22ModulatorEffectHandler21PshifterEffectHandler21VmorpherEffectHandler28DedicatedDialogEffectHandler25DedicatedLfeEffectHandler24ConvolutionEffectHandlerEEEEEEDcT_DpT0_', symObjAddr: 0x31D8, symBinAddr: 0x14CC0, symSize: 0x30 }
  - { offset: 0x13F8C1, size: 0x8, addend: 0x0, symName: '__ZNSt3__116__variant_detail12__visitation6__base12__dispatcherIJLm0EEE10__dispatchB8fe200100IONS1_9__variant15__value_visitorIZN12_GLOBAL__N_112alGetEffectiEN3gsl8not_nullIPN2al7ContextEEEjiPiE3$_0EEJRNS0_6__baseILNS0_6_TraitE0EJ17NullEffectHandler19ReverbEffectHandler22StdReverbEffectHandler20AutowahEffectHandler19ChorusEffectHandler23CompressorEffectHandler23DistortionEffectHandler17EchoEffectHandler22EqualizerEffectHandler20FlangerEffectHandler21FshifterEffectHandler22ModulatorEffectHandler21PshifterEffectHandler21VmorpherEffectHandler28DedicatedDialogEffectHandler25DedicatedLfeEffectHandler24ConvolutionEffectHandlerEEEEEEDcT_DpT0_', symObjAddr: 0x31D8, symBinAddr: 0x14CC0, symSize: 0x30 }
  - { offset: 0x13FA32, size: 0x8, addend: 0x0, symName: '__ZNSt3__116__variant_detail12__visitation6__base12__dispatcherIJLm1EEE10__dispatchB8fe200100IONS1_9__variant15__value_visitorIZN12_GLOBAL__N_112alGetEffectiEN3gsl8not_nullIPN2al7ContextEEEjiPiE3$_0EEJRNS0_6__baseILNS0_6_TraitE0EJ17NullEffectHandler19ReverbEffectHandler22StdReverbEffectHandler20AutowahEffectHandler19ChorusEffectHandler23CompressorEffectHandler23DistortionEffectHandler17EchoEffectHandler22EqualizerEffectHandler20FlangerEffectHandler21FshifterEffectHandler22ModulatorEffectHandler21PshifterEffectHandler21VmorpherEffectHandler28DedicatedDialogEffectHandler25DedicatedLfeEffectHandler24ConvolutionEffectHandlerEEEEEEDcT_DpT0_', symObjAddr: 0x3208, symBinAddr: 0x14CF0, symSize: 0x34 }
  - { offset: 0x13FAAF, size: 0x8, addend: 0x0, symName: '__ZNSt3__116__variant_detail12__visitation6__base12__dispatcherIJLm1EEE10__dispatchB8fe200100IONS1_9__variant15__value_visitorIZN12_GLOBAL__N_112alGetEffectiEN3gsl8not_nullIPN2al7ContextEEEjiPiE3$_0EEJRNS0_6__baseILNS0_6_TraitE0EJ17NullEffectHandler19ReverbEffectHandler22StdReverbEffectHandler20AutowahEffectHandler19ChorusEffectHandler23CompressorEffectHandler23DistortionEffectHandler17EchoEffectHandler22EqualizerEffectHandler20FlangerEffectHandler21FshifterEffectHandler22ModulatorEffectHandler21PshifterEffectHandler21VmorpherEffectHandler28DedicatedDialogEffectHandler25DedicatedLfeEffectHandler24ConvolutionEffectHandlerEEEEEEDcT_DpT0_', symObjAddr: 0x3208, symBinAddr: 0x14CF0, symSize: 0x34 }
  - { offset: 0x13FAE3, size: 0x8, addend: 0x0, symName: '__ZNSt3__116__variant_detail12__visitation6__base12__dispatcherIJLm1EEE10__dispatchB8fe200100IONS1_9__variant15__value_visitorIZN12_GLOBAL__N_112alGetEffectiEN3gsl8not_nullIPN2al7ContextEEEjiPiE3$_0EEJRNS0_6__baseILNS0_6_TraitE0EJ17NullEffectHandler19ReverbEffectHandler22StdReverbEffectHandler20AutowahEffectHandler19ChorusEffectHandler23CompressorEffectHandler23DistortionEffectHandler17EchoEffectHandler22EqualizerEffectHandler20FlangerEffectHandler21FshifterEffectHandler22ModulatorEffectHandler21PshifterEffectHandler21VmorpherEffectHandler28DedicatedDialogEffectHandler25DedicatedLfeEffectHandler24ConvolutionEffectHandlerEEEEEEDcT_DpT0_', symObjAddr: 0x3208, symBinAddr: 0x14CF0, symSize: 0x34 }
  - { offset: 0x13FB01, size: 0x8, addend: 0x0, symName: '__ZNSt3__116__variant_detail12__visitation6__base12__dispatcherIJLm1EEE10__dispatchB8fe200100IONS1_9__variant15__value_visitorIZN12_GLOBAL__N_112alGetEffectiEN3gsl8not_nullIPN2al7ContextEEEjiPiE3$_0EEJRNS0_6__baseILNS0_6_TraitE0EJ17NullEffectHandler19ReverbEffectHandler22StdReverbEffectHandler20AutowahEffectHandler19ChorusEffectHandler23CompressorEffectHandler23DistortionEffectHandler17EchoEffectHandler22EqualizerEffectHandler20FlangerEffectHandler21FshifterEffectHandler22ModulatorEffectHandler21PshifterEffectHandler21VmorpherEffectHandler28DedicatedDialogEffectHandler25DedicatedLfeEffectHandler24ConvolutionEffectHandlerEEEEEEDcT_DpT0_', symObjAddr: 0x3208, symBinAddr: 0x14CF0, symSize: 0x34 }
  - { offset: 0x13FC72, size: 0x8, addend: 0x0, symName: '__ZNSt3__116__variant_detail12__visitation6__base12__dispatcherIJLm2EEE10__dispatchB8fe200100IONS1_9__variant15__value_visitorIZN12_GLOBAL__N_112alGetEffectiEN3gsl8not_nullIPN2al7ContextEEEjiPiE3$_0EEJRNS0_6__baseILNS0_6_TraitE0EJ17NullEffectHandler19ReverbEffectHandler22StdReverbEffectHandler20AutowahEffectHandler19ChorusEffectHandler23CompressorEffectHandler23DistortionEffectHandler17EchoEffectHandler22EqualizerEffectHandler20FlangerEffectHandler21FshifterEffectHandler22ModulatorEffectHandler21PshifterEffectHandler21VmorpherEffectHandler28DedicatedDialogEffectHandler25DedicatedLfeEffectHandler24ConvolutionEffectHandlerEEEEEEDcT_DpT0_', symObjAddr: 0x323C, symBinAddr: 0x14D24, symSize: 0x34 }
  - { offset: 0x13FCEF, size: 0x8, addend: 0x0, symName: '__ZNSt3__116__variant_detail12__visitation6__base12__dispatcherIJLm2EEE10__dispatchB8fe200100IONS1_9__variant15__value_visitorIZN12_GLOBAL__N_112alGetEffectiEN3gsl8not_nullIPN2al7ContextEEEjiPiE3$_0EEJRNS0_6__baseILNS0_6_TraitE0EJ17NullEffectHandler19ReverbEffectHandler22StdReverbEffectHandler20AutowahEffectHandler19ChorusEffectHandler23CompressorEffectHandler23DistortionEffectHandler17EchoEffectHandler22EqualizerEffectHandler20FlangerEffectHandler21FshifterEffectHandler22ModulatorEffectHandler21PshifterEffectHandler21VmorpherEffectHandler28DedicatedDialogEffectHandler25DedicatedLfeEffectHandler24ConvolutionEffectHandlerEEEEEEDcT_DpT0_', symObjAddr: 0x323C, symBinAddr: 0x14D24, symSize: 0x34 }
  - { offset: 0x13FD23, size: 0x8, addend: 0x0, symName: '__ZNSt3__116__variant_detail12__visitation6__base12__dispatcherIJLm2EEE10__dispatchB8fe200100IONS1_9__variant15__value_visitorIZN12_GLOBAL__N_112alGetEffectiEN3gsl8not_nullIPN2al7ContextEEEjiPiE3$_0EEJRNS0_6__baseILNS0_6_TraitE0EJ17NullEffectHandler19ReverbEffectHandler22StdReverbEffectHandler20AutowahEffectHandler19ChorusEffectHandler23CompressorEffectHandler23DistortionEffectHandler17EchoEffectHandler22EqualizerEffectHandler20FlangerEffectHandler21FshifterEffectHandler22ModulatorEffectHandler21PshifterEffectHandler21VmorpherEffectHandler28DedicatedDialogEffectHandler25DedicatedLfeEffectHandler24ConvolutionEffectHandlerEEEEEEDcT_DpT0_', symObjAddr: 0x323C, symBinAddr: 0x14D24, symSize: 0x34 }
  - { offset: 0x13FD41, size: 0x8, addend: 0x0, symName: '__ZNSt3__116__variant_detail12__visitation6__base12__dispatcherIJLm2EEE10__dispatchB8fe200100IONS1_9__variant15__value_visitorIZN12_GLOBAL__N_112alGetEffectiEN3gsl8not_nullIPN2al7ContextEEEjiPiE3$_0EEJRNS0_6__baseILNS0_6_TraitE0EJ17NullEffectHandler19ReverbEffectHandler22StdReverbEffectHandler20AutowahEffectHandler19ChorusEffectHandler23CompressorEffectHandler23DistortionEffectHandler17EchoEffectHandler22EqualizerEffectHandler20FlangerEffectHandler21FshifterEffectHandler22ModulatorEffectHandler21PshifterEffectHandler21VmorpherEffectHandler28DedicatedDialogEffectHandler25DedicatedLfeEffectHandler24ConvolutionEffectHandlerEEEEEEDcT_DpT0_', symObjAddr: 0x323C, symBinAddr: 0x14D24, symSize: 0x34 }
  - { offset: 0x13FEB2, size: 0x8, addend: 0x0, symName: '__ZNSt3__116__variant_detail12__visitation6__base12__dispatcherIJLm3EEE10__dispatchB8fe200100IONS1_9__variant15__value_visitorIZN12_GLOBAL__N_112alGetEffectiEN3gsl8not_nullIPN2al7ContextEEEjiPiE3$_0EEJRNS0_6__baseILNS0_6_TraitE0EJ17NullEffectHandler19ReverbEffectHandler22StdReverbEffectHandler20AutowahEffectHandler19ChorusEffectHandler23CompressorEffectHandler23DistortionEffectHandler17EchoEffectHandler22EqualizerEffectHandler20FlangerEffectHandler21FshifterEffectHandler22ModulatorEffectHandler21PshifterEffectHandler21VmorpherEffectHandler28DedicatedDialogEffectHandler25DedicatedLfeEffectHandler24ConvolutionEffectHandlerEEEEEEDcT_DpT0_', symObjAddr: 0x3270, symBinAddr: 0x14D58, symSize: 0x34 }
  - { offset: 0x13FF2F, size: 0x8, addend: 0x0, symName: '__ZNSt3__116__variant_detail12__visitation6__base12__dispatcherIJLm3EEE10__dispatchB8fe200100IONS1_9__variant15__value_visitorIZN12_GLOBAL__N_112alGetEffectiEN3gsl8not_nullIPN2al7ContextEEEjiPiE3$_0EEJRNS0_6__baseILNS0_6_TraitE0EJ17NullEffectHandler19ReverbEffectHandler22StdReverbEffectHandler20AutowahEffectHandler19ChorusEffectHandler23CompressorEffectHandler23DistortionEffectHandler17EchoEffectHandler22EqualizerEffectHandler20FlangerEffectHandler21FshifterEffectHandler22ModulatorEffectHandler21PshifterEffectHandler21VmorpherEffectHandler28DedicatedDialogEffectHandler25DedicatedLfeEffectHandler24ConvolutionEffectHandlerEEEEEEDcT_DpT0_', symObjAddr: 0x3270, symBinAddr: 0x14D58, symSize: 0x34 }
  - { offset: 0x13FF63, size: 0x8, addend: 0x0, symName: '__ZNSt3__116__variant_detail12__visitation6__base12__dispatcherIJLm3EEE10__dispatchB8fe200100IONS1_9__variant15__value_visitorIZN12_GLOBAL__N_112alGetEffectiEN3gsl8not_nullIPN2al7ContextEEEjiPiE3$_0EEJRNS0_6__baseILNS0_6_TraitE0EJ17NullEffectHandler19ReverbEffectHandler22StdReverbEffectHandler20AutowahEffectHandler19ChorusEffectHandler23CompressorEffectHandler23DistortionEffectHandler17EchoEffectHandler22EqualizerEffectHandler20FlangerEffectHandler21FshifterEffectHandler22ModulatorEffectHandler21PshifterEffectHandler21VmorpherEffectHandler28DedicatedDialogEffectHandler25DedicatedLfeEffectHandler24ConvolutionEffectHandlerEEEEEEDcT_DpT0_', symObjAddr: 0x3270, symBinAddr: 0x14D58, symSize: 0x34 }
  - { offset: 0x13FF81, size: 0x8, addend: 0x0, symName: '__ZNSt3__116__variant_detail12__visitation6__base12__dispatcherIJLm3EEE10__dispatchB8fe200100IONS1_9__variant15__value_visitorIZN12_GLOBAL__N_112alGetEffectiEN3gsl8not_nullIPN2al7ContextEEEjiPiE3$_0EEJRNS0_6__baseILNS0_6_TraitE0EJ17NullEffectHandler19ReverbEffectHandler22StdReverbEffectHandler20AutowahEffectHandler19ChorusEffectHandler23CompressorEffectHandler23DistortionEffectHandler17EchoEffectHandler22EqualizerEffectHandler20FlangerEffectHandler21FshifterEffectHandler22ModulatorEffectHandler21PshifterEffectHandler21VmorpherEffectHandler28DedicatedDialogEffectHandler25DedicatedLfeEffectHandler24ConvolutionEffectHandlerEEEEEEDcT_DpT0_', symObjAddr: 0x3270, symBinAddr: 0x14D58, symSize: 0x34 }
  - { offset: 0x1400F2, size: 0x8, addend: 0x0, symName: '__ZNSt3__116__variant_detail12__visitation6__base12__dispatcherIJLm4EEE10__dispatchB8fe200100IONS1_9__variant15__value_visitorIZN12_GLOBAL__N_112alGetEffectiEN3gsl8not_nullIPN2al7ContextEEEjiPiE3$_0EEJRNS0_6__baseILNS0_6_TraitE0EJ17NullEffectHandler19ReverbEffectHandler22StdReverbEffectHandler20AutowahEffectHandler19ChorusEffectHandler23CompressorEffectHandler23DistortionEffectHandler17EchoEffectHandler22EqualizerEffectHandler20FlangerEffectHandler21FshifterEffectHandler22ModulatorEffectHandler21PshifterEffectHandler21VmorpherEffectHandler28DedicatedDialogEffectHandler25DedicatedLfeEffectHandler24ConvolutionEffectHandlerEEEEEEDcT_DpT0_', symObjAddr: 0x32A4, symBinAddr: 0x14D8C, symSize: 0x34 }
  - { offset: 0x14016F, size: 0x8, addend: 0x0, symName: '__ZNSt3__116__variant_detail12__visitation6__base12__dispatcherIJLm4EEE10__dispatchB8fe200100IONS1_9__variant15__value_visitorIZN12_GLOBAL__N_112alGetEffectiEN3gsl8not_nullIPN2al7ContextEEEjiPiE3$_0EEJRNS0_6__baseILNS0_6_TraitE0EJ17NullEffectHandler19ReverbEffectHandler22StdReverbEffectHandler20AutowahEffectHandler19ChorusEffectHandler23CompressorEffectHandler23DistortionEffectHandler17EchoEffectHandler22EqualizerEffectHandler20FlangerEffectHandler21FshifterEffectHandler22ModulatorEffectHandler21PshifterEffectHandler21VmorpherEffectHandler28DedicatedDialogEffectHandler25DedicatedLfeEffectHandler24ConvolutionEffectHandlerEEEEEEDcT_DpT0_', symObjAddr: 0x32A4, symBinAddr: 0x14D8C, symSize: 0x34 }
  - { offset: 0x1401A3, size: 0x8, addend: 0x0, symName: '__ZNSt3__116__variant_detail12__visitation6__base12__dispatcherIJLm4EEE10__dispatchB8fe200100IONS1_9__variant15__value_visitorIZN12_GLOBAL__N_112alGetEffectiEN3gsl8not_nullIPN2al7ContextEEEjiPiE3$_0EEJRNS0_6__baseILNS0_6_TraitE0EJ17NullEffectHandler19ReverbEffectHandler22StdReverbEffectHandler20AutowahEffectHandler19ChorusEffectHandler23CompressorEffectHandler23DistortionEffectHandler17EchoEffectHandler22EqualizerEffectHandler20FlangerEffectHandler21FshifterEffectHandler22ModulatorEffectHandler21PshifterEffectHandler21VmorpherEffectHandler28DedicatedDialogEffectHandler25DedicatedLfeEffectHandler24ConvolutionEffectHandlerEEEEEEDcT_DpT0_', symObjAddr: 0x32A4, symBinAddr: 0x14D8C, symSize: 0x34 }
  - { offset: 0x1401C1, size: 0x8, addend: 0x0, symName: '__ZNSt3__116__variant_detail12__visitation6__base12__dispatcherIJLm4EEE10__dispatchB8fe200100IONS1_9__variant15__value_visitorIZN12_GLOBAL__N_112alGetEffectiEN3gsl8not_nullIPN2al7ContextEEEjiPiE3$_0EEJRNS0_6__baseILNS0_6_TraitE0EJ17NullEffectHandler19ReverbEffectHandler22StdReverbEffectHandler20AutowahEffectHandler19ChorusEffectHandler23CompressorEffectHandler23DistortionEffectHandler17EchoEffectHandler22EqualizerEffectHandler20FlangerEffectHandler21FshifterEffectHandler22ModulatorEffectHandler21PshifterEffectHandler21VmorpherEffectHandler28DedicatedDialogEffectHandler25DedicatedLfeEffectHandler24ConvolutionEffectHandlerEEEEEEDcT_DpT0_', symObjAddr: 0x32A4, symBinAddr: 0x14D8C, symSize: 0x34 }
  - { offset: 0x140332, size: 0x8, addend: 0x0, symName: '__ZNSt3__116__variant_detail12__visitation6__base12__dispatcherIJLm5EEE10__dispatchB8fe200100IONS1_9__variant15__value_visitorIZN12_GLOBAL__N_112alGetEffectiEN3gsl8not_nullIPN2al7ContextEEEjiPiE3$_0EEJRNS0_6__baseILNS0_6_TraitE0EJ17NullEffectHandler19ReverbEffectHandler22StdReverbEffectHandler20AutowahEffectHandler19ChorusEffectHandler23CompressorEffectHandler23DistortionEffectHandler17EchoEffectHandler22EqualizerEffectHandler20FlangerEffectHandler21FshifterEffectHandler22ModulatorEffectHandler21PshifterEffectHandler21VmorpherEffectHandler28DedicatedDialogEffectHandler25DedicatedLfeEffectHandler24ConvolutionEffectHandlerEEEEEEDcT_DpT0_', symObjAddr: 0x32D8, symBinAddr: 0x14DC0, symSize: 0x34 }
  - { offset: 0x1403AF, size: 0x8, addend: 0x0, symName: '__ZNSt3__116__variant_detail12__visitation6__base12__dispatcherIJLm5EEE10__dispatchB8fe200100IONS1_9__variant15__value_visitorIZN12_GLOBAL__N_112alGetEffectiEN3gsl8not_nullIPN2al7ContextEEEjiPiE3$_0EEJRNS0_6__baseILNS0_6_TraitE0EJ17NullEffectHandler19ReverbEffectHandler22StdReverbEffectHandler20AutowahEffectHandler19ChorusEffectHandler23CompressorEffectHandler23DistortionEffectHandler17EchoEffectHandler22EqualizerEffectHandler20FlangerEffectHandler21FshifterEffectHandler22ModulatorEffectHandler21PshifterEffectHandler21VmorpherEffectHandler28DedicatedDialogEffectHandler25DedicatedLfeEffectHandler24ConvolutionEffectHandlerEEEEEEDcT_DpT0_', symObjAddr: 0x32D8, symBinAddr: 0x14DC0, symSize: 0x34 }
  - { offset: 0x1403E3, size: 0x8, addend: 0x0, symName: '__ZNSt3__116__variant_detail12__visitation6__base12__dispatcherIJLm5EEE10__dispatchB8fe200100IONS1_9__variant15__value_visitorIZN12_GLOBAL__N_112alGetEffectiEN3gsl8not_nullIPN2al7ContextEEEjiPiE3$_0EEJRNS0_6__baseILNS0_6_TraitE0EJ17NullEffectHandler19ReverbEffectHandler22StdReverbEffectHandler20AutowahEffectHandler19ChorusEffectHandler23CompressorEffectHandler23DistortionEffectHandler17EchoEffectHandler22EqualizerEffectHandler20FlangerEffectHandler21FshifterEffectHandler22ModulatorEffectHandler21PshifterEffectHandler21VmorpherEffectHandler28DedicatedDialogEffectHandler25DedicatedLfeEffectHandler24ConvolutionEffectHandlerEEEEEEDcT_DpT0_', symObjAddr: 0x32D8, symBinAddr: 0x14DC0, symSize: 0x34 }
  - { offset: 0x140401, size: 0x8, addend: 0x0, symName: '__ZNSt3__116__variant_detail12__visitation6__base12__dispatcherIJLm5EEE10__dispatchB8fe200100IONS1_9__variant15__value_visitorIZN12_GLOBAL__N_112alGetEffectiEN3gsl8not_nullIPN2al7ContextEEEjiPiE3$_0EEJRNS0_6__baseILNS0_6_TraitE0EJ17NullEffectHandler19ReverbEffectHandler22StdReverbEffectHandler20AutowahEffectHandler19ChorusEffectHandler23CompressorEffectHandler23DistortionEffectHandler17EchoEffectHandler22EqualizerEffectHandler20FlangerEffectHandler21FshifterEffectHandler22ModulatorEffectHandler21PshifterEffectHandler21VmorpherEffectHandler28DedicatedDialogEffectHandler25DedicatedLfeEffectHandler24ConvolutionEffectHandlerEEEEEEDcT_DpT0_', symObjAddr: 0x32D8, symBinAddr: 0x14DC0, symSize: 0x34 }
  - { offset: 0x140572, size: 0x8, addend: 0x0, symName: '__ZNSt3__116__variant_detail12__visitation6__base12__dispatcherIJLm6EEE10__dispatchB8fe200100IONS1_9__variant15__value_visitorIZN12_GLOBAL__N_112alGetEffectiEN3gsl8not_nullIPN2al7ContextEEEjiPiE3$_0EEJRNS0_6__baseILNS0_6_TraitE0EJ17NullEffectHandler19ReverbEffectHandler22StdReverbEffectHandler20AutowahEffectHandler19ChorusEffectHandler23CompressorEffectHandler23DistortionEffectHandler17EchoEffectHandler22EqualizerEffectHandler20FlangerEffectHandler21FshifterEffectHandler22ModulatorEffectHandler21PshifterEffectHandler21VmorpherEffectHandler28DedicatedDialogEffectHandler25DedicatedLfeEffectHandler24ConvolutionEffectHandlerEEEEEEDcT_DpT0_', symObjAddr: 0x330C, symBinAddr: 0x14DF4, symSize: 0x34 }
  - { offset: 0x1405EF, size: 0x8, addend: 0x0, symName: '__ZNSt3__116__variant_detail12__visitation6__base12__dispatcherIJLm6EEE10__dispatchB8fe200100IONS1_9__variant15__value_visitorIZN12_GLOBAL__N_112alGetEffectiEN3gsl8not_nullIPN2al7ContextEEEjiPiE3$_0EEJRNS0_6__baseILNS0_6_TraitE0EJ17NullEffectHandler19ReverbEffectHandler22StdReverbEffectHandler20AutowahEffectHandler19ChorusEffectHandler23CompressorEffectHandler23DistortionEffectHandler17EchoEffectHandler22EqualizerEffectHandler20FlangerEffectHandler21FshifterEffectHandler22ModulatorEffectHandler21PshifterEffectHandler21VmorpherEffectHandler28DedicatedDialogEffectHandler25DedicatedLfeEffectHandler24ConvolutionEffectHandlerEEEEEEDcT_DpT0_', symObjAddr: 0x330C, symBinAddr: 0x14DF4, symSize: 0x34 }
  - { offset: 0x140623, size: 0x8, addend: 0x0, symName: '__ZNSt3__116__variant_detail12__visitation6__base12__dispatcherIJLm6EEE10__dispatchB8fe200100IONS1_9__variant15__value_visitorIZN12_GLOBAL__N_112alGetEffectiEN3gsl8not_nullIPN2al7ContextEEEjiPiE3$_0EEJRNS0_6__baseILNS0_6_TraitE0EJ17NullEffectHandler19ReverbEffectHandler22StdReverbEffectHandler20AutowahEffectHandler19ChorusEffectHandler23CompressorEffectHandler23DistortionEffectHandler17EchoEffectHandler22EqualizerEffectHandler20FlangerEffectHandler21FshifterEffectHandler22ModulatorEffectHandler21PshifterEffectHandler21VmorpherEffectHandler28DedicatedDialogEffectHandler25DedicatedLfeEffectHandler24ConvolutionEffectHandlerEEEEEEDcT_DpT0_', symObjAddr: 0x330C, symBinAddr: 0x14DF4, symSize: 0x34 }
  - { offset: 0x140641, size: 0x8, addend: 0x0, symName: '__ZNSt3__116__variant_detail12__visitation6__base12__dispatcherIJLm6EEE10__dispatchB8fe200100IONS1_9__variant15__value_visitorIZN12_GLOBAL__N_112alGetEffectiEN3gsl8not_nullIPN2al7ContextEEEjiPiE3$_0EEJRNS0_6__baseILNS0_6_TraitE0EJ17NullEffectHandler19ReverbEffectHandler22StdReverbEffectHandler20AutowahEffectHandler19ChorusEffectHandler23CompressorEffectHandler23DistortionEffectHandler17EchoEffectHandler22EqualizerEffectHandler20FlangerEffectHandler21FshifterEffectHandler22ModulatorEffectHandler21PshifterEffectHandler21VmorpherEffectHandler28DedicatedDialogEffectHandler25DedicatedLfeEffectHandler24ConvolutionEffectHandlerEEEEEEDcT_DpT0_', symObjAddr: 0x330C, symBinAddr: 0x14DF4, symSize: 0x34 }
  - { offset: 0x1407B2, size: 0x8, addend: 0x0, symName: '__ZNSt3__116__variant_detail12__visitation6__base12__dispatcherIJLm7EEE10__dispatchB8fe200100IONS1_9__variant15__value_visitorIZN12_GLOBAL__N_112alGetEffectiEN3gsl8not_nullIPN2al7ContextEEEjiPiE3$_0EEJRNS0_6__baseILNS0_6_TraitE0EJ17NullEffectHandler19ReverbEffectHandler22StdReverbEffectHandler20AutowahEffectHandler19ChorusEffectHandler23CompressorEffectHandler23DistortionEffectHandler17EchoEffectHandler22EqualizerEffectHandler20FlangerEffectHandler21FshifterEffectHandler22ModulatorEffectHandler21PshifterEffectHandler21VmorpherEffectHandler28DedicatedDialogEffectHandler25DedicatedLfeEffectHandler24ConvolutionEffectHandlerEEEEEEDcT_DpT0_', symObjAddr: 0x3340, symBinAddr: 0x14E28, symSize: 0x34 }
  - { offset: 0x14082F, size: 0x8, addend: 0x0, symName: '__ZNSt3__116__variant_detail12__visitation6__base12__dispatcherIJLm7EEE10__dispatchB8fe200100IONS1_9__variant15__value_visitorIZN12_GLOBAL__N_112alGetEffectiEN3gsl8not_nullIPN2al7ContextEEEjiPiE3$_0EEJRNS0_6__baseILNS0_6_TraitE0EJ17NullEffectHandler19ReverbEffectHandler22StdReverbEffectHandler20AutowahEffectHandler19ChorusEffectHandler23CompressorEffectHandler23DistortionEffectHandler17EchoEffectHandler22EqualizerEffectHandler20FlangerEffectHandler21FshifterEffectHandler22ModulatorEffectHandler21PshifterEffectHandler21VmorpherEffectHandler28DedicatedDialogEffectHandler25DedicatedLfeEffectHandler24ConvolutionEffectHandlerEEEEEEDcT_DpT0_', symObjAddr: 0x3340, symBinAddr: 0x14E28, symSize: 0x34 }
  - { offset: 0x140863, size: 0x8, addend: 0x0, symName: '__ZNSt3__116__variant_detail12__visitation6__base12__dispatcherIJLm7EEE10__dispatchB8fe200100IONS1_9__variant15__value_visitorIZN12_GLOBAL__N_112alGetEffectiEN3gsl8not_nullIPN2al7ContextEEEjiPiE3$_0EEJRNS0_6__baseILNS0_6_TraitE0EJ17NullEffectHandler19ReverbEffectHandler22StdReverbEffectHandler20AutowahEffectHandler19ChorusEffectHandler23CompressorEffectHandler23DistortionEffectHandler17EchoEffectHandler22EqualizerEffectHandler20FlangerEffectHandler21FshifterEffectHandler22ModulatorEffectHandler21PshifterEffectHandler21VmorpherEffectHandler28DedicatedDialogEffectHandler25DedicatedLfeEffectHandler24ConvolutionEffectHandlerEEEEEEDcT_DpT0_', symObjAddr: 0x3340, symBinAddr: 0x14E28, symSize: 0x34 }
  - { offset: 0x140881, size: 0x8, addend: 0x0, symName: '__ZNSt3__116__variant_detail12__visitation6__base12__dispatcherIJLm7EEE10__dispatchB8fe200100IONS1_9__variant15__value_visitorIZN12_GLOBAL__N_112alGetEffectiEN3gsl8not_nullIPN2al7ContextEEEjiPiE3$_0EEJRNS0_6__baseILNS0_6_TraitE0EJ17NullEffectHandler19ReverbEffectHandler22StdReverbEffectHandler20AutowahEffectHandler19ChorusEffectHandler23CompressorEffectHandler23DistortionEffectHandler17EchoEffectHandler22EqualizerEffectHandler20FlangerEffectHandler21FshifterEffectHandler22ModulatorEffectHandler21PshifterEffectHandler21VmorpherEffectHandler28DedicatedDialogEffectHandler25DedicatedLfeEffectHandler24ConvolutionEffectHandlerEEEEEEDcT_DpT0_', symObjAddr: 0x3340, symBinAddr: 0x14E28, symSize: 0x34 }
  - { offset: 0x1409F2, size: 0x8, addend: 0x0, symName: '__ZNSt3__116__variant_detail12__visitation6__base12__dispatcherIJLm8EEE10__dispatchB8fe200100IONS1_9__variant15__value_visitorIZN12_GLOBAL__N_112alGetEffectiEN3gsl8not_nullIPN2al7ContextEEEjiPiE3$_0EEJRNS0_6__baseILNS0_6_TraitE0EJ17NullEffectHandler19ReverbEffectHandler22StdReverbEffectHandler20AutowahEffectHandler19ChorusEffectHandler23CompressorEffectHandler23DistortionEffectHandler17EchoEffectHandler22EqualizerEffectHandler20FlangerEffectHandler21FshifterEffectHandler22ModulatorEffectHandler21PshifterEffectHandler21VmorpherEffectHandler28DedicatedDialogEffectHandler25DedicatedLfeEffectHandler24ConvolutionEffectHandlerEEEEEEDcT_DpT0_', symObjAddr: 0x3374, symBinAddr: 0x14E5C, symSize: 0x34 }
  - { offset: 0x140A6F, size: 0x8, addend: 0x0, symName: '__ZNSt3__116__variant_detail12__visitation6__base12__dispatcherIJLm8EEE10__dispatchB8fe200100IONS1_9__variant15__value_visitorIZN12_GLOBAL__N_112alGetEffectiEN3gsl8not_nullIPN2al7ContextEEEjiPiE3$_0EEJRNS0_6__baseILNS0_6_TraitE0EJ17NullEffectHandler19ReverbEffectHandler22StdReverbEffectHandler20AutowahEffectHandler19ChorusEffectHandler23CompressorEffectHandler23DistortionEffectHandler17EchoEffectHandler22EqualizerEffectHandler20FlangerEffectHandler21FshifterEffectHandler22ModulatorEffectHandler21PshifterEffectHandler21VmorpherEffectHandler28DedicatedDialogEffectHandler25DedicatedLfeEffectHandler24ConvolutionEffectHandlerEEEEEEDcT_DpT0_', symObjAddr: 0x3374, symBinAddr: 0x14E5C, symSize: 0x34 }
  - { offset: 0x140AA3, size: 0x8, addend: 0x0, symName: '__ZNSt3__116__variant_detail12__visitation6__base12__dispatcherIJLm8EEE10__dispatchB8fe200100IONS1_9__variant15__value_visitorIZN12_GLOBAL__N_112alGetEffectiEN3gsl8not_nullIPN2al7ContextEEEjiPiE3$_0EEJRNS0_6__baseILNS0_6_TraitE0EJ17NullEffectHandler19ReverbEffectHandler22StdReverbEffectHandler20AutowahEffectHandler19ChorusEffectHandler23CompressorEffectHandler23DistortionEffectHandler17EchoEffectHandler22EqualizerEffectHandler20FlangerEffectHandler21FshifterEffectHandler22ModulatorEffectHandler21PshifterEffectHandler21VmorpherEffectHandler28DedicatedDialogEffectHandler25DedicatedLfeEffectHandler24ConvolutionEffectHandlerEEEEEEDcT_DpT0_', symObjAddr: 0x3374, symBinAddr: 0x14E5C, symSize: 0x34 }
  - { offset: 0x140AC1, size: 0x8, addend: 0x0, symName: '__ZNSt3__116__variant_detail12__visitation6__base12__dispatcherIJLm8EEE10__dispatchB8fe200100IONS1_9__variant15__value_visitorIZN12_GLOBAL__N_112alGetEffectiEN3gsl8not_nullIPN2al7ContextEEEjiPiE3$_0EEJRNS0_6__baseILNS0_6_TraitE0EJ17NullEffectHandler19ReverbEffectHandler22StdReverbEffectHandler20AutowahEffectHandler19ChorusEffectHandler23CompressorEffectHandler23DistortionEffectHandler17EchoEffectHandler22EqualizerEffectHandler20FlangerEffectHandler21FshifterEffectHandler22ModulatorEffectHandler21PshifterEffectHandler21VmorpherEffectHandler28DedicatedDialogEffectHandler25DedicatedLfeEffectHandler24ConvolutionEffectHandlerEEEEEEDcT_DpT0_', symObjAddr: 0x3374, symBinAddr: 0x14E5C, symSize: 0x34 }
  - { offset: 0x140C32, size: 0x8, addend: 0x0, symName: '__ZNSt3__116__variant_detail12__visitation6__base12__dispatcherIJLm9EEE10__dispatchB8fe200100IONS1_9__variant15__value_visitorIZN12_GLOBAL__N_112alGetEffectiEN3gsl8not_nullIPN2al7ContextEEEjiPiE3$_0EEJRNS0_6__baseILNS0_6_TraitE0EJ17NullEffectHandler19ReverbEffectHandler22StdReverbEffectHandler20AutowahEffectHandler19ChorusEffectHandler23CompressorEffectHandler23DistortionEffectHandler17EchoEffectHandler22EqualizerEffectHandler20FlangerEffectHandler21FshifterEffectHandler22ModulatorEffectHandler21PshifterEffectHandler21VmorpherEffectHandler28DedicatedDialogEffectHandler25DedicatedLfeEffectHandler24ConvolutionEffectHandlerEEEEEEDcT_DpT0_', symObjAddr: 0x33A8, symBinAddr: 0x14E90, symSize: 0x34 }
  - { offset: 0x140CAF, size: 0x8, addend: 0x0, symName: '__ZNSt3__116__variant_detail12__visitation6__base12__dispatcherIJLm9EEE10__dispatchB8fe200100IONS1_9__variant15__value_visitorIZN12_GLOBAL__N_112alGetEffectiEN3gsl8not_nullIPN2al7ContextEEEjiPiE3$_0EEJRNS0_6__baseILNS0_6_TraitE0EJ17NullEffectHandler19ReverbEffectHandler22StdReverbEffectHandler20AutowahEffectHandler19ChorusEffectHandler23CompressorEffectHandler23DistortionEffectHandler17EchoEffectHandler22EqualizerEffectHandler20FlangerEffectHandler21FshifterEffectHandler22ModulatorEffectHandler21PshifterEffectHandler21VmorpherEffectHandler28DedicatedDialogEffectHandler25DedicatedLfeEffectHandler24ConvolutionEffectHandlerEEEEEEDcT_DpT0_', symObjAddr: 0x33A8, symBinAddr: 0x14E90, symSize: 0x34 }
  - { offset: 0x140CE3, size: 0x8, addend: 0x0, symName: '__ZNSt3__116__variant_detail12__visitation6__base12__dispatcherIJLm9EEE10__dispatchB8fe200100IONS1_9__variant15__value_visitorIZN12_GLOBAL__N_112alGetEffectiEN3gsl8not_nullIPN2al7ContextEEEjiPiE3$_0EEJRNS0_6__baseILNS0_6_TraitE0EJ17NullEffectHandler19ReverbEffectHandler22StdReverbEffectHandler20AutowahEffectHandler19ChorusEffectHandler23CompressorEffectHandler23DistortionEffectHandler17EchoEffectHandler22EqualizerEffectHandler20FlangerEffectHandler21FshifterEffectHandler22ModulatorEffectHandler21PshifterEffectHandler21VmorpherEffectHandler28DedicatedDialogEffectHandler25DedicatedLfeEffectHandler24ConvolutionEffectHandlerEEEEEEDcT_DpT0_', symObjAddr: 0x33A8, symBinAddr: 0x14E90, symSize: 0x34 }
  - { offset: 0x140D01, size: 0x8, addend: 0x0, symName: '__ZNSt3__116__variant_detail12__visitation6__base12__dispatcherIJLm9EEE10__dispatchB8fe200100IONS1_9__variant15__value_visitorIZN12_GLOBAL__N_112alGetEffectiEN3gsl8not_nullIPN2al7ContextEEEjiPiE3$_0EEJRNS0_6__baseILNS0_6_TraitE0EJ17NullEffectHandler19ReverbEffectHandler22StdReverbEffectHandler20AutowahEffectHandler19ChorusEffectHandler23CompressorEffectHandler23DistortionEffectHandler17EchoEffectHandler22EqualizerEffectHandler20FlangerEffectHandler21FshifterEffectHandler22ModulatorEffectHandler21PshifterEffectHandler21VmorpherEffectHandler28DedicatedDialogEffectHandler25DedicatedLfeEffectHandler24ConvolutionEffectHandlerEEEEEEDcT_DpT0_', symObjAddr: 0x33A8, symBinAddr: 0x14E90, symSize: 0x34 }
  - { offset: 0x140E72, size: 0x8, addend: 0x0, symName: '__ZNSt3__116__variant_detail12__visitation6__base12__dispatcherIJLm10EEE10__dispatchB8fe200100IONS1_9__variant15__value_visitorIZN12_GLOBAL__N_112alGetEffectiEN3gsl8not_nullIPN2al7ContextEEEjiPiE3$_0EEJRNS0_6__baseILNS0_6_TraitE0EJ17NullEffectHandler19ReverbEffectHandler22StdReverbEffectHandler20AutowahEffectHandler19ChorusEffectHandler23CompressorEffectHandler23DistortionEffectHandler17EchoEffectHandler22EqualizerEffectHandler20FlangerEffectHandler21FshifterEffectHandler22ModulatorEffectHandler21PshifterEffectHandler21VmorpherEffectHandler28DedicatedDialogEffectHandler25DedicatedLfeEffectHandler24ConvolutionEffectHandlerEEEEEEDcT_DpT0_', symObjAddr: 0x33DC, symBinAddr: 0x14EC4, symSize: 0x34 }
  - { offset: 0x140EEF, size: 0x8, addend: 0x0, symName: '__ZNSt3__116__variant_detail12__visitation6__base12__dispatcherIJLm10EEE10__dispatchB8fe200100IONS1_9__variant15__value_visitorIZN12_GLOBAL__N_112alGetEffectiEN3gsl8not_nullIPN2al7ContextEEEjiPiE3$_0EEJRNS0_6__baseILNS0_6_TraitE0EJ17NullEffectHandler19ReverbEffectHandler22StdReverbEffectHandler20AutowahEffectHandler19ChorusEffectHandler23CompressorEffectHandler23DistortionEffectHandler17EchoEffectHandler22EqualizerEffectHandler20FlangerEffectHandler21FshifterEffectHandler22ModulatorEffectHandler21PshifterEffectHandler21VmorpherEffectHandler28DedicatedDialogEffectHandler25DedicatedLfeEffectHandler24ConvolutionEffectHandlerEEEEEEDcT_DpT0_', symObjAddr: 0x33DC, symBinAddr: 0x14EC4, symSize: 0x34 }
  - { offset: 0x140F23, size: 0x8, addend: 0x0, symName: '__ZNSt3__116__variant_detail12__visitation6__base12__dispatcherIJLm10EEE10__dispatchB8fe200100IONS1_9__variant15__value_visitorIZN12_GLOBAL__N_112alGetEffectiEN3gsl8not_nullIPN2al7ContextEEEjiPiE3$_0EEJRNS0_6__baseILNS0_6_TraitE0EJ17NullEffectHandler19ReverbEffectHandler22StdReverbEffectHandler20AutowahEffectHandler19ChorusEffectHandler23CompressorEffectHandler23DistortionEffectHandler17EchoEffectHandler22EqualizerEffectHandler20FlangerEffectHandler21FshifterEffectHandler22ModulatorEffectHandler21PshifterEffectHandler21VmorpherEffectHandler28DedicatedDialogEffectHandler25DedicatedLfeEffectHandler24ConvolutionEffectHandlerEEEEEEDcT_DpT0_', symObjAddr: 0x33DC, symBinAddr: 0x14EC4, symSize: 0x34 }
  - { offset: 0x140F41, size: 0x8, addend: 0x0, symName: '__ZNSt3__116__variant_detail12__visitation6__base12__dispatcherIJLm10EEE10__dispatchB8fe200100IONS1_9__variant15__value_visitorIZN12_GLOBAL__N_112alGetEffectiEN3gsl8not_nullIPN2al7ContextEEEjiPiE3$_0EEJRNS0_6__baseILNS0_6_TraitE0EJ17NullEffectHandler19ReverbEffectHandler22StdReverbEffectHandler20AutowahEffectHandler19ChorusEffectHandler23CompressorEffectHandler23DistortionEffectHandler17EchoEffectHandler22EqualizerEffectHandler20FlangerEffectHandler21FshifterEffectHandler22ModulatorEffectHandler21PshifterEffectHandler21VmorpherEffectHandler28DedicatedDialogEffectHandler25DedicatedLfeEffectHandler24ConvolutionEffectHandlerEEEEEEDcT_DpT0_', symObjAddr: 0x33DC, symBinAddr: 0x14EC4, symSize: 0x34 }
  - { offset: 0x1410B2, size: 0x8, addend: 0x0, symName: '__ZNSt3__116__variant_detail12__visitation6__base12__dispatcherIJLm11EEE10__dispatchB8fe200100IONS1_9__variant15__value_visitorIZN12_GLOBAL__N_112alGetEffectiEN3gsl8not_nullIPN2al7ContextEEEjiPiE3$_0EEJRNS0_6__baseILNS0_6_TraitE0EJ17NullEffectHandler19ReverbEffectHandler22StdReverbEffectHandler20AutowahEffectHandler19ChorusEffectHandler23CompressorEffectHandler23DistortionEffectHandler17EchoEffectHandler22EqualizerEffectHandler20FlangerEffectHandler21FshifterEffectHandler22ModulatorEffectHandler21PshifterEffectHandler21VmorpherEffectHandler28DedicatedDialogEffectHandler25DedicatedLfeEffectHandler24ConvolutionEffectHandlerEEEEEEDcT_DpT0_', symObjAddr: 0x3410, symBinAddr: 0x14EF8, symSize: 0x34 }
  - { offset: 0x14112F, size: 0x8, addend: 0x0, symName: '__ZNSt3__116__variant_detail12__visitation6__base12__dispatcherIJLm11EEE10__dispatchB8fe200100IONS1_9__variant15__value_visitorIZN12_GLOBAL__N_112alGetEffectiEN3gsl8not_nullIPN2al7ContextEEEjiPiE3$_0EEJRNS0_6__baseILNS0_6_TraitE0EJ17NullEffectHandler19ReverbEffectHandler22StdReverbEffectHandler20AutowahEffectHandler19ChorusEffectHandler23CompressorEffectHandler23DistortionEffectHandler17EchoEffectHandler22EqualizerEffectHandler20FlangerEffectHandler21FshifterEffectHandler22ModulatorEffectHandler21PshifterEffectHandler21VmorpherEffectHandler28DedicatedDialogEffectHandler25DedicatedLfeEffectHandler24ConvolutionEffectHandlerEEEEEEDcT_DpT0_', symObjAddr: 0x3410, symBinAddr: 0x14EF8, symSize: 0x34 }
  - { offset: 0x141163, size: 0x8, addend: 0x0, symName: '__ZNSt3__116__variant_detail12__visitation6__base12__dispatcherIJLm11EEE10__dispatchB8fe200100IONS1_9__variant15__value_visitorIZN12_GLOBAL__N_112alGetEffectiEN3gsl8not_nullIPN2al7ContextEEEjiPiE3$_0EEJRNS0_6__baseILNS0_6_TraitE0EJ17NullEffectHandler19ReverbEffectHandler22StdReverbEffectHandler20AutowahEffectHandler19ChorusEffectHandler23CompressorEffectHandler23DistortionEffectHandler17EchoEffectHandler22EqualizerEffectHandler20FlangerEffectHandler21FshifterEffectHandler22ModulatorEffectHandler21PshifterEffectHandler21VmorpherEffectHandler28DedicatedDialogEffectHandler25DedicatedLfeEffectHandler24ConvolutionEffectHandlerEEEEEEDcT_DpT0_', symObjAddr: 0x3410, symBinAddr: 0x14EF8, symSize: 0x34 }
  - { offset: 0x141181, size: 0x8, addend: 0x0, symName: '__ZNSt3__116__variant_detail12__visitation6__base12__dispatcherIJLm11EEE10__dispatchB8fe200100IONS1_9__variant15__value_visitorIZN12_GLOBAL__N_112alGetEffectiEN3gsl8not_nullIPN2al7ContextEEEjiPiE3$_0EEJRNS0_6__baseILNS0_6_TraitE0EJ17NullEffectHandler19ReverbEffectHandler22StdReverbEffectHandler20AutowahEffectHandler19ChorusEffectHandler23CompressorEffectHandler23DistortionEffectHandler17EchoEffectHandler22EqualizerEffectHandler20FlangerEffectHandler21FshifterEffectHandler22ModulatorEffectHandler21PshifterEffectHandler21VmorpherEffectHandler28DedicatedDialogEffectHandler25DedicatedLfeEffectHandler24ConvolutionEffectHandlerEEEEEEDcT_DpT0_', symObjAddr: 0x3410, symBinAddr: 0x14EF8, symSize: 0x34 }
  - { offset: 0x1412F2, size: 0x8, addend: 0x0, symName: '__ZNSt3__116__variant_detail12__visitation6__base12__dispatcherIJLm12EEE10__dispatchB8fe200100IONS1_9__variant15__value_visitorIZN12_GLOBAL__N_112alGetEffectiEN3gsl8not_nullIPN2al7ContextEEEjiPiE3$_0EEJRNS0_6__baseILNS0_6_TraitE0EJ17NullEffectHandler19ReverbEffectHandler22StdReverbEffectHandler20AutowahEffectHandler19ChorusEffectHandler23CompressorEffectHandler23DistortionEffectHandler17EchoEffectHandler22EqualizerEffectHandler20FlangerEffectHandler21FshifterEffectHandler22ModulatorEffectHandler21PshifterEffectHandler21VmorpherEffectHandler28DedicatedDialogEffectHandler25DedicatedLfeEffectHandler24ConvolutionEffectHandlerEEEEEEDcT_DpT0_', symObjAddr: 0x3444, symBinAddr: 0x14F2C, symSize: 0x34 }
  - { offset: 0x14136F, size: 0x8, addend: 0x0, symName: '__ZNSt3__116__variant_detail12__visitation6__base12__dispatcherIJLm12EEE10__dispatchB8fe200100IONS1_9__variant15__value_visitorIZN12_GLOBAL__N_112alGetEffectiEN3gsl8not_nullIPN2al7ContextEEEjiPiE3$_0EEJRNS0_6__baseILNS0_6_TraitE0EJ17NullEffectHandler19ReverbEffectHandler22StdReverbEffectHandler20AutowahEffectHandler19ChorusEffectHandler23CompressorEffectHandler23DistortionEffectHandler17EchoEffectHandler22EqualizerEffectHandler20FlangerEffectHandler21FshifterEffectHandler22ModulatorEffectHandler21PshifterEffectHandler21VmorpherEffectHandler28DedicatedDialogEffectHandler25DedicatedLfeEffectHandler24ConvolutionEffectHandlerEEEEEEDcT_DpT0_', symObjAddr: 0x3444, symBinAddr: 0x14F2C, symSize: 0x34 }
  - { offset: 0x1413A3, size: 0x8, addend: 0x0, symName: '__ZNSt3__116__variant_detail12__visitation6__base12__dispatcherIJLm12EEE10__dispatchB8fe200100IONS1_9__variant15__value_visitorIZN12_GLOBAL__N_112alGetEffectiEN3gsl8not_nullIPN2al7ContextEEEjiPiE3$_0EEJRNS0_6__baseILNS0_6_TraitE0EJ17NullEffectHandler19ReverbEffectHandler22StdReverbEffectHandler20AutowahEffectHandler19ChorusEffectHandler23CompressorEffectHandler23DistortionEffectHandler17EchoEffectHandler22EqualizerEffectHandler20FlangerEffectHandler21FshifterEffectHandler22ModulatorEffectHandler21PshifterEffectHandler21VmorpherEffectHandler28DedicatedDialogEffectHandler25DedicatedLfeEffectHandler24ConvolutionEffectHandlerEEEEEEDcT_DpT0_', symObjAddr: 0x3444, symBinAddr: 0x14F2C, symSize: 0x34 }
  - { offset: 0x1413C1, size: 0x8, addend: 0x0, symName: '__ZNSt3__116__variant_detail12__visitation6__base12__dispatcherIJLm12EEE10__dispatchB8fe200100IONS1_9__variant15__value_visitorIZN12_GLOBAL__N_112alGetEffectiEN3gsl8not_nullIPN2al7ContextEEEjiPiE3$_0EEJRNS0_6__baseILNS0_6_TraitE0EJ17NullEffectHandler19ReverbEffectHandler22StdReverbEffectHandler20AutowahEffectHandler19ChorusEffectHandler23CompressorEffectHandler23DistortionEffectHandler17EchoEffectHandler22EqualizerEffectHandler20FlangerEffectHandler21FshifterEffectHandler22ModulatorEffectHandler21PshifterEffectHandler21VmorpherEffectHandler28DedicatedDialogEffectHandler25DedicatedLfeEffectHandler24ConvolutionEffectHandlerEEEEEEDcT_DpT0_', symObjAddr: 0x3444, symBinAddr: 0x14F2C, symSize: 0x34 }
  - { offset: 0x141532, size: 0x8, addend: 0x0, symName: '__ZNSt3__116__variant_detail12__visitation6__base12__dispatcherIJLm13EEE10__dispatchB8fe200100IONS1_9__variant15__value_visitorIZN12_GLOBAL__N_112alGetEffectiEN3gsl8not_nullIPN2al7ContextEEEjiPiE3$_0EEJRNS0_6__baseILNS0_6_TraitE0EJ17NullEffectHandler19ReverbEffectHandler22StdReverbEffectHandler20AutowahEffectHandler19ChorusEffectHandler23CompressorEffectHandler23DistortionEffectHandler17EchoEffectHandler22EqualizerEffectHandler20FlangerEffectHandler21FshifterEffectHandler22ModulatorEffectHandler21PshifterEffectHandler21VmorpherEffectHandler28DedicatedDialogEffectHandler25DedicatedLfeEffectHandler24ConvolutionEffectHandlerEEEEEEDcT_DpT0_', symObjAddr: 0x3478, symBinAddr: 0x14F60, symSize: 0x34 }
  - { offset: 0x1415AF, size: 0x8, addend: 0x0, symName: '__ZNSt3__116__variant_detail12__visitation6__base12__dispatcherIJLm13EEE10__dispatchB8fe200100IONS1_9__variant15__value_visitorIZN12_GLOBAL__N_112alGetEffectiEN3gsl8not_nullIPN2al7ContextEEEjiPiE3$_0EEJRNS0_6__baseILNS0_6_TraitE0EJ17NullEffectHandler19ReverbEffectHandler22StdReverbEffectHandler20AutowahEffectHandler19ChorusEffectHandler23CompressorEffectHandler23DistortionEffectHandler17EchoEffectHandler22EqualizerEffectHandler20FlangerEffectHandler21FshifterEffectHandler22ModulatorEffectHandler21PshifterEffectHandler21VmorpherEffectHandler28DedicatedDialogEffectHandler25DedicatedLfeEffectHandler24ConvolutionEffectHandlerEEEEEEDcT_DpT0_', symObjAddr: 0x3478, symBinAddr: 0x14F60, symSize: 0x34 }
  - { offset: 0x1415E3, size: 0x8, addend: 0x0, symName: '__ZNSt3__116__variant_detail12__visitation6__base12__dispatcherIJLm13EEE10__dispatchB8fe200100IONS1_9__variant15__value_visitorIZN12_GLOBAL__N_112alGetEffectiEN3gsl8not_nullIPN2al7ContextEEEjiPiE3$_0EEJRNS0_6__baseILNS0_6_TraitE0EJ17NullEffectHandler19ReverbEffectHandler22StdReverbEffectHandler20AutowahEffectHandler19ChorusEffectHandler23CompressorEffectHandler23DistortionEffectHandler17EchoEffectHandler22EqualizerEffectHandler20FlangerEffectHandler21FshifterEffectHandler22ModulatorEffectHandler21PshifterEffectHandler21VmorpherEffectHandler28DedicatedDialogEffectHandler25DedicatedLfeEffectHandler24ConvolutionEffectHandlerEEEEEEDcT_DpT0_', symObjAddr: 0x3478, symBinAddr: 0x14F60, symSize: 0x34 }
  - { offset: 0x141601, size: 0x8, addend: 0x0, symName: '__ZNSt3__116__variant_detail12__visitation6__base12__dispatcherIJLm13EEE10__dispatchB8fe200100IONS1_9__variant15__value_visitorIZN12_GLOBAL__N_112alGetEffectiEN3gsl8not_nullIPN2al7ContextEEEjiPiE3$_0EEJRNS0_6__baseILNS0_6_TraitE0EJ17NullEffectHandler19ReverbEffectHandler22StdReverbEffectHandler20AutowahEffectHandler19ChorusEffectHandler23CompressorEffectHandler23DistortionEffectHandler17EchoEffectHandler22EqualizerEffectHandler20FlangerEffectHandler21FshifterEffectHandler22ModulatorEffectHandler21PshifterEffectHandler21VmorpherEffectHandler28DedicatedDialogEffectHandler25DedicatedLfeEffectHandler24ConvolutionEffectHandlerEEEEEEDcT_DpT0_', symObjAddr: 0x3478, symBinAddr: 0x14F60, symSize: 0x34 }
  - { offset: 0x141772, size: 0x8, addend: 0x0, symName: '__ZNSt3__116__variant_detail12__visitation6__base12__dispatcherIJLm14EEE10__dispatchB8fe200100IONS1_9__variant15__value_visitorIZN12_GLOBAL__N_112alGetEffectiEN3gsl8not_nullIPN2al7ContextEEEjiPiE3$_0EEJRNS0_6__baseILNS0_6_TraitE0EJ17NullEffectHandler19ReverbEffectHandler22StdReverbEffectHandler20AutowahEffectHandler19ChorusEffectHandler23CompressorEffectHandler23DistortionEffectHandler17EchoEffectHandler22EqualizerEffectHandler20FlangerEffectHandler21FshifterEffectHandler22ModulatorEffectHandler21PshifterEffectHandler21VmorpherEffectHandler28DedicatedDialogEffectHandler25DedicatedLfeEffectHandler24ConvolutionEffectHandlerEEEEEEDcT_DpT0_', symObjAddr: 0x34AC, symBinAddr: 0x14F94, symSize: 0x34 }
  - { offset: 0x1417EF, size: 0x8, addend: 0x0, symName: '__ZNSt3__116__variant_detail12__visitation6__base12__dispatcherIJLm14EEE10__dispatchB8fe200100IONS1_9__variant15__value_visitorIZN12_GLOBAL__N_112alGetEffectiEN3gsl8not_nullIPN2al7ContextEEEjiPiE3$_0EEJRNS0_6__baseILNS0_6_TraitE0EJ17NullEffectHandler19ReverbEffectHandler22StdReverbEffectHandler20AutowahEffectHandler19ChorusEffectHandler23CompressorEffectHandler23DistortionEffectHandler17EchoEffectHandler22EqualizerEffectHandler20FlangerEffectHandler21FshifterEffectHandler22ModulatorEffectHandler21PshifterEffectHandler21VmorpherEffectHandler28DedicatedDialogEffectHandler25DedicatedLfeEffectHandler24ConvolutionEffectHandlerEEEEEEDcT_DpT0_', symObjAddr: 0x34AC, symBinAddr: 0x14F94, symSize: 0x34 }
  - { offset: 0x141823, size: 0x8, addend: 0x0, symName: '__ZNSt3__116__variant_detail12__visitation6__base12__dispatcherIJLm14EEE10__dispatchB8fe200100IONS1_9__variant15__value_visitorIZN12_GLOBAL__N_112alGetEffectiEN3gsl8not_nullIPN2al7ContextEEEjiPiE3$_0EEJRNS0_6__baseILNS0_6_TraitE0EJ17NullEffectHandler19ReverbEffectHandler22StdReverbEffectHandler20AutowahEffectHandler19ChorusEffectHandler23CompressorEffectHandler23DistortionEffectHandler17EchoEffectHandler22EqualizerEffectHandler20FlangerEffectHandler21FshifterEffectHandler22ModulatorEffectHandler21PshifterEffectHandler21VmorpherEffectHandler28DedicatedDialogEffectHandler25DedicatedLfeEffectHandler24ConvolutionEffectHandlerEEEEEEDcT_DpT0_', symObjAddr: 0x34AC, symBinAddr: 0x14F94, symSize: 0x34 }
  - { offset: 0x141841, size: 0x8, addend: 0x0, symName: '__ZNSt3__116__variant_detail12__visitation6__base12__dispatcherIJLm14EEE10__dispatchB8fe200100IONS1_9__variant15__value_visitorIZN12_GLOBAL__N_112alGetEffectiEN3gsl8not_nullIPN2al7ContextEEEjiPiE3$_0EEJRNS0_6__baseILNS0_6_TraitE0EJ17NullEffectHandler19ReverbEffectHandler22StdReverbEffectHandler20AutowahEffectHandler19ChorusEffectHandler23CompressorEffectHandler23DistortionEffectHandler17EchoEffectHandler22EqualizerEffectHandler20FlangerEffectHandler21FshifterEffectHandler22ModulatorEffectHandler21PshifterEffectHandler21VmorpherEffectHandler28DedicatedDialogEffectHandler25DedicatedLfeEffectHandler24ConvolutionEffectHandlerEEEEEEDcT_DpT0_', symObjAddr: 0x34AC, symBinAddr: 0x14F94, symSize: 0x34 }
  - { offset: 0x1419B2, size: 0x8, addend: 0x0, symName: '__ZNSt3__116__variant_detail12__visitation6__base12__dispatcherIJLm15EEE10__dispatchB8fe200100IONS1_9__variant15__value_visitorIZN12_GLOBAL__N_112alGetEffectiEN3gsl8not_nullIPN2al7ContextEEEjiPiE3$_0EEJRNS0_6__baseILNS0_6_TraitE0EJ17NullEffectHandler19ReverbEffectHandler22StdReverbEffectHandler20AutowahEffectHandler19ChorusEffectHandler23CompressorEffectHandler23DistortionEffectHandler17EchoEffectHandler22EqualizerEffectHandler20FlangerEffectHandler21FshifterEffectHandler22ModulatorEffectHandler21PshifterEffectHandler21VmorpherEffectHandler28DedicatedDialogEffectHandler25DedicatedLfeEffectHandler24ConvolutionEffectHandlerEEEEEEDcT_DpT0_', symObjAddr: 0x34E0, symBinAddr: 0x14FC8, symSize: 0x34 }
  - { offset: 0x141A2F, size: 0x8, addend: 0x0, symName: '__ZNSt3__116__variant_detail12__visitation6__base12__dispatcherIJLm15EEE10__dispatchB8fe200100IONS1_9__variant15__value_visitorIZN12_GLOBAL__N_112alGetEffectiEN3gsl8not_nullIPN2al7ContextEEEjiPiE3$_0EEJRNS0_6__baseILNS0_6_TraitE0EJ17NullEffectHandler19ReverbEffectHandler22StdReverbEffectHandler20AutowahEffectHandler19ChorusEffectHandler23CompressorEffectHandler23DistortionEffectHandler17EchoEffectHandler22EqualizerEffectHandler20FlangerEffectHandler21FshifterEffectHandler22ModulatorEffectHandler21PshifterEffectHandler21VmorpherEffectHandler28DedicatedDialogEffectHandler25DedicatedLfeEffectHandler24ConvolutionEffectHandlerEEEEEEDcT_DpT0_', symObjAddr: 0x34E0, symBinAddr: 0x14FC8, symSize: 0x34 }
  - { offset: 0x141A63, size: 0x8, addend: 0x0, symName: '__ZNSt3__116__variant_detail12__visitation6__base12__dispatcherIJLm15EEE10__dispatchB8fe200100IONS1_9__variant15__value_visitorIZN12_GLOBAL__N_112alGetEffectiEN3gsl8not_nullIPN2al7ContextEEEjiPiE3$_0EEJRNS0_6__baseILNS0_6_TraitE0EJ17NullEffectHandler19ReverbEffectHandler22StdReverbEffectHandler20AutowahEffectHandler19ChorusEffectHandler23CompressorEffectHandler23DistortionEffectHandler17EchoEffectHandler22EqualizerEffectHandler20FlangerEffectHandler21FshifterEffectHandler22ModulatorEffectHandler21PshifterEffectHandler21VmorpherEffectHandler28DedicatedDialogEffectHandler25DedicatedLfeEffectHandler24ConvolutionEffectHandlerEEEEEEDcT_DpT0_', symObjAddr: 0x34E0, symBinAddr: 0x14FC8, symSize: 0x34 }
  - { offset: 0x141A81, size: 0x8, addend: 0x0, symName: '__ZNSt3__116__variant_detail12__visitation6__base12__dispatcherIJLm15EEE10__dispatchB8fe200100IONS1_9__variant15__value_visitorIZN12_GLOBAL__N_112alGetEffectiEN3gsl8not_nullIPN2al7ContextEEEjiPiE3$_0EEJRNS0_6__baseILNS0_6_TraitE0EJ17NullEffectHandler19ReverbEffectHandler22StdReverbEffectHandler20AutowahEffectHandler19ChorusEffectHandler23CompressorEffectHandler23DistortionEffectHandler17EchoEffectHandler22EqualizerEffectHandler20FlangerEffectHandler21FshifterEffectHandler22ModulatorEffectHandler21PshifterEffectHandler21VmorpherEffectHandler28DedicatedDialogEffectHandler25DedicatedLfeEffectHandler24ConvolutionEffectHandlerEEEEEEDcT_DpT0_', symObjAddr: 0x34E0, symBinAddr: 0x14FC8, symSize: 0x34 }
  - { offset: 0x141BF2, size: 0x8, addend: 0x0, symName: '__ZNSt3__116__variant_detail12__visitation6__base12__dispatcherIJLm16EEE10__dispatchB8fe200100IONS1_9__variant15__value_visitorIZN12_GLOBAL__N_112alGetEffectiEN3gsl8not_nullIPN2al7ContextEEEjiPiE3$_0EEJRNS0_6__baseILNS0_6_TraitE0EJ17NullEffectHandler19ReverbEffectHandler22StdReverbEffectHandler20AutowahEffectHandler19ChorusEffectHandler23CompressorEffectHandler23DistortionEffectHandler17EchoEffectHandler22EqualizerEffectHandler20FlangerEffectHandler21FshifterEffectHandler22ModulatorEffectHandler21PshifterEffectHandler21VmorpherEffectHandler28DedicatedDialogEffectHandler25DedicatedLfeEffectHandler24ConvolutionEffectHandlerEEEEEEDcT_DpT0_', symObjAddr: 0x3514, symBinAddr: 0x14FFC, symSize: 0x34 }
  - { offset: 0x141C6F, size: 0x8, addend: 0x0, symName: '__ZNSt3__116__variant_detail12__visitation6__base12__dispatcherIJLm16EEE10__dispatchB8fe200100IONS1_9__variant15__value_visitorIZN12_GLOBAL__N_112alGetEffectiEN3gsl8not_nullIPN2al7ContextEEEjiPiE3$_0EEJRNS0_6__baseILNS0_6_TraitE0EJ17NullEffectHandler19ReverbEffectHandler22StdReverbEffectHandler20AutowahEffectHandler19ChorusEffectHandler23CompressorEffectHandler23DistortionEffectHandler17EchoEffectHandler22EqualizerEffectHandler20FlangerEffectHandler21FshifterEffectHandler22ModulatorEffectHandler21PshifterEffectHandler21VmorpherEffectHandler28DedicatedDialogEffectHandler25DedicatedLfeEffectHandler24ConvolutionEffectHandlerEEEEEEDcT_DpT0_', symObjAddr: 0x3514, symBinAddr: 0x14FFC, symSize: 0x34 }
  - { offset: 0x141CA3, size: 0x8, addend: 0x0, symName: '__ZNSt3__116__variant_detail12__visitation6__base12__dispatcherIJLm16EEE10__dispatchB8fe200100IONS1_9__variant15__value_visitorIZN12_GLOBAL__N_112alGetEffectiEN3gsl8not_nullIPN2al7ContextEEEjiPiE3$_0EEJRNS0_6__baseILNS0_6_TraitE0EJ17NullEffectHandler19ReverbEffectHandler22StdReverbEffectHandler20AutowahEffectHandler19ChorusEffectHandler23CompressorEffectHandler23DistortionEffectHandler17EchoEffectHandler22EqualizerEffectHandler20FlangerEffectHandler21FshifterEffectHandler22ModulatorEffectHandler21PshifterEffectHandler21VmorpherEffectHandler28DedicatedDialogEffectHandler25DedicatedLfeEffectHandler24ConvolutionEffectHandlerEEEEEEDcT_DpT0_', symObjAddr: 0x3514, symBinAddr: 0x14FFC, symSize: 0x34 }
  - { offset: 0x141CC1, size: 0x8, addend: 0x0, symName: '__ZNSt3__116__variant_detail12__visitation6__base12__dispatcherIJLm16EEE10__dispatchB8fe200100IONS1_9__variant15__value_visitorIZN12_GLOBAL__N_112alGetEffectiEN3gsl8not_nullIPN2al7ContextEEEjiPiE3$_0EEJRNS0_6__baseILNS0_6_TraitE0EJ17NullEffectHandler19ReverbEffectHandler22StdReverbEffectHandler20AutowahEffectHandler19ChorusEffectHandler23CompressorEffectHandler23DistortionEffectHandler17EchoEffectHandler22EqualizerEffectHandler20FlangerEffectHandler21FshifterEffectHandler22ModulatorEffectHandler21PshifterEffectHandler21VmorpherEffectHandler28DedicatedDialogEffectHandler25DedicatedLfeEffectHandler24ConvolutionEffectHandlerEEEEEEDcT_DpT0_', symObjAddr: 0x3514, symBinAddr: 0x14FFC, symSize: 0x34 }
  - { offset: 0x141E32, size: 0x8, addend: 0x0, symName: '__ZNSt3__116__variant_detail12__visitation6__base12__dispatcherIJLm0EEE10__dispatchB8fe200100IONS1_9__variant15__value_visitorIZN12_GLOBAL__N_113alGetEffectivEN3gsl8not_nullIPN2al7ContextEEEjiPiE3$_0EEJRNS0_6__baseILNS0_6_TraitE0EJ17NullEffectHandler19ReverbEffectHandler22StdReverbEffectHandler20AutowahEffectHandler19ChorusEffectHandler23CompressorEffectHandler23DistortionEffectHandler17EchoEffectHandler22EqualizerEffectHandler20FlangerEffectHandler21FshifterEffectHandler22ModulatorEffectHandler21PshifterEffectHandler21VmorpherEffectHandler28DedicatedDialogEffectHandler25DedicatedLfeEffectHandler24ConvolutionEffectHandlerEEEEEEDcT_DpT0_', symObjAddr: 0x3548, symBinAddr: 0x15030, symSize: 0x30 }
  - { offset: 0x141ED3, size: 0x8, addend: 0x0, symName: '__ZNSt3__116__variant_detail12__visitation6__base12__dispatcherIJLm0EEE10__dispatchB8fe200100IONS1_9__variant15__value_visitorIZN12_GLOBAL__N_113alGetEffectivEN3gsl8not_nullIPN2al7ContextEEEjiPiE3$_0EEJRNS0_6__baseILNS0_6_TraitE0EJ17NullEffectHandler19ReverbEffectHandler22StdReverbEffectHandler20AutowahEffectHandler19ChorusEffectHandler23CompressorEffectHandler23DistortionEffectHandler17EchoEffectHandler22EqualizerEffectHandler20FlangerEffectHandler21FshifterEffectHandler22ModulatorEffectHandler21PshifterEffectHandler21VmorpherEffectHandler28DedicatedDialogEffectHandler25DedicatedLfeEffectHandler24ConvolutionEffectHandlerEEEEEEDcT_DpT0_', symObjAddr: 0x3548, symBinAddr: 0x15030, symSize: 0x30 }
  - { offset: 0x141F07, size: 0x8, addend: 0x0, symName: '__ZNSt3__116__variant_detail12__visitation6__base12__dispatcherIJLm0EEE10__dispatchB8fe200100IONS1_9__variant15__value_visitorIZN12_GLOBAL__N_113alGetEffectivEN3gsl8not_nullIPN2al7ContextEEEjiPiE3$_0EEJRNS0_6__baseILNS0_6_TraitE0EJ17NullEffectHandler19ReverbEffectHandler22StdReverbEffectHandler20AutowahEffectHandler19ChorusEffectHandler23CompressorEffectHandler23DistortionEffectHandler17EchoEffectHandler22EqualizerEffectHandler20FlangerEffectHandler21FshifterEffectHandler22ModulatorEffectHandler21PshifterEffectHandler21VmorpherEffectHandler28DedicatedDialogEffectHandler25DedicatedLfeEffectHandler24ConvolutionEffectHandlerEEEEEEDcT_DpT0_', symObjAddr: 0x3548, symBinAddr: 0x15030, symSize: 0x30 }
  - { offset: 0x141F25, size: 0x8, addend: 0x0, symName: '__ZNSt3__116__variant_detail12__visitation6__base12__dispatcherIJLm0EEE10__dispatchB8fe200100IONS1_9__variant15__value_visitorIZN12_GLOBAL__N_113alGetEffectivEN3gsl8not_nullIPN2al7ContextEEEjiPiE3$_0EEJRNS0_6__baseILNS0_6_TraitE0EJ17NullEffectHandler19ReverbEffectHandler22StdReverbEffectHandler20AutowahEffectHandler19ChorusEffectHandler23CompressorEffectHandler23DistortionEffectHandler17EchoEffectHandler22EqualizerEffectHandler20FlangerEffectHandler21FshifterEffectHandler22ModulatorEffectHandler21PshifterEffectHandler21VmorpherEffectHandler28DedicatedDialogEffectHandler25DedicatedLfeEffectHandler24ConvolutionEffectHandlerEEEEEEDcT_DpT0_', symObjAddr: 0x3548, symBinAddr: 0x15030, symSize: 0x30 }
  - { offset: 0x142096, size: 0x8, addend: 0x0, symName: '__ZNSt3__116__variant_detail12__visitation6__base12__dispatcherIJLm1EEE10__dispatchB8fe200100IONS1_9__variant15__value_visitorIZN12_GLOBAL__N_113alGetEffectivEN3gsl8not_nullIPN2al7ContextEEEjiPiE3$_0EEJRNS0_6__baseILNS0_6_TraitE0EJ17NullEffectHandler19ReverbEffectHandler22StdReverbEffectHandler20AutowahEffectHandler19ChorusEffectHandler23CompressorEffectHandler23DistortionEffectHandler17EchoEffectHandler22EqualizerEffectHandler20FlangerEffectHandler21FshifterEffectHandler22ModulatorEffectHandler21PshifterEffectHandler21VmorpherEffectHandler28DedicatedDialogEffectHandler25DedicatedLfeEffectHandler24ConvolutionEffectHandlerEEEEEEDcT_DpT0_', symObjAddr: 0x3578, symBinAddr: 0x15060, symSize: 0x34 }
  - { offset: 0x142113, size: 0x8, addend: 0x0, symName: '__ZNSt3__116__variant_detail12__visitation6__base12__dispatcherIJLm1EEE10__dispatchB8fe200100IONS1_9__variant15__value_visitorIZN12_GLOBAL__N_113alGetEffectivEN3gsl8not_nullIPN2al7ContextEEEjiPiE3$_0EEJRNS0_6__baseILNS0_6_TraitE0EJ17NullEffectHandler19ReverbEffectHandler22StdReverbEffectHandler20AutowahEffectHandler19ChorusEffectHandler23CompressorEffectHandler23DistortionEffectHandler17EchoEffectHandler22EqualizerEffectHandler20FlangerEffectHandler21FshifterEffectHandler22ModulatorEffectHandler21PshifterEffectHandler21VmorpherEffectHandler28DedicatedDialogEffectHandler25DedicatedLfeEffectHandler24ConvolutionEffectHandlerEEEEEEDcT_DpT0_', symObjAddr: 0x3578, symBinAddr: 0x15060, symSize: 0x34 }
  - { offset: 0x142147, size: 0x8, addend: 0x0, symName: '__ZNSt3__116__variant_detail12__visitation6__base12__dispatcherIJLm1EEE10__dispatchB8fe200100IONS1_9__variant15__value_visitorIZN12_GLOBAL__N_113alGetEffectivEN3gsl8not_nullIPN2al7ContextEEEjiPiE3$_0EEJRNS0_6__baseILNS0_6_TraitE0EJ17NullEffectHandler19ReverbEffectHandler22StdReverbEffectHandler20AutowahEffectHandler19ChorusEffectHandler23CompressorEffectHandler23DistortionEffectHandler17EchoEffectHandler22EqualizerEffectHandler20FlangerEffectHandler21FshifterEffectHandler22ModulatorEffectHandler21PshifterEffectHandler21VmorpherEffectHandler28DedicatedDialogEffectHandler25DedicatedLfeEffectHandler24ConvolutionEffectHandlerEEEEEEDcT_DpT0_', symObjAddr: 0x3578, symBinAddr: 0x15060, symSize: 0x34 }
  - { offset: 0x142165, size: 0x8, addend: 0x0, symName: '__ZNSt3__116__variant_detail12__visitation6__base12__dispatcherIJLm1EEE10__dispatchB8fe200100IONS1_9__variant15__value_visitorIZN12_GLOBAL__N_113alGetEffectivEN3gsl8not_nullIPN2al7ContextEEEjiPiE3$_0EEJRNS0_6__baseILNS0_6_TraitE0EJ17NullEffectHandler19ReverbEffectHandler22StdReverbEffectHandler20AutowahEffectHandler19ChorusEffectHandler23CompressorEffectHandler23DistortionEffectHandler17EchoEffectHandler22EqualizerEffectHandler20FlangerEffectHandler21FshifterEffectHandler22ModulatorEffectHandler21PshifterEffectHandler21VmorpherEffectHandler28DedicatedDialogEffectHandler25DedicatedLfeEffectHandler24ConvolutionEffectHandlerEEEEEEDcT_DpT0_', symObjAddr: 0x3578, symBinAddr: 0x15060, symSize: 0x34 }
  - { offset: 0x1422D6, size: 0x8, addend: 0x0, symName: '__ZNSt3__116__variant_detail12__visitation6__base12__dispatcherIJLm2EEE10__dispatchB8fe200100IONS1_9__variant15__value_visitorIZN12_GLOBAL__N_113alGetEffectivEN3gsl8not_nullIPN2al7ContextEEEjiPiE3$_0EEJRNS0_6__baseILNS0_6_TraitE0EJ17NullEffectHandler19ReverbEffectHandler22StdReverbEffectHandler20AutowahEffectHandler19ChorusEffectHandler23CompressorEffectHandler23DistortionEffectHandler17EchoEffectHandler22EqualizerEffectHandler20FlangerEffectHandler21FshifterEffectHandler22ModulatorEffectHandler21PshifterEffectHandler21VmorpherEffectHandler28DedicatedDialogEffectHandler25DedicatedLfeEffectHandler24ConvolutionEffectHandlerEEEEEEDcT_DpT0_', symObjAddr: 0x35AC, symBinAddr: 0x15094, symSize: 0x34 }
  - { offset: 0x142353, size: 0x8, addend: 0x0, symName: '__ZNSt3__116__variant_detail12__visitation6__base12__dispatcherIJLm2EEE10__dispatchB8fe200100IONS1_9__variant15__value_visitorIZN12_GLOBAL__N_113alGetEffectivEN3gsl8not_nullIPN2al7ContextEEEjiPiE3$_0EEJRNS0_6__baseILNS0_6_TraitE0EJ17NullEffectHandler19ReverbEffectHandler22StdReverbEffectHandler20AutowahEffectHandler19ChorusEffectHandler23CompressorEffectHandler23DistortionEffectHandler17EchoEffectHandler22EqualizerEffectHandler20FlangerEffectHandler21FshifterEffectHandler22ModulatorEffectHandler21PshifterEffectHandler21VmorpherEffectHandler28DedicatedDialogEffectHandler25DedicatedLfeEffectHandler24ConvolutionEffectHandlerEEEEEEDcT_DpT0_', symObjAddr: 0x35AC, symBinAddr: 0x15094, symSize: 0x34 }
  - { offset: 0x142387, size: 0x8, addend: 0x0, symName: '__ZNSt3__116__variant_detail12__visitation6__base12__dispatcherIJLm2EEE10__dispatchB8fe200100IONS1_9__variant15__value_visitorIZN12_GLOBAL__N_113alGetEffectivEN3gsl8not_nullIPN2al7ContextEEEjiPiE3$_0EEJRNS0_6__baseILNS0_6_TraitE0EJ17NullEffectHandler19ReverbEffectHandler22StdReverbEffectHandler20AutowahEffectHandler19ChorusEffectHandler23CompressorEffectHandler23DistortionEffectHandler17EchoEffectHandler22EqualizerEffectHandler20FlangerEffectHandler21FshifterEffectHandler22ModulatorEffectHandler21PshifterEffectHandler21VmorpherEffectHandler28DedicatedDialogEffectHandler25DedicatedLfeEffectHandler24ConvolutionEffectHandlerEEEEEEDcT_DpT0_', symObjAddr: 0x35AC, symBinAddr: 0x15094, symSize: 0x34 }
  - { offset: 0x1423A5, size: 0x8, addend: 0x0, symName: '__ZNSt3__116__variant_detail12__visitation6__base12__dispatcherIJLm2EEE10__dispatchB8fe200100IONS1_9__variant15__value_visitorIZN12_GLOBAL__N_113alGetEffectivEN3gsl8not_nullIPN2al7ContextEEEjiPiE3$_0EEJRNS0_6__baseILNS0_6_TraitE0EJ17NullEffectHandler19ReverbEffectHandler22StdReverbEffectHandler20AutowahEffectHandler19ChorusEffectHandler23CompressorEffectHandler23DistortionEffectHandler17EchoEffectHandler22EqualizerEffectHandler20FlangerEffectHandler21FshifterEffectHandler22ModulatorEffectHandler21PshifterEffectHandler21VmorpherEffectHandler28DedicatedDialogEffectHandler25DedicatedLfeEffectHandler24ConvolutionEffectHandlerEEEEEEDcT_DpT0_', symObjAddr: 0x35AC, symBinAddr: 0x15094, symSize: 0x34 }
  - { offset: 0x142516, size: 0x8, addend: 0x0, symName: '__ZNSt3__116__variant_detail12__visitation6__base12__dispatcherIJLm3EEE10__dispatchB8fe200100IONS1_9__variant15__value_visitorIZN12_GLOBAL__N_113alGetEffectivEN3gsl8not_nullIPN2al7ContextEEEjiPiE3$_0EEJRNS0_6__baseILNS0_6_TraitE0EJ17NullEffectHandler19ReverbEffectHandler22StdReverbEffectHandler20AutowahEffectHandler19ChorusEffectHandler23CompressorEffectHandler23DistortionEffectHandler17EchoEffectHandler22EqualizerEffectHandler20FlangerEffectHandler21FshifterEffectHandler22ModulatorEffectHandler21PshifterEffectHandler21VmorpherEffectHandler28DedicatedDialogEffectHandler25DedicatedLfeEffectHandler24ConvolutionEffectHandlerEEEEEEDcT_DpT0_', symObjAddr: 0x35E0, symBinAddr: 0x150C8, symSize: 0x34 }
  - { offset: 0x142593, size: 0x8, addend: 0x0, symName: '__ZNSt3__116__variant_detail12__visitation6__base12__dispatcherIJLm3EEE10__dispatchB8fe200100IONS1_9__variant15__value_visitorIZN12_GLOBAL__N_113alGetEffectivEN3gsl8not_nullIPN2al7ContextEEEjiPiE3$_0EEJRNS0_6__baseILNS0_6_TraitE0EJ17NullEffectHandler19ReverbEffectHandler22StdReverbEffectHandler20AutowahEffectHandler19ChorusEffectHandler23CompressorEffectHandler23DistortionEffectHandler17EchoEffectHandler22EqualizerEffectHandler20FlangerEffectHandler21FshifterEffectHandler22ModulatorEffectHandler21PshifterEffectHandler21VmorpherEffectHandler28DedicatedDialogEffectHandler25DedicatedLfeEffectHandler24ConvolutionEffectHandlerEEEEEEDcT_DpT0_', symObjAddr: 0x35E0, symBinAddr: 0x150C8, symSize: 0x34 }
  - { offset: 0x1425C7, size: 0x8, addend: 0x0, symName: '__ZNSt3__116__variant_detail12__visitation6__base12__dispatcherIJLm3EEE10__dispatchB8fe200100IONS1_9__variant15__value_visitorIZN12_GLOBAL__N_113alGetEffectivEN3gsl8not_nullIPN2al7ContextEEEjiPiE3$_0EEJRNS0_6__baseILNS0_6_TraitE0EJ17NullEffectHandler19ReverbEffectHandler22StdReverbEffectHandler20AutowahEffectHandler19ChorusEffectHandler23CompressorEffectHandler23DistortionEffectHandler17EchoEffectHandler22EqualizerEffectHandler20FlangerEffectHandler21FshifterEffectHandler22ModulatorEffectHandler21PshifterEffectHandler21VmorpherEffectHandler28DedicatedDialogEffectHandler25DedicatedLfeEffectHandler24ConvolutionEffectHandlerEEEEEEDcT_DpT0_', symObjAddr: 0x35E0, symBinAddr: 0x150C8, symSize: 0x34 }
  - { offset: 0x1425E5, size: 0x8, addend: 0x0, symName: '__ZNSt3__116__variant_detail12__visitation6__base12__dispatcherIJLm3EEE10__dispatchB8fe200100IONS1_9__variant15__value_visitorIZN12_GLOBAL__N_113alGetEffectivEN3gsl8not_nullIPN2al7ContextEEEjiPiE3$_0EEJRNS0_6__baseILNS0_6_TraitE0EJ17NullEffectHandler19ReverbEffectHandler22StdReverbEffectHandler20AutowahEffectHandler19ChorusEffectHandler23CompressorEffectHandler23DistortionEffectHandler17EchoEffectHandler22EqualizerEffectHandler20FlangerEffectHandler21FshifterEffectHandler22ModulatorEffectHandler21PshifterEffectHandler21VmorpherEffectHandler28DedicatedDialogEffectHandler25DedicatedLfeEffectHandler24ConvolutionEffectHandlerEEEEEEDcT_DpT0_', symObjAddr: 0x35E0, symBinAddr: 0x150C8, symSize: 0x34 }
  - { offset: 0x142756, size: 0x8, addend: 0x0, symName: '__ZNSt3__116__variant_detail12__visitation6__base12__dispatcherIJLm4EEE10__dispatchB8fe200100IONS1_9__variant15__value_visitorIZN12_GLOBAL__N_113alGetEffectivEN3gsl8not_nullIPN2al7ContextEEEjiPiE3$_0EEJRNS0_6__baseILNS0_6_TraitE0EJ17NullEffectHandler19ReverbEffectHandler22StdReverbEffectHandler20AutowahEffectHandler19ChorusEffectHandler23CompressorEffectHandler23DistortionEffectHandler17EchoEffectHandler22EqualizerEffectHandler20FlangerEffectHandler21FshifterEffectHandler22ModulatorEffectHandler21PshifterEffectHandler21VmorpherEffectHandler28DedicatedDialogEffectHandler25DedicatedLfeEffectHandler24ConvolutionEffectHandlerEEEEEEDcT_DpT0_', symObjAddr: 0x3614, symBinAddr: 0x150FC, symSize: 0x34 }
  - { offset: 0x1427D3, size: 0x8, addend: 0x0, symName: '__ZNSt3__116__variant_detail12__visitation6__base12__dispatcherIJLm4EEE10__dispatchB8fe200100IONS1_9__variant15__value_visitorIZN12_GLOBAL__N_113alGetEffectivEN3gsl8not_nullIPN2al7ContextEEEjiPiE3$_0EEJRNS0_6__baseILNS0_6_TraitE0EJ17NullEffectHandler19ReverbEffectHandler22StdReverbEffectHandler20AutowahEffectHandler19ChorusEffectHandler23CompressorEffectHandler23DistortionEffectHandler17EchoEffectHandler22EqualizerEffectHandler20FlangerEffectHandler21FshifterEffectHandler22ModulatorEffectHandler21PshifterEffectHandler21VmorpherEffectHandler28DedicatedDialogEffectHandler25DedicatedLfeEffectHandler24ConvolutionEffectHandlerEEEEEEDcT_DpT0_', symObjAddr: 0x3614, symBinAddr: 0x150FC, symSize: 0x34 }
  - { offset: 0x142807, size: 0x8, addend: 0x0, symName: '__ZNSt3__116__variant_detail12__visitation6__base12__dispatcherIJLm4EEE10__dispatchB8fe200100IONS1_9__variant15__value_visitorIZN12_GLOBAL__N_113alGetEffectivEN3gsl8not_nullIPN2al7ContextEEEjiPiE3$_0EEJRNS0_6__baseILNS0_6_TraitE0EJ17NullEffectHandler19ReverbEffectHandler22StdReverbEffectHandler20AutowahEffectHandler19ChorusEffectHandler23CompressorEffectHandler23DistortionEffectHandler17EchoEffectHandler22EqualizerEffectHandler20FlangerEffectHandler21FshifterEffectHandler22ModulatorEffectHandler21PshifterEffectHandler21VmorpherEffectHandler28DedicatedDialogEffectHandler25DedicatedLfeEffectHandler24ConvolutionEffectHandlerEEEEEEDcT_DpT0_', symObjAddr: 0x3614, symBinAddr: 0x150FC, symSize: 0x34 }
